
Firmware_skeleton.elf:     file format elf32-littlearm

Sections:
Idx Name          Size      VMA       LMA       File off  Algn
  0 .isr_vector   000001c4  08000000  08000000  00001000  2**0
                  CONTENTS, ALLOC, LOAD, READONLY, DATA
  1 .text         00007928  080001d0  080001d0  000011d0  2**4
                  CONTENTS, ALLOC, LOAD, READONLY, CODE
  2 .rodata       00000668  08007af8  08007af8  00008af8  2**3
                  CONTENTS, ALLOC, LOAD, READONLY, DATA
  3 .ARM.extab    00000000  08008160  08008160  0000a1e4  2**0
                  CONTENTS, READONLY
  4 .ARM          00000008  08008160  08008160  00009160  2**2
                  CONTENTS, ALLOC, LOAD, READONLY, DATA
  5 .preinit_array 00000000  08008168  08008168  0000a1e4  2**0
                  CONTENTS, ALLOC, LOAD, DATA
  6 .init_array   00000004  08008168  08008168  00009168  2**2
                  CONTENTS, ALLOC, LOAD, READONLY, DATA
  7 .fini_array   00000004  0800816c  0800816c  0000916c  2**2
                  CONTENTS, ALLOC, LOAD, READONLY, DATA
  8 .data         000001e4  20000000  08008170  0000a000  2**2
                  CONTENTS, ALLOC, LOAD, DATA
  9 .bss          000002a4  200001e4  08008354  0000a1e4  2**2
                  ALLOC
 10 ._user_heap_stack 00000600  20000488  08008354  0000a488  2**0
                  ALLOC
 11 .ARM.attributes 00000030  00000000  00000000  0000a1e4  2**0
                  CONTENTS, READONLY
 12 .debug_info   0000332e  00000000  00000000  0000a214  2**0
                  CONTENTS, READONLY, DEBUGGING, OCTETS
 13 .debug_abbrev 00000f0e  00000000  00000000  0000d542  2**0
                  CONTENTS, READONLY, DEBUGGING, OCTETS
 14 .debug_aranges 00000398  00000000  00000000  0000e450  2**3
                  CONTENTS, READONLY, DEBUGGING, OCTETS
 15 .debug_rnglists 0000028c  00000000  00000000  0000e7e8  2**0
                  CONTENTS, READONLY, DEBUGGING, OCTETS
 16 .debug_macro  0001b357  00000000  00000000  0000ea74  2**0
                  CONTENTS, READONLY, DEBUGGING, OCTETS
 17 .debug_line   0000460f  00000000  00000000  00029dcb  2**0
                  CONTENTS, READONLY, DEBUGGING, OCTETS
 18 .debug_str    000c9958  00000000  00000000  0002e3da  2**0
                  CONTENTS, READONLY, DEBUGGING, OCTETS
 19 .comment      00000043  00000000  00000000  000f7d32  2**0
                  CONTENTS, READONLY
 20 .debug_frame  000024ac  00000000  00000000  000f7d78  2**2
                  CONTENTS, READONLY, DEBUGGING, OCTETS
 21 .debug_line_str 0000006f  00000000  00000000  000fa224  2**0
                  CONTENTS, READONLY, DEBUGGING, OCTETS

Disassembly of section .text:

080001d0 <__do_global_dtors_aux>:
 80001d0:	b510      	push	{r4, lr}
 80001d2:	4c05      	ldr	r4, [pc, #20]	@ (80001e8 <__do_global_dtors_aux+0x18>)
 80001d4:	7823      	ldrb	r3, [r4, #0]
 80001d6:	b933      	cbnz	r3, 80001e6 <__do_global_dtors_aux+0x16>
 80001d8:	4b04      	ldr	r3, [pc, #16]	@ (80001ec <__do_global_dtors_aux+0x1c>)
 80001da:	b113      	cbz	r3, 80001e2 <__do_global_dtors_aux+0x12>
 80001dc:	4804      	ldr	r0, [pc, #16]	@ (80001f0 <__do_global_dtors_aux+0x20>)
 80001de:	f3af 8000 	nop.w
 80001e2:	2301      	movs	r3, #1
 80001e4:	7023      	strb	r3, [r4, #0]
 80001e6:	bd10      	pop	{r4, pc}
 80001e8:	200001e4 	.word	0x200001e4
 80001ec:	00000000 	.word	0x00000000
 80001f0:	08007ae0 	.word	0x08007ae0

080001f4 <frame_dummy>:
 80001f4:	b508      	push	{r3, lr}
 80001f6:	4b03      	ldr	r3, [pc, #12]	@ (8000204 <frame_dummy+0x10>)
 80001f8:	b11b      	cbz	r3, 8000202 <frame_dummy+0xe>
 80001fa:	4903      	ldr	r1, [pc, #12]	@ (8000208 <frame_dummy+0x14>)
 80001fc:	4803      	ldr	r0, [pc, #12]	@ (800020c <frame_dummy+0x18>)
 80001fe:	f3af 8000 	nop.w
 8000202:	bd08      	pop	{r3, pc}
 8000204:	00000000 	.word	0x00000000
 8000208:	200001e8 	.word	0x200001e8
 800020c:	08007ae0 	.word	0x08007ae0

08000210 <strcmp>:
 8000210:	f810 2b01 	ldrb.w	r2, [r0], #1
 8000214:	f811 3b01 	ldrb.w	r3, [r1], #1
 8000218:	2a01      	cmp	r2, #1
 800021a:	bf28      	it	cs
 800021c:	429a      	cmpcs	r2, r3
 800021e:	d0f7      	beq.n	8000210 <strcmp>
 8000220:	1ad0      	subs	r0, r2, r3
 8000222:	4770      	bx	lr
	...

08000230 <memchr>:
 8000230:	f001 01ff 	and.w	r1, r1, #255	@ 0xff
 8000234:	2a10      	cmp	r2, #16
 8000236:	db2b      	blt.n	8000290 <memchr+0x60>
 8000238:	f010 0f07 	tst.w	r0, #7
 800023c:	d008      	beq.n	8000250 <memchr+0x20>
 800023e:	f810 3b01 	ldrb.w	r3, [r0], #1
 8000242:	3a01      	subs	r2, #1
 8000244:	428b      	cmp	r3, r1
 8000246:	d02d      	beq.n	80002a4 <memchr+0x74>
 8000248:	f010 0f07 	tst.w	r0, #7
 800024c:	b342      	cbz	r2, 80002a0 <memchr+0x70>
 800024e:	d1f6      	bne.n	800023e <memchr+0xe>
 8000250:	b4f0      	push	{r4, r5, r6, r7}
 8000252:	ea41 2101 	orr.w	r1, r1, r1, lsl #8
 8000256:	ea41 4101 	orr.w	r1, r1, r1, lsl #16
 800025a:	f022 0407 	bic.w	r4, r2, #7
 800025e:	f07f 0700 	mvns.w	r7, #0
 8000262:	2300      	movs	r3, #0
 8000264:	e8f0 5602 	ldrd	r5, r6, [r0], #8
 8000268:	3c08      	subs	r4, #8
 800026a:	ea85 0501 	eor.w	r5, r5, r1
 800026e:	ea86 0601 	eor.w	r6, r6, r1
 8000272:	fa85 f547 	uadd8	r5, r5, r7
 8000276:	faa3 f587 	sel	r5, r3, r7
 800027a:	fa86 f647 	uadd8	r6, r6, r7
 800027e:	faa5 f687 	sel	r6, r5, r7
 8000282:	b98e      	cbnz	r6, 80002a8 <memchr+0x78>
 8000284:	d1ee      	bne.n	8000264 <memchr+0x34>
 8000286:	bcf0      	pop	{r4, r5, r6, r7}
 8000288:	f001 01ff 	and.w	r1, r1, #255	@ 0xff
 800028c:	f002 0207 	and.w	r2, r2, #7
 8000290:	b132      	cbz	r2, 80002a0 <memchr+0x70>
 8000292:	f810 3b01 	ldrb.w	r3, [r0], #1
 8000296:	3a01      	subs	r2, #1
 8000298:	ea83 0301 	eor.w	r3, r3, r1
 800029c:	b113      	cbz	r3, 80002a4 <memchr+0x74>
 800029e:	d1f8      	bne.n	8000292 <memchr+0x62>
 80002a0:	2000      	movs	r0, #0
 80002a2:	4770      	bx	lr
 80002a4:	3801      	subs	r0, #1
 80002a6:	4770      	bx	lr
 80002a8:	2d00      	cmp	r5, #0
 80002aa:	bf06      	itte	eq
 80002ac:	4635      	moveq	r5, r6
 80002ae:	3803      	subeq	r0, #3
 80002b0:	3807      	subne	r0, #7
 80002b2:	f015 0f01 	tst.w	r5, #1
 80002b6:	d107      	bne.n	80002c8 <memchr+0x98>
 80002b8:	3001      	adds	r0, #1
 80002ba:	f415 7f80 	tst.w	r5, #256	@ 0x100
 80002be:	bf02      	ittt	eq
 80002c0:	3001      	addeq	r0, #1
 80002c2:	f415 3fc0 	tsteq.w	r5, #98304	@ 0x18000
 80002c6:	3001      	addeq	r0, #1
 80002c8:	bcf0      	pop	{r4, r5, r6, r7}
 80002ca:	3801      	subs	r0, #1
 80002cc:	4770      	bx	lr
 80002ce:	bf00      	nop

080002d0 <strlen>:
 80002d0:	4603      	mov	r3, r0
 80002d2:	f813 2b01 	ldrb.w	r2, [r3], #1
 80002d6:	2a00      	cmp	r2, #0
 80002d8:	d1fb      	bne.n	80002d2 <strlen+0x2>
 80002da:	1a18      	subs	r0, r3, r0
 80002dc:	3801      	subs	r0, #1
 80002de:	4770      	bx	lr

080002e0 <__aeabi_drsub>:
 80002e0:	f081 4100 	eor.w	r1, r1, #2147483648	@ 0x80000000
 80002e4:	e002      	b.n	80002ec <__adddf3>
 80002e6:	bf00      	nop

080002e8 <__aeabi_dsub>:
 80002e8:	f083 4300 	eor.w	r3, r3, #2147483648	@ 0x80000000

080002ec <__adddf3>:
 80002ec:	b530      	push	{r4, r5, lr}
 80002ee:	ea4f 0441 	mov.w	r4, r1, lsl #1
 80002f2:	ea4f 0543 	mov.w	r5, r3, lsl #1
 80002f6:	ea94 0f05 	teq	r4, r5
 80002fa:	bf08      	it	eq
 80002fc:	ea90 0f02 	teqeq	r0, r2
 8000300:	bf1f      	itttt	ne
 8000302:	ea54 0c00 	orrsne.w	ip, r4, r0
 8000306:	ea55 0c02 	orrsne.w	ip, r5, r2
 800030a:	ea7f 5c64 	mvnsne.w	ip, r4, asr #21
 800030e:	ea7f 5c65 	mvnsne.w	ip, r5, asr #21
 8000312:	f000 80e2 	beq.w	80004da <__adddf3+0x1ee>
 8000316:	ea4f 5454 	mov.w	r4, r4, lsr #21
 800031a:	ebd4 5555 	rsbs	r5, r4, r5, lsr #21
 800031e:	bfb8      	it	lt
 8000320:	426d      	neglt	r5, r5
 8000322:	dd0c      	ble.n	800033e <__adddf3+0x52>
 8000324:	442c      	add	r4, r5
 8000326:	ea80 0202 	eor.w	r2, r0, r2
 800032a:	ea81 0303 	eor.w	r3, r1, r3
 800032e:	ea82 0000 	eor.w	r0, r2, r0
 8000332:	ea83 0101 	eor.w	r1, r3, r1
 8000336:	ea80 0202 	eor.w	r2, r0, r2
 800033a:	ea81 0303 	eor.w	r3, r1, r3
 800033e:	2d36      	cmp	r5, #54	@ 0x36
 8000340:	bf88      	it	hi
 8000342:	bd30      	pophi	{r4, r5, pc}
 8000344:	f011 4f00 	tst.w	r1, #2147483648	@ 0x80000000
 8000348:	ea4f 3101 	mov.w	r1, r1, lsl #12
 800034c:	f44f 1c80 	mov.w	ip, #1048576	@ 0x100000
 8000350:	ea4c 3111 	orr.w	r1, ip, r1, lsr #12
 8000354:	d002      	beq.n	800035c <__adddf3+0x70>
 8000356:	4240      	negs	r0, r0
 8000358:	eb61 0141 	sbc.w	r1, r1, r1, lsl #1
 800035c:	f013 4f00 	tst.w	r3, #2147483648	@ 0x80000000
 8000360:	ea4f 3303 	mov.w	r3, r3, lsl #12
 8000364:	ea4c 3313 	orr.w	r3, ip, r3, lsr #12
 8000368:	d002      	beq.n	8000370 <__adddf3+0x84>
 800036a:	4252      	negs	r2, r2
 800036c:	eb63 0343 	sbc.w	r3, r3, r3, lsl #1
 8000370:	ea94 0f05 	teq	r4, r5
 8000374:	f000 80a7 	beq.w	80004c6 <__adddf3+0x1da>
 8000378:	f1a4 0401 	sub.w	r4, r4, #1
 800037c:	f1d5 0e20 	rsbs	lr, r5, #32
 8000380:	db0d      	blt.n	800039e <__adddf3+0xb2>
 8000382:	fa02 fc0e 	lsl.w	ip, r2, lr
 8000386:	fa22 f205 	lsr.w	r2, r2, r5
 800038a:	1880      	adds	r0, r0, r2
 800038c:	f141 0100 	adc.w	r1, r1, #0
 8000390:	fa03 f20e 	lsl.w	r2, r3, lr
 8000394:	1880      	adds	r0, r0, r2
 8000396:	fa43 f305 	asr.w	r3, r3, r5
 800039a:	4159      	adcs	r1, r3
 800039c:	e00e      	b.n	80003bc <__adddf3+0xd0>
 800039e:	f1a5 0520 	sub.w	r5, r5, #32
 80003a2:	f10e 0e20 	add.w	lr, lr, #32
 80003a6:	2a01      	cmp	r2, #1
 80003a8:	fa03 fc0e 	lsl.w	ip, r3, lr
 80003ac:	bf28      	it	cs
 80003ae:	f04c 0c02 	orrcs.w	ip, ip, #2
 80003b2:	fa43 f305 	asr.w	r3, r3, r5
 80003b6:	18c0      	adds	r0, r0, r3
 80003b8:	eb51 71e3 	adcs.w	r1, r1, r3, asr #31
 80003bc:	f001 4500 	and.w	r5, r1, #2147483648	@ 0x80000000
 80003c0:	d507      	bpl.n	80003d2 <__adddf3+0xe6>
 80003c2:	f04f 0e00 	mov.w	lr, #0
 80003c6:	f1dc 0c00 	rsbs	ip, ip, #0
 80003ca:	eb7e 0000 	sbcs.w	r0, lr, r0
 80003ce:	eb6e 0101 	sbc.w	r1, lr, r1
 80003d2:	f5b1 1f80 	cmp.w	r1, #1048576	@ 0x100000
 80003d6:	d31b      	bcc.n	8000410 <__adddf3+0x124>
 80003d8:	f5b1 1f00 	cmp.w	r1, #2097152	@ 0x200000
 80003dc:	d30c      	bcc.n	80003f8 <__adddf3+0x10c>
 80003de:	0849      	lsrs	r1, r1, #1
 80003e0:	ea5f 0030 	movs.w	r0, r0, rrx
 80003e4:	ea4f 0c3c 	mov.w	ip, ip, rrx
 80003e8:	f104 0401 	add.w	r4, r4, #1
 80003ec:	ea4f 5244 	mov.w	r2, r4, lsl #21
 80003f0:	f512 0f80 	cmn.w	r2, #4194304	@ 0x400000
 80003f4:	f080 809a 	bcs.w	800052c <__adddf3+0x240>
 80003f8:	f1bc 4f00 	cmp.w	ip, #2147483648	@ 0x80000000
 80003fc:	bf08      	it	eq
 80003fe:	ea5f 0c50 	movseq.w	ip, r0, lsr #1
 8000402:	f150 0000 	adcs.w	r0, r0, #0
 8000406:	eb41 5104 	adc.w	r1, r1, r4, lsl #20
 800040a:	ea41 0105 	orr.w	r1, r1, r5
 800040e:	bd30      	pop	{r4, r5, pc}
 8000410:	ea5f 0c4c 	movs.w	ip, ip, lsl #1
 8000414:	4140      	adcs	r0, r0
 8000416:	eb41 0101 	adc.w	r1, r1, r1
 800041a:	3c01      	subs	r4, #1
 800041c:	bf28      	it	cs
 800041e:	f5b1 1f80 	cmpcs.w	r1, #1048576	@ 0x100000
 8000422:	d2e9      	bcs.n	80003f8 <__adddf3+0x10c>
 8000424:	f091 0f00 	teq	r1, #0
 8000428:	bf04      	itt	eq
 800042a:	4601      	moveq	r1, r0
 800042c:	2000      	moveq	r0, #0
 800042e:	fab1 f381 	clz	r3, r1
 8000432:	bf08      	it	eq
 8000434:	3320      	addeq	r3, #32
 8000436:	f1a3 030b 	sub.w	r3, r3, #11
 800043a:	f1b3 0220 	subs.w	r2, r3, #32
 800043e:	da0c      	bge.n	800045a <__adddf3+0x16e>
 8000440:	320c      	adds	r2, #12
 8000442:	dd08      	ble.n	8000456 <__adddf3+0x16a>
 8000444:	f102 0c14 	add.w	ip, r2, #20
 8000448:	f1c2 020c 	rsb	r2, r2, #12
 800044c:	fa01 f00c 	lsl.w	r0, r1, ip
 8000450:	fa21 f102 	lsr.w	r1, r1, r2
 8000454:	e00c      	b.n	8000470 <__adddf3+0x184>
 8000456:	f102 0214 	add.w	r2, r2, #20
 800045a:	bfd8      	it	le
 800045c:	f1c2 0c20 	rsble	ip, r2, #32
 8000460:	fa01 f102 	lsl.w	r1, r1, r2
 8000464:	fa20 fc0c 	lsr.w	ip, r0, ip
 8000468:	bfdc      	itt	le
 800046a:	ea41 010c 	orrle.w	r1, r1, ip
 800046e:	4090      	lslle	r0, r2
 8000470:	1ae4      	subs	r4, r4, r3
 8000472:	bfa2      	ittt	ge
 8000474:	eb01 5104 	addge.w	r1, r1, r4, lsl #20
 8000478:	4329      	orrge	r1, r5
 800047a:	bd30      	popge	{r4, r5, pc}
 800047c:	ea6f 0404 	mvn.w	r4, r4
 8000480:	3c1f      	subs	r4, #31
 8000482:	da1c      	bge.n	80004be <__adddf3+0x1d2>
 8000484:	340c      	adds	r4, #12
 8000486:	dc0e      	bgt.n	80004a6 <__adddf3+0x1ba>
 8000488:	f104 0414 	add.w	r4, r4, #20
 800048c:	f1c4 0220 	rsb	r2, r4, #32
 8000490:	fa20 f004 	lsr.w	r0, r0, r4
 8000494:	fa01 f302 	lsl.w	r3, r1, r2
 8000498:	ea40 0003 	orr.w	r0, r0, r3
 800049c:	fa21 f304 	lsr.w	r3, r1, r4
 80004a0:	ea45 0103 	orr.w	r1, r5, r3
 80004a4:	bd30      	pop	{r4, r5, pc}
 80004a6:	f1c4 040c 	rsb	r4, r4, #12
 80004aa:	f1c4 0220 	rsb	r2, r4, #32
 80004ae:	fa20 f002 	lsr.w	r0, r0, r2
 80004b2:	fa01 f304 	lsl.w	r3, r1, r4
 80004b6:	ea40 0003 	orr.w	r0, r0, r3
 80004ba:	4629      	mov	r1, r5
 80004bc:	bd30      	pop	{r4, r5, pc}
 80004be:	fa21 f004 	lsr.w	r0, r1, r4
 80004c2:	4629      	mov	r1, r5
 80004c4:	bd30      	pop	{r4, r5, pc}
 80004c6:	f094 0f00 	teq	r4, #0
 80004ca:	f483 1380 	eor.w	r3, r3, #1048576	@ 0x100000
 80004ce:	bf06      	itte	eq
 80004d0:	f481 1180 	eoreq.w	r1, r1, #1048576	@ 0x100000
 80004d4:	3401      	addeq	r4, #1
 80004d6:	3d01      	subne	r5, #1
 80004d8:	e74e      	b.n	8000378 <__adddf3+0x8c>
 80004da:	ea7f 5c64 	mvns.w	ip, r4, asr #21
 80004de:	bf18      	it	ne
 80004e0:	ea7f 5c65 	mvnsne.w	ip, r5, asr #21
 80004e4:	d029      	beq.n	800053a <__adddf3+0x24e>
 80004e6:	ea94 0f05 	teq	r4, r5
 80004ea:	bf08      	it	eq
 80004ec:	ea90 0f02 	teqeq	r0, r2
 80004f0:	d005      	beq.n	80004fe <__adddf3+0x212>
 80004f2:	ea54 0c00 	orrs.w	ip, r4, r0
 80004f6:	bf04      	itt	eq
 80004f8:	4619      	moveq	r1, r3
 80004fa:	4610      	moveq	r0, r2
 80004fc:	bd30      	pop	{r4, r5, pc}
 80004fe:	ea91 0f03 	teq	r1, r3
 8000502:	bf1e      	ittt	ne
 8000504:	2100      	movne	r1, #0
 8000506:	2000      	movne	r0, #0
 8000508:	bd30      	popne	{r4, r5, pc}
 800050a:	ea5f 5c54 	movs.w	ip, r4, lsr #21
 800050e:	d105      	bne.n	800051c <__adddf3+0x230>
 8000510:	0040      	lsls	r0, r0, #1
 8000512:	4149      	adcs	r1, r1
 8000514:	bf28      	it	cs
 8000516:	f041 4100 	orrcs.w	r1, r1, #2147483648	@ 0x80000000
 800051a:	bd30      	pop	{r4, r5, pc}
 800051c:	f514 0480 	adds.w	r4, r4, #4194304	@ 0x400000
 8000520:	bf3c      	itt	cc
 8000522:	f501 1180 	addcc.w	r1, r1, #1048576	@ 0x100000
 8000526:	bd30      	popcc	{r4, r5, pc}
 8000528:	f001 4500 	and.w	r5, r1, #2147483648	@ 0x80000000
 800052c:	f045 41fe 	orr.w	r1, r5, #2130706432	@ 0x7f000000
 8000530:	f441 0170 	orr.w	r1, r1, #15728640	@ 0xf00000
 8000534:	f04f 0000 	mov.w	r0, #0
 8000538:	bd30      	pop	{r4, r5, pc}
 800053a:	ea7f 5c64 	mvns.w	ip, r4, asr #21
 800053e:	bf1a      	itte	ne
 8000540:	4619      	movne	r1, r3
 8000542:	4610      	movne	r0, r2
 8000544:	ea7f 5c65 	mvnseq.w	ip, r5, asr #21
 8000548:	bf1c      	itt	ne
 800054a:	460b      	movne	r3, r1
 800054c:	4602      	movne	r2, r0
 800054e:	ea50 3401 	orrs.w	r4, r0, r1, lsl #12
 8000552:	bf06      	itte	eq
 8000554:	ea52 3503 	orrseq.w	r5, r2, r3, lsl #12
 8000558:	ea91 0f03 	teqeq	r1, r3
 800055c:	f441 2100 	orrne.w	r1, r1, #524288	@ 0x80000
 8000560:	bd30      	pop	{r4, r5, pc}
 8000562:	bf00      	nop

08000564 <__aeabi_ui2d>:
 8000564:	f090 0f00 	teq	r0, #0
 8000568:	bf04      	itt	eq
 800056a:	2100      	moveq	r1, #0
 800056c:	4770      	bxeq	lr
 800056e:	b530      	push	{r4, r5, lr}
 8000570:	f44f 6480 	mov.w	r4, #1024	@ 0x400
 8000574:	f104 0432 	add.w	r4, r4, #50	@ 0x32
 8000578:	f04f 0500 	mov.w	r5, #0
 800057c:	f04f 0100 	mov.w	r1, #0
 8000580:	e750      	b.n	8000424 <__adddf3+0x138>
 8000582:	bf00      	nop

08000584 <__aeabi_i2d>:
 8000584:	f090 0f00 	teq	r0, #0
 8000588:	bf04      	itt	eq
 800058a:	2100      	moveq	r1, #0
 800058c:	4770      	bxeq	lr
 800058e:	b530      	push	{r4, r5, lr}
 8000590:	f44f 6480 	mov.w	r4, #1024	@ 0x400
 8000594:	f104 0432 	add.w	r4, r4, #50	@ 0x32
 8000598:	f010 4500 	ands.w	r5, r0, #2147483648	@ 0x80000000
 800059c:	bf48      	it	mi
 800059e:	4240      	negmi	r0, r0
 80005a0:	f04f 0100 	mov.w	r1, #0
 80005a4:	e73e      	b.n	8000424 <__adddf3+0x138>
 80005a6:	bf00      	nop

080005a8 <__aeabi_f2d>:
 80005a8:	0042      	lsls	r2, r0, #1
 80005aa:	ea4f 01e2 	mov.w	r1, r2, asr #3
 80005ae:	ea4f 0131 	mov.w	r1, r1, rrx
 80005b2:	ea4f 7002 	mov.w	r0, r2, lsl #28
 80005b6:	bf1f      	itttt	ne
 80005b8:	f012 437f 	andsne.w	r3, r2, #4278190080	@ 0xff000000
 80005bc:	f093 4f7f 	teqne	r3, #4278190080	@ 0xff000000
 80005c0:	f081 5160 	eorne.w	r1, r1, #939524096	@ 0x38000000
 80005c4:	4770      	bxne	lr
 80005c6:	f032 427f 	bics.w	r2, r2, #4278190080	@ 0xff000000
 80005ca:	bf08      	it	eq
 80005cc:	4770      	bxeq	lr
 80005ce:	f093 4f7f 	teq	r3, #4278190080	@ 0xff000000
 80005d2:	bf04      	itt	eq
 80005d4:	f441 2100 	orreq.w	r1, r1, #524288	@ 0x80000
 80005d8:	4770      	bxeq	lr
 80005da:	b530      	push	{r4, r5, lr}
 80005dc:	f44f 7460 	mov.w	r4, #896	@ 0x380
 80005e0:	f001 4500 	and.w	r5, r1, #2147483648	@ 0x80000000
 80005e4:	f021 4100 	bic.w	r1, r1, #2147483648	@ 0x80000000
 80005e8:	e71c      	b.n	8000424 <__adddf3+0x138>
 80005ea:	bf00      	nop

080005ec <__aeabi_ul2d>:
 80005ec:	ea50 0201 	orrs.w	r2, r0, r1
 80005f0:	bf08      	it	eq
 80005f2:	4770      	bxeq	lr
 80005f4:	b530      	push	{r4, r5, lr}
 80005f6:	f04f 0500 	mov.w	r5, #0
 80005fa:	e00a      	b.n	8000612 <__aeabi_l2d+0x16>

080005fc <__aeabi_l2d>:
 80005fc:	ea50 0201 	orrs.w	r2, r0, r1
 8000600:	bf08      	it	eq
 8000602:	4770      	bxeq	lr
 8000604:	b530      	push	{r4, r5, lr}
 8000606:	f011 4500 	ands.w	r5, r1, #2147483648	@ 0x80000000
 800060a:	d502      	bpl.n	8000612 <__aeabi_l2d+0x16>
 800060c:	4240      	negs	r0, r0
 800060e:	eb61 0141 	sbc.w	r1, r1, r1, lsl #1
 8000612:	f44f 6480 	mov.w	r4, #1024	@ 0x400
 8000616:	f104 0432 	add.w	r4, r4, #50	@ 0x32
 800061a:	ea5f 5c91 	movs.w	ip, r1, lsr #22
 800061e:	f43f aed8 	beq.w	80003d2 <__adddf3+0xe6>
 8000622:	f04f 0203 	mov.w	r2, #3
 8000626:	ea5f 0cdc 	movs.w	ip, ip, lsr #3
 800062a:	bf18      	it	ne
 800062c:	3203      	addne	r2, #3
 800062e:	ea5f 0cdc 	movs.w	ip, ip, lsr #3
 8000632:	bf18      	it	ne
 8000634:	3203      	addne	r2, #3
 8000636:	eb02 02dc 	add.w	r2, r2, ip, lsr #3
 800063a:	f1c2 0320 	rsb	r3, r2, #32
 800063e:	fa00 fc03 	lsl.w	ip, r0, r3
 8000642:	fa20 f002 	lsr.w	r0, r0, r2
 8000646:	fa01 fe03 	lsl.w	lr, r1, r3
 800064a:	ea40 000e 	orr.w	r0, r0, lr
 800064e:	fa21 f102 	lsr.w	r1, r1, r2
 8000652:	4414      	add	r4, r2
 8000654:	e6bd      	b.n	80003d2 <__adddf3+0xe6>
 8000656:	bf00      	nop

08000658 <__aeabi_dmul>:
 8000658:	b570      	push	{r4, r5, r6, lr}
 800065a:	f04f 0cff 	mov.w	ip, #255	@ 0xff
 800065e:	f44c 6ce0 	orr.w	ip, ip, #1792	@ 0x700
 8000662:	ea1c 5411 	ands.w	r4, ip, r1, lsr #20
 8000666:	bf1d      	ittte	ne
 8000668:	ea1c 5513 	andsne.w	r5, ip, r3, lsr #20
 800066c:	ea94 0f0c 	teqne	r4, ip
 8000670:	ea95 0f0c 	teqne	r5, ip
 8000674:	f000 f8de 	bleq	8000834 <__aeabi_dmul+0x1dc>
 8000678:	442c      	add	r4, r5
 800067a:	ea81 0603 	eor.w	r6, r1, r3
 800067e:	ea21 514c 	bic.w	r1, r1, ip, lsl #21
 8000682:	ea23 534c 	bic.w	r3, r3, ip, lsl #21
 8000686:	ea50 3501 	orrs.w	r5, r0, r1, lsl #12
 800068a:	bf18      	it	ne
 800068c:	ea52 3503 	orrsne.w	r5, r2, r3, lsl #12
 8000690:	f441 1180 	orr.w	r1, r1, #1048576	@ 0x100000
 8000694:	f443 1380 	orr.w	r3, r3, #1048576	@ 0x100000
 8000698:	d038      	beq.n	800070c <__aeabi_dmul+0xb4>
 800069a:	fba0 ce02 	umull	ip, lr, r0, r2
 800069e:	f04f 0500 	mov.w	r5, #0
 80006a2:	fbe1 e502 	umlal	lr, r5, r1, r2
 80006a6:	f006 4200 	and.w	r2, r6, #2147483648	@ 0x80000000
 80006aa:	fbe0 e503 	umlal	lr, r5, r0, r3
 80006ae:	f04f 0600 	mov.w	r6, #0
 80006b2:	fbe1 5603 	umlal	r5, r6, r1, r3
 80006b6:	f09c 0f00 	teq	ip, #0
 80006ba:	bf18      	it	ne
 80006bc:	f04e 0e01 	orrne.w	lr, lr, #1
 80006c0:	f1a4 04ff 	sub.w	r4, r4, #255	@ 0xff
 80006c4:	f5b6 7f00 	cmp.w	r6, #512	@ 0x200
 80006c8:	f564 7440 	sbc.w	r4, r4, #768	@ 0x300
 80006cc:	d204      	bcs.n	80006d8 <__aeabi_dmul+0x80>
 80006ce:	ea5f 0e4e 	movs.w	lr, lr, lsl #1
 80006d2:	416d      	adcs	r5, r5
 80006d4:	eb46 0606 	adc.w	r6, r6, r6
 80006d8:	ea42 21c6 	orr.w	r1, r2, r6, lsl #11
 80006dc:	ea41 5155 	orr.w	r1, r1, r5, lsr #21
 80006e0:	ea4f 20c5 	mov.w	r0, r5, lsl #11
 80006e4:	ea40 505e 	orr.w	r0, r0, lr, lsr #21
 80006e8:	ea4f 2ece 	mov.w	lr, lr, lsl #11
 80006ec:	f1b4 0cfd 	subs.w	ip, r4, #253	@ 0xfd
 80006f0:	bf88      	it	hi
 80006f2:	f5bc 6fe0 	cmphi.w	ip, #1792	@ 0x700
 80006f6:	d81e      	bhi.n	8000736 <__aeabi_dmul+0xde>
 80006f8:	f1be 4f00 	cmp.w	lr, #2147483648	@ 0x80000000
 80006fc:	bf08      	it	eq
 80006fe:	ea5f 0e50 	movseq.w	lr, r0, lsr #1
 8000702:	f150 0000 	adcs.w	r0, r0, #0
 8000706:	eb41 5104 	adc.w	r1, r1, r4, lsl #20
 800070a:	bd70      	pop	{r4, r5, r6, pc}
 800070c:	f006 4600 	and.w	r6, r6, #2147483648	@ 0x80000000
 8000710:	ea46 0101 	orr.w	r1, r6, r1
 8000714:	ea40 0002 	orr.w	r0, r0, r2
 8000718:	ea81 0103 	eor.w	r1, r1, r3
 800071c:	ebb4 045c 	subs.w	r4, r4, ip, lsr #1
 8000720:	bfc2      	ittt	gt
 8000722:	ebd4 050c 	rsbsgt	r5, r4, ip
 8000726:	ea41 5104 	orrgt.w	r1, r1, r4, lsl #20
 800072a:	bd70      	popgt	{r4, r5, r6, pc}
 800072c:	f441 1180 	orr.w	r1, r1, #1048576	@ 0x100000
 8000730:	f04f 0e00 	mov.w	lr, #0
 8000734:	3c01      	subs	r4, #1
 8000736:	f300 80ab 	bgt.w	8000890 <__aeabi_dmul+0x238>
 800073a:	f114 0f36 	cmn.w	r4, #54	@ 0x36
 800073e:	bfde      	ittt	le
 8000740:	2000      	movle	r0, #0
 8000742:	f001 4100 	andle.w	r1, r1, #2147483648	@ 0x80000000
 8000746:	bd70      	pople	{r4, r5, r6, pc}
 8000748:	f1c4 0400 	rsb	r4, r4, #0
 800074c:	3c20      	subs	r4, #32
 800074e:	da35      	bge.n	80007bc <__aeabi_dmul+0x164>
 8000750:	340c      	adds	r4, #12
 8000752:	dc1b      	bgt.n	800078c <__aeabi_dmul+0x134>
 8000754:	f104 0414 	add.w	r4, r4, #20
 8000758:	f1c4 0520 	rsb	r5, r4, #32
 800075c:	fa00 f305 	lsl.w	r3, r0, r5
 8000760:	fa20 f004 	lsr.w	r0, r0, r4
 8000764:	fa01 f205 	lsl.w	r2, r1, r5
 8000768:	ea40 0002 	orr.w	r0, r0, r2
 800076c:	f001 4200 	and.w	r2, r1, #2147483648	@ 0x80000000
 8000770:	f021 4100 	bic.w	r1, r1, #2147483648	@ 0x80000000
 8000774:	eb10 70d3 	adds.w	r0, r0, r3, lsr #31
 8000778:	fa21 f604 	lsr.w	r6, r1, r4
 800077c:	eb42 0106 	adc.w	r1, r2, r6
 8000780:	ea5e 0e43 	orrs.w	lr, lr, r3, lsl #1
 8000784:	bf08      	it	eq
 8000786:	ea20 70d3 	biceq.w	r0, r0, r3, lsr #31
 800078a:	bd70      	pop	{r4, r5, r6, pc}
 800078c:	f1c4 040c 	rsb	r4, r4, #12
 8000790:	f1c4 0520 	rsb	r5, r4, #32
 8000794:	fa00 f304 	lsl.w	r3, r0, r4
 8000798:	fa20 f005 	lsr.w	r0, r0, r5
 800079c:	fa01 f204 	lsl.w	r2, r1, r4
 80007a0:	ea40 0002 	orr.w	r0, r0, r2
 80007a4:	f001 4100 	and.w	r1, r1, #2147483648	@ 0x80000000
 80007a8:	eb10 70d3 	adds.w	r0, r0, r3, lsr #31
 80007ac:	f141 0100 	adc.w	r1, r1, #0
 80007b0:	ea5e 0e43 	orrs.w	lr, lr, r3, lsl #1
 80007b4:	bf08      	it	eq
 80007b6:	ea20 70d3 	biceq.w	r0, r0, r3, lsr #31
 80007ba:	bd70      	pop	{r4, r5, r6, pc}
 80007bc:	f1c4 0520 	rsb	r5, r4, #32
 80007c0:	fa00 f205 	lsl.w	r2, r0, r5
 80007c4:	ea4e 0e02 	orr.w	lr, lr, r2
 80007c8:	fa20 f304 	lsr.w	r3, r0, r4
 80007cc:	fa01 f205 	lsl.w	r2, r1, r5
 80007d0:	ea43 0302 	orr.w	r3, r3, r2
 80007d4:	fa21 f004 	lsr.w	r0, r1, r4
 80007d8:	f001 4100 	and.w	r1, r1, #2147483648	@ 0x80000000
 80007dc:	fa21 f204 	lsr.w	r2, r1, r4
 80007e0:	ea20 0002 	bic.w	r0, r0, r2
 80007e4:	eb00 70d3 	add.w	r0, r0, r3, lsr #31
 80007e8:	ea5e 0e43 	orrs.w	lr, lr, r3, lsl #1
 80007ec:	bf08      	it	eq
 80007ee:	ea20 70d3 	biceq.w	r0, r0, r3, lsr #31
 80007f2:	bd70      	pop	{r4, r5, r6, pc}
 80007f4:	f094 0f00 	teq	r4, #0
 80007f8:	d10f      	bne.n	800081a <__aeabi_dmul+0x1c2>
 80007fa:	f001 4600 	and.w	r6, r1, #2147483648	@ 0x80000000
 80007fe:	0040      	lsls	r0, r0, #1
 8000800:	eb41 0101 	adc.w	r1, r1, r1
 8000804:	f411 1f80 	tst.w	r1, #1048576	@ 0x100000
 8000808:	bf08      	it	eq
 800080a:	3c01      	subeq	r4, #1
 800080c:	d0f7      	beq.n	80007fe <__aeabi_dmul+0x1a6>
 800080e:	ea41 0106 	orr.w	r1, r1, r6
 8000812:	f095 0f00 	teq	r5, #0
 8000816:	bf18      	it	ne
 8000818:	4770      	bxne	lr
 800081a:	f003 4600 	and.w	r6, r3, #2147483648	@ 0x80000000
 800081e:	0052      	lsls	r2, r2, #1
 8000820:	eb43 0303 	adc.w	r3, r3, r3
 8000824:	f413 1f80 	tst.w	r3, #1048576	@ 0x100000
 8000828:	bf08      	it	eq
 800082a:	3d01      	subeq	r5, #1
 800082c:	d0f7      	beq.n	800081e <__aeabi_dmul+0x1c6>
 800082e:	ea43 0306 	orr.w	r3, r3, r6
 8000832:	4770      	bx	lr
 8000834:	ea94 0f0c 	teq	r4, ip
 8000838:	ea0c 5513 	and.w	r5, ip, r3, lsr #20
 800083c:	bf18      	it	ne
 800083e:	ea95 0f0c 	teqne	r5, ip
 8000842:	d00c      	beq.n	800085e <__aeabi_dmul+0x206>
 8000844:	ea50 0641 	orrs.w	r6, r0, r1, lsl #1
 8000848:	bf18      	it	ne
 800084a:	ea52 0643 	orrsne.w	r6, r2, r3, lsl #1
 800084e:	d1d1      	bne.n	80007f4 <__aeabi_dmul+0x19c>
 8000850:	ea81 0103 	eor.w	r1, r1, r3
 8000854:	f001 4100 	and.w	r1, r1, #2147483648	@ 0x80000000
 8000858:	f04f 0000 	mov.w	r0, #0
 800085c:	bd70      	pop	{r4, r5, r6, pc}
 800085e:	ea50 0641 	orrs.w	r6, r0, r1, lsl #1
 8000862:	bf06      	itte	eq
 8000864:	4610      	moveq	r0, r2
 8000866:	4619      	moveq	r1, r3
 8000868:	ea52 0643 	orrsne.w	r6, r2, r3, lsl #1
 800086c:	d019      	beq.n	80008a2 <__aeabi_dmul+0x24a>
 800086e:	ea94 0f0c 	teq	r4, ip
 8000872:	d102      	bne.n	800087a <__aeabi_dmul+0x222>
 8000874:	ea50 3601 	orrs.w	r6, r0, r1, lsl #12
 8000878:	d113      	bne.n	80008a2 <__aeabi_dmul+0x24a>
 800087a:	ea95 0f0c 	teq	r5, ip
 800087e:	d105      	bne.n	800088c <__aeabi_dmul+0x234>
 8000880:	ea52 3603 	orrs.w	r6, r2, r3, lsl #12
 8000884:	bf1c      	itt	ne
 8000886:	4610      	movne	r0, r2
 8000888:	4619      	movne	r1, r3
 800088a:	d10a      	bne.n	80008a2 <__aeabi_dmul+0x24a>
 800088c:	ea81 0103 	eor.w	r1, r1, r3
 8000890:	f001 4100 	and.w	r1, r1, #2147483648	@ 0x80000000
 8000894:	f041 41fe 	orr.w	r1, r1, #2130706432	@ 0x7f000000
 8000898:	f441 0170 	orr.w	r1, r1, #15728640	@ 0xf00000
 800089c:	f04f 0000 	mov.w	r0, #0
 80008a0:	bd70      	pop	{r4, r5, r6, pc}
 80008a2:	f041 41fe 	orr.w	r1, r1, #2130706432	@ 0x7f000000
 80008a6:	f441 0178 	orr.w	r1, r1, #16252928	@ 0xf80000
 80008aa:	bd70      	pop	{r4, r5, r6, pc}

080008ac <__aeabi_ddiv>:
 80008ac:	b570      	push	{r4, r5, r6, lr}
 80008ae:	f04f 0cff 	mov.w	ip, #255	@ 0xff
 80008b2:	f44c 6ce0 	orr.w	ip, ip, #1792	@ 0x700
 80008b6:	ea1c 5411 	ands.w	r4, ip, r1, lsr #20
 80008ba:	bf1d      	ittte	ne
 80008bc:	ea1c 5513 	andsne.w	r5, ip, r3, lsr #20
 80008c0:	ea94 0f0c 	teqne	r4, ip
 80008c4:	ea95 0f0c 	teqne	r5, ip
 80008c8:	f000 f8a7 	bleq	8000a1a <__aeabi_ddiv+0x16e>
 80008cc:	eba4 0405 	sub.w	r4, r4, r5
 80008d0:	ea81 0e03 	eor.w	lr, r1, r3
 80008d4:	ea52 3503 	orrs.w	r5, r2, r3, lsl #12
 80008d8:	ea4f 3101 	mov.w	r1, r1, lsl #12
 80008dc:	f000 8088 	beq.w	80009f0 <__aeabi_ddiv+0x144>
 80008e0:	ea4f 3303 	mov.w	r3, r3, lsl #12
 80008e4:	f04f 5580 	mov.w	r5, #268435456	@ 0x10000000
 80008e8:	ea45 1313 	orr.w	r3, r5, r3, lsr #4
 80008ec:	ea43 6312 	orr.w	r3, r3, r2, lsr #24
 80008f0:	ea4f 2202 	mov.w	r2, r2, lsl #8
 80008f4:	ea45 1511 	orr.w	r5, r5, r1, lsr #4
 80008f8:	ea45 6510 	orr.w	r5, r5, r0, lsr #24
 80008fc:	ea4f 2600 	mov.w	r6, r0, lsl #8
 8000900:	f00e 4100 	and.w	r1, lr, #2147483648	@ 0x80000000
 8000904:	429d      	cmp	r5, r3
 8000906:	bf08      	it	eq
 8000908:	4296      	cmpeq	r6, r2
 800090a:	f144 04fd 	adc.w	r4, r4, #253	@ 0xfd
 800090e:	f504 7440 	add.w	r4, r4, #768	@ 0x300
 8000912:	d202      	bcs.n	800091a <__aeabi_ddiv+0x6e>
 8000914:	085b      	lsrs	r3, r3, #1
 8000916:	ea4f 0232 	mov.w	r2, r2, rrx
 800091a:	1ab6      	subs	r6, r6, r2
 800091c:	eb65 0503 	sbc.w	r5, r5, r3
 8000920:	085b      	lsrs	r3, r3, #1
 8000922:	ea4f 0232 	mov.w	r2, r2, rrx
 8000926:	f44f 1080 	mov.w	r0, #1048576	@ 0x100000
 800092a:	f44f 2c00 	mov.w	ip, #524288	@ 0x80000
 800092e:	ebb6 0e02 	subs.w	lr, r6, r2
 8000932:	eb75 0e03 	sbcs.w	lr, r5, r3
 8000936:	bf22      	ittt	cs
 8000938:	1ab6      	subcs	r6, r6, r2
 800093a:	4675      	movcs	r5, lr
 800093c:	ea40 000c 	orrcs.w	r0, r0, ip
 8000940:	085b      	lsrs	r3, r3, #1
 8000942:	ea4f 0232 	mov.w	r2, r2, rrx
 8000946:	ebb6 0e02 	subs.w	lr, r6, r2
 800094a:	eb75 0e03 	sbcs.w	lr, r5, r3
 800094e:	bf22      	ittt	cs
 8000950:	1ab6      	subcs	r6, r6, r2
 8000952:	4675      	movcs	r5, lr
 8000954:	ea40 005c 	orrcs.w	r0, r0, ip, lsr #1
 8000958:	085b      	lsrs	r3, r3, #1
 800095a:	ea4f 0232 	mov.w	r2, r2, rrx
 800095e:	ebb6 0e02 	subs.w	lr, r6, r2
 8000962:	eb75 0e03 	sbcs.w	lr, r5, r3
 8000966:	bf22      	ittt	cs
 8000968:	1ab6      	subcs	r6, r6, r2
 800096a:	4675      	movcs	r5, lr
 800096c:	ea40 009c 	orrcs.w	r0, r0, ip, lsr #2
 8000970:	085b      	lsrs	r3, r3, #1
 8000972:	ea4f 0232 	mov.w	r2, r2, rrx
 8000976:	ebb6 0e02 	subs.w	lr, r6, r2
 800097a:	eb75 0e03 	sbcs.w	lr, r5, r3
 800097e:	bf22      	ittt	cs
 8000980:	1ab6      	subcs	r6, r6, r2
 8000982:	4675      	movcs	r5, lr
 8000984:	ea40 00dc 	orrcs.w	r0, r0, ip, lsr #3
 8000988:	ea55 0e06 	orrs.w	lr, r5, r6
 800098c:	d018      	beq.n	80009c0 <__aeabi_ddiv+0x114>
 800098e:	ea4f 1505 	mov.w	r5, r5, lsl #4
 8000992:	ea45 7516 	orr.w	r5, r5, r6, lsr #28
 8000996:	ea4f 1606 	mov.w	r6, r6, lsl #4
 800099a:	ea4f 03c3 	mov.w	r3, r3, lsl #3
 800099e:	ea43 7352 	orr.w	r3, r3, r2, lsr #29
 80009a2:	ea4f 02c2 	mov.w	r2, r2, lsl #3
 80009a6:	ea5f 1c1c 	movs.w	ip, ip, lsr #4
 80009aa:	d1c0      	bne.n	800092e <__aeabi_ddiv+0x82>
 80009ac:	f411 1f80 	tst.w	r1, #1048576	@ 0x100000
 80009b0:	d10b      	bne.n	80009ca <__aeabi_ddiv+0x11e>
 80009b2:	ea41 0100 	orr.w	r1, r1, r0
 80009b6:	f04f 0000 	mov.w	r0, #0
 80009ba:	f04f 4c00 	mov.w	ip, #2147483648	@ 0x80000000
 80009be:	e7b6      	b.n	800092e <__aeabi_ddiv+0x82>
 80009c0:	f411 1f80 	tst.w	r1, #1048576	@ 0x100000
 80009c4:	bf04      	itt	eq
 80009c6:	4301      	orreq	r1, r0
 80009c8:	2000      	moveq	r0, #0
 80009ca:	f1b4 0cfd 	subs.w	ip, r4, #253	@ 0xfd
 80009ce:	bf88      	it	hi
 80009d0:	f5bc 6fe0 	cmphi.w	ip, #1792	@ 0x700
 80009d4:	f63f aeaf 	bhi.w	8000736 <__aeabi_dmul+0xde>
 80009d8:	ebb5 0c03 	subs.w	ip, r5, r3
 80009dc:	bf04      	itt	eq
 80009de:	ebb6 0c02 	subseq.w	ip, r6, r2
 80009e2:	ea5f 0c50 	movseq.w	ip, r0, lsr #1
 80009e6:	f150 0000 	adcs.w	r0, r0, #0
 80009ea:	eb41 5104 	adc.w	r1, r1, r4, lsl #20
 80009ee:	bd70      	pop	{r4, r5, r6, pc}
 80009f0:	f00e 4e00 	and.w	lr, lr, #2147483648	@ 0x80000000
 80009f4:	ea4e 3111 	orr.w	r1, lr, r1, lsr #12
 80009f8:	eb14 045c 	adds.w	r4, r4, ip, lsr #1
 80009fc:	bfc2      	ittt	gt
 80009fe:	ebd4 050c 	rsbsgt	r5, r4, ip
 8000a02:	ea41 5104 	orrgt.w	r1, r1, r4, lsl #20
 8000a06:	bd70      	popgt	{r4, r5, r6, pc}
 8000a08:	f441 1180 	orr.w	r1, r1, #1048576	@ 0x100000
 8000a0c:	f04f 0e00 	mov.w	lr, #0
 8000a10:	3c01      	subs	r4, #1
 8000a12:	e690      	b.n	8000736 <__aeabi_dmul+0xde>
 8000a14:	ea45 0e06 	orr.w	lr, r5, r6
 8000a18:	e68d      	b.n	8000736 <__aeabi_dmul+0xde>
 8000a1a:	ea0c 5513 	and.w	r5, ip, r3, lsr #20
 8000a1e:	ea94 0f0c 	teq	r4, ip
 8000a22:	bf08      	it	eq
 8000a24:	ea95 0f0c 	teqeq	r5, ip
 8000a28:	f43f af3b 	beq.w	80008a2 <__aeabi_dmul+0x24a>
 8000a2c:	ea94 0f0c 	teq	r4, ip
 8000a30:	d10a      	bne.n	8000a48 <__aeabi_ddiv+0x19c>
 8000a32:	ea50 3401 	orrs.w	r4, r0, r1, lsl #12
 8000a36:	f47f af34 	bne.w	80008a2 <__aeabi_dmul+0x24a>
 8000a3a:	ea95 0f0c 	teq	r5, ip
 8000a3e:	f47f af25 	bne.w	800088c <__aeabi_dmul+0x234>
 8000a42:	4610      	mov	r0, r2
 8000a44:	4619      	mov	r1, r3
 8000a46:	e72c      	b.n	80008a2 <__aeabi_dmul+0x24a>
 8000a48:	ea95 0f0c 	teq	r5, ip
 8000a4c:	d106      	bne.n	8000a5c <__aeabi_ddiv+0x1b0>
 8000a4e:	ea52 3503 	orrs.w	r5, r2, r3, lsl #12
 8000a52:	f43f aefd 	beq.w	8000850 <__aeabi_dmul+0x1f8>
 8000a56:	4610      	mov	r0, r2
 8000a58:	4619      	mov	r1, r3
 8000a5a:	e722      	b.n	80008a2 <__aeabi_dmul+0x24a>
 8000a5c:	ea50 0641 	orrs.w	r6, r0, r1, lsl #1
 8000a60:	bf18      	it	ne
 8000a62:	ea52 0643 	orrsne.w	r6, r2, r3, lsl #1
 8000a66:	f47f aec5 	bne.w	80007f4 <__aeabi_dmul+0x19c>
 8000a6a:	ea50 0441 	orrs.w	r4, r0, r1, lsl #1
 8000a6e:	f47f af0d 	bne.w	800088c <__aeabi_dmul+0x234>
 8000a72:	ea52 0543 	orrs.w	r5, r2, r3, lsl #1
 8000a76:	f47f aeeb 	bne.w	8000850 <__aeabi_dmul+0x1f8>
 8000a7a:	e712      	b.n	80008a2 <__aeabi_dmul+0x24a>

08000a7c <__gedf2>:
 8000a7c:	f04f 3cff 	mov.w	ip, #4294967295	@ 0xffffffff
 8000a80:	e006      	b.n	8000a90 <__cmpdf2+0x4>
 8000a82:	bf00      	nop

08000a84 <__ledf2>:
 8000a84:	f04f 0c01 	mov.w	ip, #1
 8000a88:	e002      	b.n	8000a90 <__cmpdf2+0x4>
 8000a8a:	bf00      	nop

08000a8c <__cmpdf2>:
 8000a8c:	f04f 0c01 	mov.w	ip, #1
 8000a90:	f84d cd04 	str.w	ip, [sp, #-4]!
 8000a94:	ea4f 0c41 	mov.w	ip, r1, lsl #1
 8000a98:	ea7f 5c6c 	mvns.w	ip, ip, asr #21
 8000a9c:	ea4f 0c43 	mov.w	ip, r3, lsl #1
 8000aa0:	bf18      	it	ne
 8000aa2:	ea7f 5c6c 	mvnsne.w	ip, ip, asr #21
 8000aa6:	d01b      	beq.n	8000ae0 <__cmpdf2+0x54>
 8000aa8:	b001      	add	sp, #4
 8000aaa:	ea50 0c41 	orrs.w	ip, r0, r1, lsl #1
 8000aae:	bf0c      	ite	eq
 8000ab0:	ea52 0c43 	orrseq.w	ip, r2, r3, lsl #1
 8000ab4:	ea91 0f03 	teqne	r1, r3
 8000ab8:	bf02      	ittt	eq
 8000aba:	ea90 0f02 	teqeq	r0, r2
 8000abe:	2000      	moveq	r0, #0
 8000ac0:	4770      	bxeq	lr
 8000ac2:	f110 0f00 	cmn.w	r0, #0
 8000ac6:	ea91 0f03 	teq	r1, r3
 8000aca:	bf58      	it	pl
 8000acc:	4299      	cmppl	r1, r3
 8000ace:	bf08      	it	eq
 8000ad0:	4290      	cmpeq	r0, r2
 8000ad2:	bf2c      	ite	cs
 8000ad4:	17d8      	asrcs	r0, r3, #31
 8000ad6:	ea6f 70e3 	mvncc.w	r0, r3, asr #31
 8000ada:	f040 0001 	orr.w	r0, r0, #1
 8000ade:	4770      	bx	lr
 8000ae0:	ea4f 0c41 	mov.w	ip, r1, lsl #1
 8000ae4:	ea7f 5c6c 	mvns.w	ip, ip, asr #21
 8000ae8:	d102      	bne.n	8000af0 <__cmpdf2+0x64>
 8000aea:	ea50 3c01 	orrs.w	ip, r0, r1, lsl #12
 8000aee:	d107      	bne.n	8000b00 <__cmpdf2+0x74>
 8000af0:	ea4f 0c43 	mov.w	ip, r3, lsl #1
 8000af4:	ea7f 5c6c 	mvns.w	ip, ip, asr #21
 8000af8:	d1d6      	bne.n	8000aa8 <__cmpdf2+0x1c>
 8000afa:	ea52 3c03 	orrs.w	ip, r2, r3, lsl #12
 8000afe:	d0d3      	beq.n	8000aa8 <__cmpdf2+0x1c>
 8000b00:	f85d 0b04 	ldr.w	r0, [sp], #4
 8000b04:	4770      	bx	lr
 8000b06:	bf00      	nop

08000b08 <__aeabi_cdrcmple>:
 8000b08:	4684      	mov	ip, r0
 8000b0a:	4610      	mov	r0, r2
 8000b0c:	4662      	mov	r2, ip
 8000b0e:	468c      	mov	ip, r1
 8000b10:	4619      	mov	r1, r3
 8000b12:	4663      	mov	r3, ip
 8000b14:	e000      	b.n	8000b18 <__aeabi_cdcmpeq>
 8000b16:	bf00      	nop

08000b18 <__aeabi_cdcmpeq>:
 8000b18:	b501      	push	{r0, lr}
 8000b1a:	f7ff ffb7 	bl	8000a8c <__cmpdf2>
 8000b1e:	2800      	cmp	r0, #0
 8000b20:	bf48      	it	mi
 8000b22:	f110 0f00 	cmnmi.w	r0, #0
 8000b26:	bd01      	pop	{r0, pc}

08000b28 <__aeabi_dcmpeq>:
 8000b28:	f84d ed08 	str.w	lr, [sp, #-8]!
 8000b2c:	f7ff fff4 	bl	8000b18 <__aeabi_cdcmpeq>
 8000b30:	bf0c      	ite	eq
 8000b32:	2001      	moveq	r0, #1
 8000b34:	2000      	movne	r0, #0
 8000b36:	f85d fb08 	ldr.w	pc, [sp], #8
 8000b3a:	bf00      	nop

08000b3c <__aeabi_dcmplt>:
 8000b3c:	f84d ed08 	str.w	lr, [sp, #-8]!
 8000b40:	f7ff ffea 	bl	8000b18 <__aeabi_cdcmpeq>
 8000b44:	bf34      	ite	cc
 8000b46:	2001      	movcc	r0, #1
 8000b48:	2000      	movcs	r0, #0
 8000b4a:	f85d fb08 	ldr.w	pc, [sp], #8
 8000b4e:	bf00      	nop

08000b50 <__aeabi_dcmple>:
 8000b50:	f84d ed08 	str.w	lr, [sp, #-8]!
 8000b54:	f7ff ffe0 	bl	8000b18 <__aeabi_cdcmpeq>
 8000b58:	bf94      	ite	ls
 8000b5a:	2001      	movls	r0, #1
 8000b5c:	2000      	movhi	r0, #0
 8000b5e:	f85d fb08 	ldr.w	pc, [sp], #8
 8000b62:	bf00      	nop

08000b64 <__aeabi_dcmpge>:
 8000b64:	f84d ed08 	str.w	lr, [sp, #-8]!
 8000b68:	f7ff ffce 	bl	8000b08 <__aeabi_cdrcmple>
 8000b6c:	bf94      	ite	ls
 8000b6e:	2001      	movls	r0, #1
 8000b70:	2000      	movhi	r0, #0
 8000b72:	f85d fb08 	ldr.w	pc, [sp], #8
 8000b76:	bf00      	nop

08000b78 <__aeabi_dcmpgt>:
 8000b78:	f84d ed08 	str.w	lr, [sp, #-8]!
 8000b7c:	f7ff ffc4 	bl	8000b08 <__aeabi_cdrcmple>
 8000b80:	bf34      	ite	cc
 8000b82:	2001      	movcc	r0, #1
 8000b84:	2000      	movcs	r0, #0
 8000b86:	f85d fb08 	ldr.w	pc, [sp], #8
 8000b8a:	bf00      	nop

08000b8c <__aeabi_dcmpun>:
 8000b8c:	ea4f 0c41 	mov.w	ip, r1, lsl #1
 8000b90:	ea7f 5c6c 	mvns.w	ip, ip, asr #21
 8000b94:	d102      	bne.n	8000b9c <__aeabi_dcmpun+0x10>
 8000b96:	ea50 3c01 	orrs.w	ip, r0, r1, lsl #12
 8000b9a:	d10a      	bne.n	8000bb2 <__aeabi_dcmpun+0x26>
 8000b9c:	ea4f 0c43 	mov.w	ip, r3, lsl #1
 8000ba0:	ea7f 5c6c 	mvns.w	ip, ip, asr #21
 8000ba4:	d102      	bne.n	8000bac <__aeabi_dcmpun+0x20>
 8000ba6:	ea52 3c03 	orrs.w	ip, r2, r3, lsl #12
 8000baa:	d102      	bne.n	8000bb2 <__aeabi_dcmpun+0x26>
 8000bac:	f04f 0000 	mov.w	r0, #0
 8000bb0:	4770      	bx	lr
 8000bb2:	f04f 0001 	mov.w	r0, #1
 8000bb6:	4770      	bx	lr

08000bb8 <__aeabi_d2iz>:
 8000bb8:	ea4f 0241 	mov.w	r2, r1, lsl #1
 8000bbc:	f512 1200 	adds.w	r2, r2, #2097152	@ 0x200000
 8000bc0:	d215      	bcs.n	8000bee <__aeabi_d2iz+0x36>
 8000bc2:	d511      	bpl.n	8000be8 <__aeabi_d2iz+0x30>
 8000bc4:	f46f 7378 	mvn.w	r3, #992	@ 0x3e0
 8000bc8:	ebb3 5262 	subs.w	r2, r3, r2, asr #21
 8000bcc:	d912      	bls.n	8000bf4 <__aeabi_d2iz+0x3c>
 8000bce:	ea4f 23c1 	mov.w	r3, r1, lsl #11
 8000bd2:	f043 4300 	orr.w	r3, r3, #2147483648	@ 0x80000000
 8000bd6:	ea43 5350 	orr.w	r3, r3, r0, lsr #21
 8000bda:	f011 4f00 	tst.w	r1, #2147483648	@ 0x80000000
 8000bde:	fa23 f002 	lsr.w	r0, r3, r2
 8000be2:	bf18      	it	ne
 8000be4:	4240      	negne	r0, r0
 8000be6:	4770      	bx	lr
 8000be8:	f04f 0000 	mov.w	r0, #0
 8000bec:	4770      	bx	lr
 8000bee:	ea50 3001 	orrs.w	r0, r0, r1, lsl #12
 8000bf2:	d105      	bne.n	8000c00 <__aeabi_d2iz+0x48>
 8000bf4:	f011 4000 	ands.w	r0, r1, #2147483648	@ 0x80000000
 8000bf8:	bf08      	it	eq
 8000bfa:	f06f 4000 	mvneq.w	r0, #2147483648	@ 0x80000000
 8000bfe:	4770      	bx	lr
 8000c00:	f04f 0000 	mov.w	r0, #0
 8000c04:	4770      	bx	lr
 8000c06:	bf00      	nop

08000c08 <__aeabi_d2uiz>:
 8000c08:	004a      	lsls	r2, r1, #1
 8000c0a:	d211      	bcs.n	8000c30 <__aeabi_d2uiz+0x28>
 8000c0c:	f512 1200 	adds.w	r2, r2, #2097152	@ 0x200000
 8000c10:	d211      	bcs.n	8000c36 <__aeabi_d2uiz+0x2e>
 8000c12:	d50d      	bpl.n	8000c30 <__aeabi_d2uiz+0x28>
 8000c14:	f46f 7378 	mvn.w	r3, #992	@ 0x3e0
 8000c18:	ebb3 5262 	subs.w	r2, r3, r2, asr #21
 8000c1c:	d40e      	bmi.n	8000c3c <__aeabi_d2uiz+0x34>
 8000c1e:	ea4f 23c1 	mov.w	r3, r1, lsl #11
 8000c22:	f043 4300 	orr.w	r3, r3, #2147483648	@ 0x80000000
 8000c26:	ea43 5350 	orr.w	r3, r3, r0, lsr #21
 8000c2a:	fa23 f002 	lsr.w	r0, r3, r2
 8000c2e:	4770      	bx	lr
 8000c30:	f04f 0000 	mov.w	r0, #0
 8000c34:	4770      	bx	lr
 8000c36:	ea50 3001 	orrs.w	r0, r0, r1, lsl #12
 8000c3a:	d102      	bne.n	8000c42 <__aeabi_d2uiz+0x3a>
 8000c3c:	f04f 30ff 	mov.w	r0, #4294967295	@ 0xffffffff
 8000c40:	4770      	bx	lr
 8000c42:	f04f 0000 	mov.w	r0, #0
 8000c46:	4770      	bx	lr

08000c48 <__aeabi_d2f>:
 8000c48:	ea4f 0241 	mov.w	r2, r1, lsl #1
 8000c4c:	f1b2 43e0 	subs.w	r3, r2, #1879048192	@ 0x70000000
 8000c50:	bf24      	itt	cs
 8000c52:	f5b3 1c00 	subscs.w	ip, r3, #2097152	@ 0x200000
 8000c56:	f1dc 5cfe 	rsbscs	ip, ip, #532676608	@ 0x1fc00000
 8000c5a:	d90d      	bls.n	8000c78 <__aeabi_d2f+0x30>
 8000c5c:	f001 4c00 	and.w	ip, r1, #2147483648	@ 0x80000000
 8000c60:	ea4f 02c0 	mov.w	r2, r0, lsl #3
 8000c64:	ea4c 7050 	orr.w	r0, ip, r0, lsr #29
 8000c68:	f1b2 4f00 	cmp.w	r2, #2147483648	@ 0x80000000
 8000c6c:	eb40 0083 	adc.w	r0, r0, r3, lsl #2
 8000c70:	bf08      	it	eq
 8000c72:	f020 0001 	biceq.w	r0, r0, #1
 8000c76:	4770      	bx	lr
 8000c78:	f011 4f80 	tst.w	r1, #1073741824	@ 0x40000000
 8000c7c:	d121      	bne.n	8000cc2 <__aeabi_d2f+0x7a>
 8000c7e:	f113 7238 	adds.w	r2, r3, #48234496	@ 0x2e00000
 8000c82:	bfbc      	itt	lt
 8000c84:	f001 4000 	andlt.w	r0, r1, #2147483648	@ 0x80000000
 8000c88:	4770      	bxlt	lr
 8000c8a:	f441 1180 	orr.w	r1, r1, #1048576	@ 0x100000
 8000c8e:	ea4f 5252 	mov.w	r2, r2, lsr #21
 8000c92:	f1c2 0218 	rsb	r2, r2, #24
 8000c96:	f1c2 0c20 	rsb	ip, r2, #32
 8000c9a:	fa10 f30c 	lsls.w	r3, r0, ip
 8000c9e:	fa20 f002 	lsr.w	r0, r0, r2
 8000ca2:	bf18      	it	ne
 8000ca4:	f040 0001 	orrne.w	r0, r0, #1
 8000ca8:	ea4f 23c1 	mov.w	r3, r1, lsl #11
 8000cac:	ea4f 23d3 	mov.w	r3, r3, lsr #11
 8000cb0:	fa03 fc0c 	lsl.w	ip, r3, ip
 8000cb4:	ea40 000c 	orr.w	r0, r0, ip
 8000cb8:	fa23 f302 	lsr.w	r3, r3, r2
 8000cbc:	ea4f 0343 	mov.w	r3, r3, lsl #1
 8000cc0:	e7cc      	b.n	8000c5c <__aeabi_d2f+0x14>
 8000cc2:	ea7f 5362 	mvns.w	r3, r2, asr #21
 8000cc6:	d107      	bne.n	8000cd8 <__aeabi_d2f+0x90>
 8000cc8:	ea50 3301 	orrs.w	r3, r0, r1, lsl #12
 8000ccc:	bf1e      	ittt	ne
 8000cce:	f04f 40fe 	movne.w	r0, #2130706432	@ 0x7f000000
 8000cd2:	f440 0040 	orrne.w	r0, r0, #12582912	@ 0xc00000
 8000cd6:	4770      	bxne	lr
 8000cd8:	f001 4000 	and.w	r0, r1, #2147483648	@ 0x80000000
 8000cdc:	f040 40fe 	orr.w	r0, r0, #2130706432	@ 0x7f000000
 8000ce0:	f440 0000 	orr.w	r0, r0, #8388608	@ 0x800000
 8000ce4:	4770      	bx	lr
 8000ce6:	bf00      	nop

08000ce8 <__aeabi_d2lz>:
 8000ce8:	b538      	push	{r3, r4, r5, lr}
 8000cea:	2200      	movs	r2, #0
 8000cec:	2300      	movs	r3, #0
 8000cee:	4604      	mov	r4, r0
 8000cf0:	460d      	mov	r5, r1
 8000cf2:	f7ff ff23 	bl	8000b3c <__aeabi_dcmplt>
 8000cf6:	b928      	cbnz	r0, 8000d04 <__aeabi_d2lz+0x1c>
 8000cf8:	4620      	mov	r0, r4
 8000cfa:	4629      	mov	r1, r5
 8000cfc:	e8bd 4038 	ldmia.w	sp!, {r3, r4, r5, lr}
 8000d00:	f000 b80a 	b.w	8000d18 <__aeabi_d2ulz>
 8000d04:	4620      	mov	r0, r4
 8000d06:	f105 4100 	add.w	r1, r5, #2147483648	@ 0x80000000
 8000d0a:	f000 f805 	bl	8000d18 <__aeabi_d2ulz>
 8000d0e:	4240      	negs	r0, r0
 8000d10:	eb61 0141 	sbc.w	r1, r1, r1, lsl #1
 8000d14:	bd38      	pop	{r3, r4, r5, pc}
 8000d16:	bf00      	nop

08000d18 <__aeabi_d2ulz>:
 8000d18:	b5d0      	push	{r4, r6, r7, lr}
 8000d1a:	4b0c      	ldr	r3, [pc, #48]	@ (8000d4c <__aeabi_d2ulz+0x34>)
 8000d1c:	2200      	movs	r2, #0
 8000d1e:	4606      	mov	r6, r0
 8000d20:	460f      	mov	r7, r1
 8000d22:	f7ff fc99 	bl	8000658 <__aeabi_dmul>
 8000d26:	f7ff ff6f 	bl	8000c08 <__aeabi_d2uiz>
 8000d2a:	4604      	mov	r4, r0
 8000d2c:	f7ff fc1a 	bl	8000564 <__aeabi_ui2d>
 8000d30:	4b07      	ldr	r3, [pc, #28]	@ (8000d50 <__aeabi_d2ulz+0x38>)
 8000d32:	2200      	movs	r2, #0
 8000d34:	f7ff fc90 	bl	8000658 <__aeabi_dmul>
 8000d38:	4602      	mov	r2, r0
 8000d3a:	460b      	mov	r3, r1
 8000d3c:	4630      	mov	r0, r6
 8000d3e:	4639      	mov	r1, r7
 8000d40:	f7ff fad2 	bl	80002e8 <__aeabi_dsub>
 8000d44:	f7ff ff60 	bl	8000c08 <__aeabi_d2uiz>
 8000d48:	4621      	mov	r1, r4
 8000d4a:	bdd0      	pop	{r4, r6, r7, pc}
 8000d4c:	3df00000 	.word	0x3df00000
 8000d50:	41f00000 	.word	0x41f00000

08000d54 <gpio_analog_init>:

  5,   // I1:        PA5  ADC12_IN5
  7    // CHG_DET:   PA7  ADC12_IN7
};

static void gpio_analog_init(void) {
 8000d54:	b480      	push	{r7}
 8000d56:	b083      	sub	sp, #12
 8000d58:	af00      	add	r7, sp, #0
  RCC->AHB1ENR |= GPIOAEN | GPIOBEN | GPIOCEN;
 8000d5a:	4b23      	ldr	r3, [pc, #140]	@ (8000de8 <gpio_analog_init+0x94>)
 8000d5c:	6b1b      	ldr	r3, [r3, #48]	@ 0x30
 8000d5e:	4a22      	ldr	r2, [pc, #136]	@ (8000de8 <gpio_analog_init+0x94>)
 8000d60:	f043 0307 	orr.w	r3, r3, #7
 8000d64:	6313      	str	r3, [r2, #48]	@ 0x30

  // PA0, PA1, PA4, PA5, PA6, PA7 analog
  GPIOA->MODER |=  (3U<<(0*2)) | (3U<<(1*2)) | (3U<<(4*2)) |
 8000d66:	4b21      	ldr	r3, [pc, #132]	@ (8000dec <gpio_analog_init+0x98>)
 8000d68:	681b      	ldr	r3, [r3, #0]
 8000d6a:	4a20      	ldr	r2, [pc, #128]	@ (8000dec <gpio_analog_init+0x98>)
 8000d6c:	f443 437f 	orr.w	r3, r3, #65280	@ 0xff00
 8000d70:	f043 030f 	orr.w	r3, r3, #15
 8000d74:	6013      	str	r3, [r2, #0]
                   (3U<<(5*2)) | (3U<<(6*2)) | (3U<<(7*2));
  GPIOA->PUPDR &= ~((3U<<(0*2)) | (3U<<(1*2)) | (3U<<(4*2)) |
 8000d76:	4b1d      	ldr	r3, [pc, #116]	@ (8000dec <gpio_analog_init+0x98>)
 8000d78:	68db      	ldr	r3, [r3, #12]
 8000d7a:	4a1c      	ldr	r2, [pc, #112]	@ (8000dec <gpio_analog_init+0x98>)
 8000d7c:	f423 437f 	bic.w	r3, r3, #65280	@ 0xff00
 8000d80:	f023 030f 	bic.w	r3, r3, #15
 8000d84:	60d3      	str	r3, [r2, #12]
                    (3U<<(5*2)) | (3U<<(6*2)) | (3U<<(7*2)));

  // PB0, PB1 analog
  GPIOB->MODER |=  (3U<<(0*2)) | (3U<<(1*2));
 8000d86:	4b1a      	ldr	r3, [pc, #104]	@ (8000df0 <gpio_analog_init+0x9c>)
 8000d88:	681b      	ldr	r3, [r3, #0]
 8000d8a:	4a19      	ldr	r2, [pc, #100]	@ (8000df0 <gpio_analog_init+0x9c>)
 8000d8c:	f043 030f 	orr.w	r3, r3, #15
 8000d90:	6013      	str	r3, [r2, #0]
  GPIOB->PUPDR &= ~((3U<<(0*2)) | (3U<<(1*2)));
 8000d92:	4b17      	ldr	r3, [pc, #92]	@ (8000df0 <gpio_analog_init+0x9c>)
 8000d94:	68db      	ldr	r3, [r3, #12]
 8000d96:	4a16      	ldr	r2, [pc, #88]	@ (8000df0 <gpio_analog_init+0x9c>)
 8000d98:	f023 030f 	bic.w	r3, r3, #15
 8000d9c:	60d3      	str	r3, [r2, #12]

  // PC0..PC5 analog
  for (int p = 0; p <= 5; p++) {
 8000d9e:	2300      	movs	r3, #0
 8000da0:	607b      	str	r3, [r7, #4]
 8000da2:	e017      	b.n	8000dd4 <gpio_analog_init+0x80>
    GPIOC->MODER |=  (3U << ((uint32_t)p * 2U));
 8000da4:	4b13      	ldr	r3, [pc, #76]	@ (8000df4 <gpio_analog_init+0xa0>)
 8000da6:	681a      	ldr	r2, [r3, #0]
 8000da8:	687b      	ldr	r3, [r7, #4]
 8000daa:	005b      	lsls	r3, r3, #1
 8000dac:	2103      	movs	r1, #3
 8000dae:	fa01 f303 	lsl.w	r3, r1, r3
 8000db2:	4910      	ldr	r1, [pc, #64]	@ (8000df4 <gpio_analog_init+0xa0>)
 8000db4:	4313      	orrs	r3, r2
 8000db6:	600b      	str	r3, [r1, #0]
    GPIOC->PUPDR &= ~(3U << ((uint32_t)p * 2U));
 8000db8:	4b0e      	ldr	r3, [pc, #56]	@ (8000df4 <gpio_analog_init+0xa0>)
 8000dba:	68da      	ldr	r2, [r3, #12]
 8000dbc:	687b      	ldr	r3, [r7, #4]
 8000dbe:	005b      	lsls	r3, r3, #1
 8000dc0:	2103      	movs	r1, #3
 8000dc2:	fa01 f303 	lsl.w	r3, r1, r3
 8000dc6:	43db      	mvns	r3, r3
 8000dc8:	490a      	ldr	r1, [pc, #40]	@ (8000df4 <gpio_analog_init+0xa0>)
 8000dca:	4013      	ands	r3, r2
 8000dcc:	60cb      	str	r3, [r1, #12]
  for (int p = 0; p <= 5; p++) {
 8000dce:	687b      	ldr	r3, [r7, #4]
 8000dd0:	3301      	adds	r3, #1
 8000dd2:	607b      	str	r3, [r7, #4]
 8000dd4:	687b      	ldr	r3, [r7, #4]
 8000dd6:	2b05      	cmp	r3, #5
 8000dd8:	dde4      	ble.n	8000da4 <gpio_analog_init+0x50>
  }
}
 8000dda:	bf00      	nop
 8000ddc:	bf00      	nop
 8000dde:	370c      	adds	r7, #12
 8000de0:	46bd      	mov	sp, r7
 8000de2:	f85d 7b04 	ldr.w	r7, [sp], #4
 8000de6:	4770      	bx	lr
 8000de8:	40023800 	.word	0x40023800
 8000dec:	40020000 	.word	0x40020000
 8000df0:	40020400 	.word	0x40020400
 8000df4:	40020800 	.word	0x40020800

08000df8 <adc_set_sampling>:

static void adc_set_sampling(void) {
 8000df8:	b480      	push	{r7}
 8000dfa:	b085      	sub	sp, #20
 8000dfc:	af00      	add	r7, sp, #0
  const uint32_t SMP = 7U; // 480 cycles for better stability on noisy/high-impedance inputs
 8000dfe:	2307      	movs	r3, #7
 8000e00:	607b      	str	r3, [r7, #4]

  // ch 0..9 => SMPR2
  for (int ch = 0; ch <= 9; ch++) {
 8000e02:	2300      	movs	r3, #0
 8000e04:	60fb      	str	r3, [r7, #12]
 8000e06:	e01b      	b.n	8000e40 <adc_set_sampling+0x48>
    ADC1->SMPR2 &= ~(7U << (3U * ch));
 8000e08:	4b24      	ldr	r3, [pc, #144]	@ (8000e9c <adc_set_sampling+0xa4>)
 8000e0a:	6919      	ldr	r1, [r3, #16]
 8000e0c:	68fa      	ldr	r2, [r7, #12]
 8000e0e:	4613      	mov	r3, r2
 8000e10:	005b      	lsls	r3, r3, #1
 8000e12:	4413      	add	r3, r2
 8000e14:	2207      	movs	r2, #7
 8000e16:	fa02 f303 	lsl.w	r3, r2, r3
 8000e1a:	43db      	mvns	r3, r3
 8000e1c:	4a1f      	ldr	r2, [pc, #124]	@ (8000e9c <adc_set_sampling+0xa4>)
 8000e1e:	400b      	ands	r3, r1
 8000e20:	6113      	str	r3, [r2, #16]
    ADC1->SMPR2 |=  (SMP << (3U * ch));
 8000e22:	4b1e      	ldr	r3, [pc, #120]	@ (8000e9c <adc_set_sampling+0xa4>)
 8000e24:	6919      	ldr	r1, [r3, #16]
 8000e26:	68fa      	ldr	r2, [r7, #12]
 8000e28:	4613      	mov	r3, r2
 8000e2a:	005b      	lsls	r3, r3, #1
 8000e2c:	4413      	add	r3, r2
 8000e2e:	687a      	ldr	r2, [r7, #4]
 8000e30:	fa02 f303 	lsl.w	r3, r2, r3
 8000e34:	4a19      	ldr	r2, [pc, #100]	@ (8000e9c <adc_set_sampling+0xa4>)
 8000e36:	430b      	orrs	r3, r1
 8000e38:	6113      	str	r3, [r2, #16]
  for (int ch = 0; ch <= 9; ch++) {
 8000e3a:	68fb      	ldr	r3, [r7, #12]
 8000e3c:	3301      	adds	r3, #1
 8000e3e:	60fb      	str	r3, [r7, #12]
 8000e40:	68fb      	ldr	r3, [r7, #12]
 8000e42:	2b09      	cmp	r3, #9
 8000e44:	dde0      	ble.n	8000e08 <adc_set_sampling+0x10>
  }

  // ch 10..15 => SMPR1
  for (int ch = 10; ch <= 15; ch++) {
 8000e46:	230a      	movs	r3, #10
 8000e48:	60bb      	str	r3, [r7, #8]
 8000e4a:	e01c      	b.n	8000e86 <adc_set_sampling+0x8e>
    uint32_t s = 3U * (uint32_t)(ch - 10);
 8000e4c:	68bb      	ldr	r3, [r7, #8]
 8000e4e:	3b0a      	subs	r3, #10
 8000e50:	461a      	mov	r2, r3
 8000e52:	4613      	mov	r3, r2
 8000e54:	005b      	lsls	r3, r3, #1
 8000e56:	4413      	add	r3, r2
 8000e58:	603b      	str	r3, [r7, #0]
    ADC1->SMPR1 &= ~(7U << s);
 8000e5a:	4b10      	ldr	r3, [pc, #64]	@ (8000e9c <adc_set_sampling+0xa4>)
 8000e5c:	68da      	ldr	r2, [r3, #12]
 8000e5e:	2107      	movs	r1, #7
 8000e60:	683b      	ldr	r3, [r7, #0]
 8000e62:	fa01 f303 	lsl.w	r3, r1, r3
 8000e66:	43db      	mvns	r3, r3
 8000e68:	490c      	ldr	r1, [pc, #48]	@ (8000e9c <adc_set_sampling+0xa4>)
 8000e6a:	4013      	ands	r3, r2
 8000e6c:	60cb      	str	r3, [r1, #12]
    ADC1->SMPR1 |=  (SMP << s);
 8000e6e:	4b0b      	ldr	r3, [pc, #44]	@ (8000e9c <adc_set_sampling+0xa4>)
 8000e70:	68da      	ldr	r2, [r3, #12]
 8000e72:	6879      	ldr	r1, [r7, #4]
 8000e74:	683b      	ldr	r3, [r7, #0]
 8000e76:	fa01 f303 	lsl.w	r3, r1, r3
 8000e7a:	4908      	ldr	r1, [pc, #32]	@ (8000e9c <adc_set_sampling+0xa4>)
 8000e7c:	4313      	orrs	r3, r2
 8000e7e:	60cb      	str	r3, [r1, #12]
  for (int ch = 10; ch <= 15; ch++) {
 8000e80:	68bb      	ldr	r3, [r7, #8]
 8000e82:	3301      	adds	r3, #1
 8000e84:	60bb      	str	r3, [r7, #8]
 8000e86:	68bb      	ldr	r3, [r7, #8]
 8000e88:	2b0f      	cmp	r3, #15
 8000e8a:	dddf      	ble.n	8000e4c <adc_set_sampling+0x54>
  }
}
 8000e8c:	bf00      	nop
 8000e8e:	bf00      	nop
 8000e90:	3714      	adds	r7, #20
 8000e92:	46bd      	mov	sp, r7
 8000e94:	f85d 7b04 	ldr.w	r7, [sp], #4
 8000e98:	4770      	bx	lr
 8000e9a:	bf00      	nop
 8000e9c:	40012000 	.word	0x40012000

08000ea0 <adc_set_sequence>:

static void adc_set_sequence(const uint8_t *seq, uint8_t n) {
 8000ea0:	b480      	push	{r7}
 8000ea2:	b085      	sub	sp, #20
 8000ea4:	af00      	add	r7, sp, #0
 8000ea6:	6078      	str	r0, [r7, #4]
 8000ea8:	460b      	mov	r3, r1
 8000eaa:	70fb      	strb	r3, [r7, #3]
  ADC1->SQR1 = (ADC1->SQR1 & ~ADC_SQR1_L) | ((uint32_t)(n - 1U) << 20);
 8000eac:	4b2a      	ldr	r3, [pc, #168]	@ (8000f58 <adc_set_sequence+0xb8>)
 8000eae:	6adb      	ldr	r3, [r3, #44]	@ 0x2c
 8000eb0:	f423 0270 	bic.w	r2, r3, #15728640	@ 0xf00000
 8000eb4:	78fb      	ldrb	r3, [r7, #3]
 8000eb6:	3b01      	subs	r3, #1
 8000eb8:	051b      	lsls	r3, r3, #20
 8000eba:	4927      	ldr	r1, [pc, #156]	@ (8000f58 <adc_set_sequence+0xb8>)
 8000ebc:	4313      	orrs	r3, r2
 8000ebe:	62cb      	str	r3, [r1, #44]	@ 0x2c
  ADC1->SQR2 = 0;
 8000ec0:	4b25      	ldr	r3, [pc, #148]	@ (8000f58 <adc_set_sequence+0xb8>)
 8000ec2:	2200      	movs	r2, #0
 8000ec4:	631a      	str	r2, [r3, #48]	@ 0x30
  ADC1->SQR3 = 0;
 8000ec6:	4b24      	ldr	r3, [pc, #144]	@ (8000f58 <adc_set_sequence+0xb8>)
 8000ec8:	2200      	movs	r2, #0
 8000eca:	635a      	str	r2, [r3, #52]	@ 0x34

  for (uint8_t i = 0; i < n; i++) {
 8000ecc:	2300      	movs	r3, #0
 8000ece:	73fb      	strb	r3, [r7, #15]
 8000ed0:	e037      	b.n	8000f42 <adc_set_sequence+0xa2>
    uint32_t ch = (uint32_t)(seq[i] & 0x1FU);
 8000ed2:	7bfb      	ldrb	r3, [r7, #15]
 8000ed4:	687a      	ldr	r2, [r7, #4]
 8000ed6:	4413      	add	r3, r2
 8000ed8:	781b      	ldrb	r3, [r3, #0]
 8000eda:	f003 031f 	and.w	r3, r3, #31
 8000ede:	60bb      	str	r3, [r7, #8]
    if      (i < 6)  ADC1->SQR3 |= ch << (5U * i);
 8000ee0:	7bfb      	ldrb	r3, [r7, #15]
 8000ee2:	2b05      	cmp	r3, #5
 8000ee4:	d80c      	bhi.n	8000f00 <adc_set_sequence+0x60>
 8000ee6:	4b1c      	ldr	r3, [pc, #112]	@ (8000f58 <adc_set_sequence+0xb8>)
 8000ee8:	6b59      	ldr	r1, [r3, #52]	@ 0x34
 8000eea:	7bfa      	ldrb	r2, [r7, #15]
 8000eec:	4613      	mov	r3, r2
 8000eee:	009b      	lsls	r3, r3, #2
 8000ef0:	4413      	add	r3, r2
 8000ef2:	68ba      	ldr	r2, [r7, #8]
 8000ef4:	fa02 f303 	lsl.w	r3, r2, r3
 8000ef8:	4a17      	ldr	r2, [pc, #92]	@ (8000f58 <adc_set_sequence+0xb8>)
 8000efa:	430b      	orrs	r3, r1
 8000efc:	6353      	str	r3, [r2, #52]	@ 0x34
 8000efe:	e01d      	b.n	8000f3c <adc_set_sequence+0x9c>
    else if (i < 12) ADC1->SQR2 |= ch << (5U * (i - 6U));
 8000f00:	7bfb      	ldrb	r3, [r7, #15]
 8000f02:	2b0b      	cmp	r3, #11
 8000f04:	d80d      	bhi.n	8000f22 <adc_set_sequence+0x82>
 8000f06:	4b14      	ldr	r3, [pc, #80]	@ (8000f58 <adc_set_sequence+0xb8>)
 8000f08:	6b19      	ldr	r1, [r3, #48]	@ 0x30
 8000f0a:	7bfa      	ldrb	r2, [r7, #15]
 8000f0c:	4613      	mov	r3, r2
 8000f0e:	009b      	lsls	r3, r3, #2
 8000f10:	4413      	add	r3, r2
 8000f12:	3b1e      	subs	r3, #30
 8000f14:	68ba      	ldr	r2, [r7, #8]
 8000f16:	fa02 f303 	lsl.w	r3, r2, r3
 8000f1a:	4a0f      	ldr	r2, [pc, #60]	@ (8000f58 <adc_set_sequence+0xb8>)
 8000f1c:	430b      	orrs	r3, r1
 8000f1e:	6313      	str	r3, [r2, #48]	@ 0x30
 8000f20:	e00c      	b.n	8000f3c <adc_set_sequence+0x9c>
    else             ADC1->SQR1 |= ch << (5U * (i - 12U));
 8000f22:	4b0d      	ldr	r3, [pc, #52]	@ (8000f58 <adc_set_sequence+0xb8>)
 8000f24:	6ad9      	ldr	r1, [r3, #44]	@ 0x2c
 8000f26:	7bfa      	ldrb	r2, [r7, #15]
 8000f28:	4613      	mov	r3, r2
 8000f2a:	009b      	lsls	r3, r3, #2
 8000f2c:	4413      	add	r3, r2
 8000f2e:	3b3c      	subs	r3, #60	@ 0x3c
 8000f30:	68ba      	ldr	r2, [r7, #8]
 8000f32:	fa02 f303 	lsl.w	r3, r2, r3
 8000f36:	4a08      	ldr	r2, [pc, #32]	@ (8000f58 <adc_set_sequence+0xb8>)
 8000f38:	430b      	orrs	r3, r1
 8000f3a:	62d3      	str	r3, [r2, #44]	@ 0x2c
  for (uint8_t i = 0; i < n; i++) {
 8000f3c:	7bfb      	ldrb	r3, [r7, #15]
 8000f3e:	3301      	adds	r3, #1
 8000f40:	73fb      	strb	r3, [r7, #15]
 8000f42:	7bfa      	ldrb	r2, [r7, #15]
 8000f44:	78fb      	ldrb	r3, [r7, #3]
 8000f46:	429a      	cmp	r2, r3
 8000f48:	d3c3      	bcc.n	8000ed2 <adc_set_sequence+0x32>
  }
}
 8000f4a:	bf00      	nop
 8000f4c:	bf00      	nop
 8000f4e:	3714      	adds	r7, #20
 8000f50:	46bd      	mov	sp, r7
 8000f52:	f85d 7b04 	ldr.w	r7, [sp], #4
 8000f56:	4770      	bx	lr
 8000f58:	40012000 	.word	0x40012000

08000f5c <dma2_stream0_init>:

static void dma2_stream0_init(uint16_t *dst, uint32_t count) {
 8000f5c:	b480      	push	{r7}
 8000f5e:	b083      	sub	sp, #12
 8000f60:	af00      	add	r7, sp, #0
 8000f62:	6078      	str	r0, [r7, #4]
 8000f64:	6039      	str	r1, [r7, #0]
  RCC->AHB1ENR |= DMA2EN;
 8000f66:	4b1b      	ldr	r3, [pc, #108]	@ (8000fd4 <dma2_stream0_init+0x78>)
 8000f68:	6b1b      	ldr	r3, [r3, #48]	@ 0x30
 8000f6a:	4a1a      	ldr	r2, [pc, #104]	@ (8000fd4 <dma2_stream0_init+0x78>)
 8000f6c:	f443 0380 	orr.w	r3, r3, #4194304	@ 0x400000
 8000f70:	6313      	str	r3, [r2, #48]	@ 0x30

  DMA2_Stream0->CR &= ~DMA_EN;
 8000f72:	4b19      	ldr	r3, [pc, #100]	@ (8000fd8 <dma2_stream0_init+0x7c>)
 8000f74:	681b      	ldr	r3, [r3, #0]
 8000f76:	4a18      	ldr	r2, [pc, #96]	@ (8000fd8 <dma2_stream0_init+0x7c>)
 8000f78:	f023 0301 	bic.w	r3, r3, #1
 8000f7c:	6013      	str	r3, [r2, #0]
  while (DMA2_Stream0->CR & DMA_EN) {}
 8000f7e:	bf00      	nop
 8000f80:	4b15      	ldr	r3, [pc, #84]	@ (8000fd8 <dma2_stream0_init+0x7c>)
 8000f82:	681b      	ldr	r3, [r3, #0]
 8000f84:	f003 0301 	and.w	r3, r3, #1
 8000f88:	2b00      	cmp	r3, #0
 8000f8a:	d1f9      	bne.n	8000f80 <dma2_stream0_init+0x24>

  DMA2->LIFCR = 0x3DU;
 8000f8c:	4b13      	ldr	r3, [pc, #76]	@ (8000fdc <dma2_stream0_init+0x80>)
 8000f8e:	223d      	movs	r2, #61	@ 0x3d
 8000f90:	609a      	str	r2, [r3, #8]

  DMA2_Stream0->PAR  = (uint32_t)&ADC1->DR;
 8000f92:	4b11      	ldr	r3, [pc, #68]	@ (8000fd8 <dma2_stream0_init+0x7c>)
 8000f94:	4a12      	ldr	r2, [pc, #72]	@ (8000fe0 <dma2_stream0_init+0x84>)
 8000f96:	609a      	str	r2, [r3, #8]
  DMA2_Stream0->M0AR = (uint32_t)dst;
 8000f98:	4a0f      	ldr	r2, [pc, #60]	@ (8000fd8 <dma2_stream0_init+0x7c>)
 8000f9a:	687b      	ldr	r3, [r7, #4]
 8000f9c:	60d3      	str	r3, [r2, #12]
  DMA2_Stream0->NDTR = count;
 8000f9e:	4a0e      	ldr	r2, [pc, #56]	@ (8000fd8 <dma2_stream0_init+0x7c>)
 8000fa0:	683b      	ldr	r3, [r7, #0]
 8000fa2:	6053      	str	r3, [r2, #4]

  DMA2_Stream0->CR &= ~((3U<<11) | (3U<<13) | (3U<<16));
 8000fa4:	4b0c      	ldr	r3, [pc, #48]	@ (8000fd8 <dma2_stream0_init+0x7c>)
 8000fa6:	681b      	ldr	r3, [r3, #0]
 8000fa8:	4a0b      	ldr	r2, [pc, #44]	@ (8000fd8 <dma2_stream0_init+0x7c>)
 8000faa:	f423 335e 	bic.w	r3, r3, #227328	@ 0x37800
 8000fae:	6013      	str	r3, [r2, #0]
  DMA2_Stream0->CR  = DMA_CIRC | DMA_MINC | DMA_PSIZE_16 | DMA_MSIZE_16 | DMA_PL_MED;
 8000fb0:	4b09      	ldr	r3, [pc, #36]	@ (8000fd8 <dma2_stream0_init+0x7c>)
 8000fb2:	4a0c      	ldr	r2, [pc, #48]	@ (8000fe4 <dma2_stream0_init+0x88>)
 8000fb4:	601a      	str	r2, [r3, #0]

  DMA2_Stream0->FCR = 0;
 8000fb6:	4b08      	ldr	r3, [pc, #32]	@ (8000fd8 <dma2_stream0_init+0x7c>)
 8000fb8:	2200      	movs	r2, #0
 8000fba:	615a      	str	r2, [r3, #20]
  DMA2_Stream0->CR |= DMA_EN;
 8000fbc:	4b06      	ldr	r3, [pc, #24]	@ (8000fd8 <dma2_stream0_init+0x7c>)
 8000fbe:	681b      	ldr	r3, [r3, #0]
 8000fc0:	4a05      	ldr	r2, [pc, #20]	@ (8000fd8 <dma2_stream0_init+0x7c>)
 8000fc2:	f043 0301 	orr.w	r3, r3, #1
 8000fc6:	6013      	str	r3, [r2, #0]
}
 8000fc8:	bf00      	nop
 8000fca:	370c      	adds	r7, #12
 8000fcc:	46bd      	mov	sp, r7
 8000fce:	f85d 7b04 	ldr.w	r7, [sp], #4
 8000fd2:	4770      	bx	lr
 8000fd4:	40023800 	.word	0x40023800
 8000fd8:	40026410 	.word	0x40026410
 8000fdc:	40026400 	.word	0x40026400
 8000fe0:	4001204c 	.word	0x4001204c
 8000fe4:	00022d00 	.word	0x00022d00

08000fe8 <ADC_DMA_Init>:

void ADC_DMA_Init(void) {
 8000fe8:	b580      	push	{r7, lr}
 8000fea:	b082      	sub	sp, #8
 8000fec:	af00      	add	r7, sp, #0
  gpio_analog_init();
 8000fee:	f7ff feb1 	bl	8000d54 <gpio_analog_init>

  RCC->APB2ENR |= ADC1EN;
 8000ff2:	4b1f      	ldr	r3, [pc, #124]	@ (8001070 <ADC_DMA_Init+0x88>)
 8000ff4:	6c5b      	ldr	r3, [r3, #68]	@ 0x44
 8000ff6:	4a1e      	ldr	r2, [pc, #120]	@ (8001070 <ADC_DMA_Init+0x88>)
 8000ff8:	f443 7380 	orr.w	r3, r3, #256	@ 0x100
 8000ffc:	6453      	str	r3, [r2, #68]	@ 0x44

  ADC1->CR1 = 0;
 8000ffe:	4b1d      	ldr	r3, [pc, #116]	@ (8001074 <ADC_DMA_Init+0x8c>)
 8001000:	2200      	movs	r2, #0
 8001002:	605a      	str	r2, [r3, #4]
  ADC1->CR2 = 0;
 8001004:	4b1b      	ldr	r3, [pc, #108]	@ (8001074 <ADC_DMA_Init+0x8c>)
 8001006:	2200      	movs	r2, #0
 8001008:	609a      	str	r2, [r3, #8]

  ADC1->CR1 |= ADC_CR_1_SCAN;
 800100a:	4b1a      	ldr	r3, [pc, #104]	@ (8001074 <ADC_DMA_Init+0x8c>)
 800100c:	685b      	ldr	r3, [r3, #4]
 800100e:	4a19      	ldr	r2, [pc, #100]	@ (8001074 <ADC_DMA_Init+0x8c>)
 8001010:	f443 7380 	orr.w	r3, r3, #256	@ 0x100
 8001014:	6053      	str	r3, [r2, #4]
  ADC1->CR2 |= ADC_CR_2_CONT;
 8001016:	4b17      	ldr	r3, [pc, #92]	@ (8001074 <ADC_DMA_Init+0x8c>)
 8001018:	689b      	ldr	r3, [r3, #8]
 800101a:	4a16      	ldr	r2, [pc, #88]	@ (8001074 <ADC_DMA_Init+0x8c>)
 800101c:	f043 0302 	orr.w	r3, r3, #2
 8001020:	6093      	str	r3, [r2, #8]
  ADC1->CR2 |= ADC_CR_2_DMA | ADC_CR_2_DDS;
 8001022:	4b14      	ldr	r3, [pc, #80]	@ (8001074 <ADC_DMA_Init+0x8c>)
 8001024:	689b      	ldr	r3, [r3, #8]
 8001026:	4a13      	ldr	r2, [pc, #76]	@ (8001074 <ADC_DMA_Init+0x8c>)
 8001028:	f443 7340 	orr.w	r3, r3, #768	@ 0x300
 800102c:	6093      	str	r3, [r2, #8]

  adc_set_sampling();
 800102e:	f7ff fee3 	bl	8000df8 <adc_set_sampling>
  adc_set_sequence(g_seq, ADC_CH_COUNT);
 8001032:	210e      	movs	r1, #14
 8001034:	4810      	ldr	r0, [pc, #64]	@ (8001078 <ADC_DMA_Init+0x90>)
 8001036:	f7ff ff33 	bl	8000ea0 <adc_set_sequence>

  dma2_stream0_init(g_adc.raw, ADC_CH_COUNT);
 800103a:	210e      	movs	r1, #14
 800103c:	480f      	ldr	r0, [pc, #60]	@ (800107c <ADC_DMA_Init+0x94>)
 800103e:	f7ff ff8d 	bl	8000f5c <dma2_stream0_init>

  ADC1->CR2 |= ADC_CR_2_ADON;
 8001042:	4b0c      	ldr	r3, [pc, #48]	@ (8001074 <ADC_DMA_Init+0x8c>)
 8001044:	689b      	ldr	r3, [r3, #8]
 8001046:	4a0b      	ldr	r2, [pc, #44]	@ (8001074 <ADC_DMA_Init+0x8c>)
 8001048:	f043 0301 	orr.w	r3, r3, #1
 800104c:	6093      	str	r3, [r2, #8]
  for (volatile int i = 0; i < 1000; i++) { __NOP(); }
 800104e:	2300      	movs	r3, #0
 8001050:	607b      	str	r3, [r7, #4]
 8001052:	e003      	b.n	800105c <ADC_DMA_Init+0x74>
 8001054:	bf00      	nop
 8001056:	687b      	ldr	r3, [r7, #4]
 8001058:	3301      	adds	r3, #1
 800105a:	607b      	str	r3, [r7, #4]
 800105c:	687b      	ldr	r3, [r7, #4]
 800105e:	f5b3 7f7a 	cmp.w	r3, #1000	@ 0x3e8
 8001062:	dbf7      	blt.n	8001054 <ADC_DMA_Init+0x6c>
}
 8001064:	bf00      	nop
 8001066:	bf00      	nop
 8001068:	3708      	adds	r7, #8
 800106a:	46bd      	mov	sp, r7
 800106c:	bd80      	pop	{r7, pc}
 800106e:	bf00      	nop
 8001070:	40023800 	.word	0x40023800
 8001074:	40012000 	.word	0x40012000
 8001078:	08007d0c 	.word	0x08007d0c
 800107c:	20000200 	.word	0x20000200

08001080 <ADC_DMA_Start>:

void ADC_DMA_Start(void) {
 8001080:	b480      	push	{r7}
 8001082:	af00      	add	r7, sp, #0
  ADC1->CR2 |= ADC_CR2_SWSTART;
 8001084:	4b05      	ldr	r3, [pc, #20]	@ (800109c <ADC_DMA_Start+0x1c>)
 8001086:	689b      	ldr	r3, [r3, #8]
 8001088:	4a04      	ldr	r2, [pc, #16]	@ (800109c <ADC_DMA_Start+0x1c>)
 800108a:	f043 4380 	orr.w	r3, r3, #1073741824	@ 0x40000000
 800108e:	6093      	str	r3, [r2, #8]
}
 8001090:	bf00      	nop
 8001092:	46bd      	mov	sp, r7
 8001094:	f85d 7b04 	ldr.w	r7, [sp], #4
 8001098:	4770      	bx	lr
 800109a:	bf00      	nop
 800109c:	40012000 	.word	0x40012000

080010a0 <ADC_GetFrame>:

const adc_frame_t* ADC_GetFrame(void) {
 80010a0:	b480      	push	{r7}
 80010a2:	af00      	add	r7, sp, #0
  return &g_adc;
 80010a4:	4b02      	ldr	r3, [pc, #8]	@ (80010b0 <ADC_GetFrame+0x10>)
}
 80010a6:	4618      	mov	r0, r3
 80010a8:	46bd      	mov	sp, r7
 80010aa:	f85d 7b04 	ldr.w	r7, [sp], #4
 80010ae:	4770      	bx	lr
 80010b0:	20000200 	.word	0x20000200

080010b4 <all_off>:
float g_uv_limit_v      = UV_LIMIT_V;
float g_deep_uv_limit_v = DEEP_UV_LIMIT_V;
float g_ot_limit_c      = OT_LIMIT_C;
float g_oc_limit_a      = OC_LIMIT_A;

static void all_off(void) {
 80010b4:	b580      	push	{r7, lr}
 80010b6:	af00      	add	r7, sp, #0
  BMS_HW_SetChargeEnable(false);
 80010b8:	2000      	movs	r0, #0
 80010ba:	f000 faab 	bl	8001614 <BMS_HW_SetChargeEnable>
  BMS_HW_SetDischargeEnable(false);
 80010be:	2000      	movs	r0, #0
 80010c0:	f000 faba 	bl	8001638 <BMS_HW_SetDischargeEnable>
}
 80010c4:	bf00      	nop
 80010c6:	bd80      	pop	{r7, pc}

080010c8 <check_faults>:

static void check_faults(bms_ctx_t *c) {
 80010c8:	b480      	push	{r7}
 80010ca:	b085      	sub	sp, #20
 80010cc:	af00      	add	r7, sp, #0
 80010ce:	6078      	str	r0, [r7, #4]
  float uv = (c->state == BMS_DEEP_DISCHARGE) ? g_deep_uv_limit_v : g_uv_limit_v;
 80010d0:	687b      	ldr	r3, [r7, #4]
 80010d2:	781b      	ldrb	r3, [r3, #0]
 80010d4:	2b05      	cmp	r3, #5
 80010d6:	d102      	bne.n	80010de <check_faults+0x16>
 80010d8:	4b32      	ldr	r3, [pc, #200]	@ (80011a4 <check_faults+0xdc>)
 80010da:	681b      	ldr	r3, [r3, #0]
 80010dc:	e001      	b.n	80010e2 <check_faults+0x1a>
 80010de:	4b32      	ldr	r3, [pc, #200]	@ (80011a8 <check_faults+0xe0>)
 80010e0:	681b      	ldr	r3, [r3, #0]
 80010e2:	60bb      	str	r3, [r7, #8]

  if (c->Vmax > g_ov_limit_v) c->faults |= FAULT_OV;
 80010e4:	687b      	ldr	r3, [r7, #4]
 80010e6:	ed93 7a0f 	vldr	s14, [r3, #60]	@ 0x3c
 80010ea:	4b30      	ldr	r3, [pc, #192]	@ (80011ac <check_faults+0xe4>)
 80010ec:	edd3 7a00 	vldr	s15, [r3]
 80010f0:	eeb4 7ae7 	vcmpe.f32	s14, s15
 80010f4:	eef1 fa10 	vmrs	APSR_nzcv, fpscr
 80010f8:	dd05      	ble.n	8001106 <check_faults+0x3e>
 80010fa:	687b      	ldr	r3, [r7, #4]
 80010fc:	685b      	ldr	r3, [r3, #4]
 80010fe:	f043 0201 	orr.w	r2, r3, #1
 8001102:	687b      	ldr	r3, [r7, #4]
 8001104:	605a      	str	r2, [r3, #4]
  if (c->Vmin < uv)           c->faults |= FAULT_UV;
 8001106:	687b      	ldr	r3, [r7, #4]
 8001108:	edd3 7a10 	vldr	s15, [r3, #64]	@ 0x40
 800110c:	ed97 7a02 	vldr	s14, [r7, #8]
 8001110:	eeb4 7ae7 	vcmpe.f32	s14, s15
 8001114:	eef1 fa10 	vmrs	APSR_nzcv, fpscr
 8001118:	dd05      	ble.n	8001126 <check_faults+0x5e>
 800111a:	687b      	ldr	r3, [r7, #4]
 800111c:	685b      	ldr	r3, [r3, #4]
 800111e:	f043 0202 	orr.w	r2, r3, #2
 8001122:	687b      	ldr	r3, [r7, #4]
 8001124:	605a      	str	r2, [r3, #4]

  for (int i = 0; i < 8; i++) {
 8001126:	2300      	movs	r3, #0
 8001128:	60fb      	str	r3, [r7, #12]
 800112a:	e017      	b.n	800115c <check_faults+0x94>
    if (c->Tg[i] > g_ot_limit_c) c->faults |= FAULT_OT;
 800112c:	687a      	ldr	r2, [r7, #4]
 800112e:	68fb      	ldr	r3, [r7, #12]
 8001130:	3306      	adds	r3, #6
 8001132:	009b      	lsls	r3, r3, #2
 8001134:	4413      	add	r3, r2
 8001136:	ed93 7a00 	vldr	s14, [r3]
 800113a:	4b1d      	ldr	r3, [pc, #116]	@ (80011b0 <check_faults+0xe8>)
 800113c:	edd3 7a00 	vldr	s15, [r3]
 8001140:	eeb4 7ae7 	vcmpe.f32	s14, s15
 8001144:	eef1 fa10 	vmrs	APSR_nzcv, fpscr
 8001148:	dd05      	ble.n	8001156 <check_faults+0x8e>
 800114a:	687b      	ldr	r3, [r7, #4]
 800114c:	685b      	ldr	r3, [r3, #4]
 800114e:	f043 0204 	orr.w	r2, r3, #4
 8001152:	687b      	ldr	r3, [r7, #4]
 8001154:	605a      	str	r2, [r3, #4]
  for (int i = 0; i < 8; i++) {
 8001156:	68fb      	ldr	r3, [r7, #12]
 8001158:	3301      	adds	r3, #1
 800115a:	60fb      	str	r3, [r7, #12]
 800115c:	68fb      	ldr	r3, [r7, #12]
 800115e:	2b07      	cmp	r3, #7
 8001160:	dde4      	ble.n	800112c <check_faults+0x64>
  }

  if (fabsf(c->I) > g_oc_limit_a) c->faults |= FAULT_OC;
 8001162:	687b      	ldr	r3, [r7, #4]
 8001164:	edd3 7a0e 	vldr	s15, [r3, #56]	@ 0x38
 8001168:	eeb0 7ae7 	vabs.f32	s14, s15
 800116c:	4b11      	ldr	r3, [pc, #68]	@ (80011b4 <check_faults+0xec>)
 800116e:	edd3 7a00 	vldr	s15, [r3]
 8001172:	eeb4 7ae7 	vcmpe.f32	s14, s15
 8001176:	eef1 fa10 	vmrs	APSR_nzcv, fpscr
 800117a:	dd05      	ble.n	8001188 <check_faults+0xc0>
 800117c:	687b      	ldr	r3, [r7, #4]
 800117e:	685b      	ldr	r3, [r3, #4]
 8001180:	f043 0208 	orr.w	r2, r3, #8
 8001184:	687b      	ldr	r3, [r7, #4]
 8001186:	605a      	str	r2, [r3, #4]

  if (c->faults) {
 8001188:	687b      	ldr	r3, [r7, #4]
 800118a:	685b      	ldr	r3, [r3, #4]
 800118c:	2b00      	cmp	r3, #0
 800118e:	d002      	beq.n	8001196 <check_faults+0xce>
    c->state = BMS_FAULT;
 8001190:	687b      	ldr	r3, [r7, #4]
 8001192:	2206      	movs	r2, #6
 8001194:	701a      	strb	r2, [r3, #0]
  }
}
 8001196:	bf00      	nop
 8001198:	3714      	adds	r7, #20
 800119a:	46bd      	mov	sp, r7
 800119c:	f85d 7b04 	ldr.w	r7, [sp], #4
 80011a0:	4770      	bx	lr
 80011a2:	bf00      	nop
 80011a4:	2000021c 	.word	0x2000021c
 80011a8:	20000004 	.word	0x20000004
 80011ac:	20000000 	.word	0x20000000
 80011b0:	20000008 	.word	0x20000008
 80011b4:	2000000c 	.word	0x2000000c

080011b8 <mode_select>:

static bms_state_t mode_select(const bms_ctx_t *c) {
 80011b8:	b480      	push	{r7}
 80011ba:	b083      	sub	sp, #12
 80011bc:	af00      	add	r7, sp, #0
 80011be:	6078      	str	r0, [r7, #4]
  if (c->deep_mode && !c->charger_connected) {
 80011c0:	687b      	ldr	r3, [r7, #4]
 80011c2:	f893 3049 	ldrb.w	r3, [r3, #73]	@ 0x49
 80011c6:	2b00      	cmp	r3, #0
 80011c8:	d009      	beq.n	80011de <mode_select+0x26>
 80011ca:	687b      	ldr	r3, [r7, #4]
 80011cc:	f893 3048 	ldrb.w	r3, [r3, #72]	@ 0x48
 80011d0:	f083 0301 	eor.w	r3, r3, #1
 80011d4:	b2db      	uxtb	r3, r3
 80011d6:	2b00      	cmp	r3, #0
 80011d8:	d001      	beq.n	80011de <mode_select+0x26>
    return BMS_DEEP_DISCHARGE;
 80011da:	2305      	movs	r3, #5
 80011dc:	e007      	b.n	80011ee <mode_select+0x36>
  }

  if (c->charger_connected) {
 80011de:	687b      	ldr	r3, [r7, #4]
 80011e0:	f893 3048 	ldrb.w	r3, [r3, #72]	@ 0x48
 80011e4:	2b00      	cmp	r3, #0
 80011e6:	d001      	beq.n	80011ec <mode_select+0x34>
    return BMS_CHARGE;
 80011e8:	2303      	movs	r3, #3
 80011ea:	e000      	b.n	80011ee <mode_select+0x36>
  }

  return BMS_DISCHARGE;
 80011ec:	2304      	movs	r3, #4
}
 80011ee:	4618      	mov	r0, r3
 80011f0:	370c      	adds	r7, #12
 80011f2:	46bd      	mov	sp, r7
 80011f4:	f85d 7b04 	ldr.w	r7, [sp], #4
 80011f8:	4770      	bx	lr
	...

080011fc <BMS_Init>:

void BMS_Init(bms_ctx_t *c) {
 80011fc:	b480      	push	{r7}
 80011fe:	b085      	sub	sp, #20
 8001200:	af00      	add	r7, sp, #0
 8001202:	6078      	str	r0, [r7, #4]
  c->state = BMS_INIT;
 8001204:	687b      	ldr	r3, [r7, #4]
 8001206:	2200      	movs	r2, #0
 8001208:	701a      	strb	r2, [r3, #0]
  c->faults = 0;
 800120a:	687b      	ldr	r3, [r7, #4]
 800120c:	2200      	movs	r2, #0
 800120e:	605a      	str	r2, [r3, #4]

  for (int i = 0; i < 4; i++) c->Vg[i] = 0.0f;
 8001210:	2300      	movs	r3, #0
 8001212:	60fb      	str	r3, [r7, #12]
 8001214:	e00a      	b.n	800122c <BMS_Init+0x30>
 8001216:	687a      	ldr	r2, [r7, #4]
 8001218:	68fb      	ldr	r3, [r7, #12]
 800121a:	3302      	adds	r3, #2
 800121c:	009b      	lsls	r3, r3, #2
 800121e:	4413      	add	r3, r2
 8001220:	f04f 0200 	mov.w	r2, #0
 8001224:	601a      	str	r2, [r3, #0]
 8001226:	68fb      	ldr	r3, [r7, #12]
 8001228:	3301      	adds	r3, #1
 800122a:	60fb      	str	r3, [r7, #12]
 800122c:	68fb      	ldr	r3, [r7, #12]
 800122e:	2b03      	cmp	r3, #3
 8001230:	ddf1      	ble.n	8001216 <BMS_Init+0x1a>
  for (int i = 0; i < 8; i++) c->Tg[i] = 25.0f;
 8001232:	2300      	movs	r3, #0
 8001234:	60bb      	str	r3, [r7, #8]
 8001236:	e009      	b.n	800124c <BMS_Init+0x50>
 8001238:	687a      	ldr	r2, [r7, #4]
 800123a:	68bb      	ldr	r3, [r7, #8]
 800123c:	3306      	adds	r3, #6
 800123e:	009b      	lsls	r3, r3, #2
 8001240:	4413      	add	r3, r2
 8001242:	4a13      	ldr	r2, [pc, #76]	@ (8001290 <BMS_Init+0x94>)
 8001244:	601a      	str	r2, [r3, #0]
 8001246:	68bb      	ldr	r3, [r7, #8]
 8001248:	3301      	adds	r3, #1
 800124a:	60bb      	str	r3, [r7, #8]
 800124c:	68bb      	ldr	r3, [r7, #8]
 800124e:	2b07      	cmp	r3, #7
 8001250:	ddf2      	ble.n	8001238 <BMS_Init+0x3c>
  c->I = 0.0f;
 8001252:	687b      	ldr	r3, [r7, #4]
 8001254:	f04f 0200 	mov.w	r2, #0
 8001258:	639a      	str	r2, [r3, #56]	@ 0x38

  c->Vmax = 0.0f;
 800125a:	687b      	ldr	r3, [r7, #4]
 800125c:	f04f 0200 	mov.w	r2, #0
 8001260:	63da      	str	r2, [r3, #60]	@ 0x3c
  c->Vmin = 0.0f;
 8001262:	687b      	ldr	r3, [r7, #4]
 8001264:	f04f 0200 	mov.w	r2, #0
 8001268:	641a      	str	r2, [r3, #64]	@ 0x40
  c->dV   = 0.0f;
 800126a:	687b      	ldr	r3, [r7, #4]
 800126c:	f04f 0200 	mov.w	r2, #0
 8001270:	645a      	str	r2, [r3, #68]	@ 0x44

  c->charger_connected = false;
 8001272:	687b      	ldr	r3, [r7, #4]
 8001274:	2200      	movs	r2, #0
 8001276:	f883 2048 	strb.w	r2, [r3, #72]	@ 0x48
  c->deep_mode         = false;
 800127a:	687b      	ldr	r3, [r7, #4]
 800127c:	2200      	movs	r2, #0
 800127e:	f883 2049 	strb.w	r2, [r3, #73]	@ 0x49
}
 8001282:	bf00      	nop
 8001284:	3714      	adds	r7, #20
 8001286:	46bd      	mov	sp, r7
 8001288:	f85d 7b04 	ldr.w	r7, [sp], #4
 800128c:	4770      	bx	lr
 800128e:	bf00      	nop
 8001290:	41c80000 	.word	0x41c80000

08001294 <BMS_UpdateDerived>:

void BMS_UpdateDerived(bms_ctx_t *c) {
 8001294:	b480      	push	{r7}
 8001296:	b085      	sub	sp, #20
 8001298:	af00      	add	r7, sp, #0
 800129a:	6078      	str	r0, [r7, #4]
  c->Vmax = c->Vg[0];
 800129c:	687b      	ldr	r3, [r7, #4]
 800129e:	689a      	ldr	r2, [r3, #8]
 80012a0:	687b      	ldr	r3, [r7, #4]
 80012a2:	63da      	str	r2, [r3, #60]	@ 0x3c
  c->Vmin = c->Vg[0];
 80012a4:	687b      	ldr	r3, [r7, #4]
 80012a6:	689a      	ldr	r2, [r3, #8]
 80012a8:	687b      	ldr	r3, [r7, #4]
 80012aa:	641a      	str	r2, [r3, #64]	@ 0x40

  for (int i = 1; i < 4; i++) {
 80012ac:	2301      	movs	r3, #1
 80012ae:	60fb      	str	r3, [r7, #12]
 80012b0:	e030      	b.n	8001314 <BMS_UpdateDerived+0x80>
    if (c->Vg[i] > c->Vmax) c->Vmax = c->Vg[i];
 80012b2:	687a      	ldr	r2, [r7, #4]
 80012b4:	68fb      	ldr	r3, [r7, #12]
 80012b6:	3302      	adds	r3, #2
 80012b8:	009b      	lsls	r3, r3, #2
 80012ba:	4413      	add	r3, r2
 80012bc:	ed93 7a00 	vldr	s14, [r3]
 80012c0:	687b      	ldr	r3, [r7, #4]
 80012c2:	edd3 7a0f 	vldr	s15, [r3, #60]	@ 0x3c
 80012c6:	eeb4 7ae7 	vcmpe.f32	s14, s15
 80012ca:	eef1 fa10 	vmrs	APSR_nzcv, fpscr
 80012ce:	dd07      	ble.n	80012e0 <BMS_UpdateDerived+0x4c>
 80012d0:	687a      	ldr	r2, [r7, #4]
 80012d2:	68fb      	ldr	r3, [r7, #12]
 80012d4:	3302      	adds	r3, #2
 80012d6:	009b      	lsls	r3, r3, #2
 80012d8:	4413      	add	r3, r2
 80012da:	681a      	ldr	r2, [r3, #0]
 80012dc:	687b      	ldr	r3, [r7, #4]
 80012de:	63da      	str	r2, [r3, #60]	@ 0x3c
    if (c->Vg[i] < c->Vmin) c->Vmin = c->Vg[i];
 80012e0:	687a      	ldr	r2, [r7, #4]
 80012e2:	68fb      	ldr	r3, [r7, #12]
 80012e4:	3302      	adds	r3, #2
 80012e6:	009b      	lsls	r3, r3, #2
 80012e8:	4413      	add	r3, r2
 80012ea:	ed93 7a00 	vldr	s14, [r3]
 80012ee:	687b      	ldr	r3, [r7, #4]
 80012f0:	edd3 7a10 	vldr	s15, [r3, #64]	@ 0x40
 80012f4:	eeb4 7ae7 	vcmpe.f32	s14, s15
 80012f8:	eef1 fa10 	vmrs	APSR_nzcv, fpscr
 80012fc:	d507      	bpl.n	800130e <BMS_UpdateDerived+0x7a>
 80012fe:	687a      	ldr	r2, [r7, #4]
 8001300:	68fb      	ldr	r3, [r7, #12]
 8001302:	3302      	adds	r3, #2
 8001304:	009b      	lsls	r3, r3, #2
 8001306:	4413      	add	r3, r2
 8001308:	681a      	ldr	r2, [r3, #0]
 800130a:	687b      	ldr	r3, [r7, #4]
 800130c:	641a      	str	r2, [r3, #64]	@ 0x40
  for (int i = 1; i < 4; i++) {
 800130e:	68fb      	ldr	r3, [r7, #12]
 8001310:	3301      	adds	r3, #1
 8001312:	60fb      	str	r3, [r7, #12]
 8001314:	68fb      	ldr	r3, [r7, #12]
 8001316:	2b03      	cmp	r3, #3
 8001318:	ddcb      	ble.n	80012b2 <BMS_UpdateDerived+0x1e>
  }

  c->dV = c->Vmax - c->Vmin;
 800131a:	687b      	ldr	r3, [r7, #4]
 800131c:	ed93 7a0f 	vldr	s14, [r3, #60]	@ 0x3c
 8001320:	687b      	ldr	r3, [r7, #4]
 8001322:	edd3 7a10 	vldr	s15, [r3, #64]	@ 0x40
 8001326:	ee77 7a67 	vsub.f32	s15, s14, s15
 800132a:	687b      	ldr	r3, [r7, #4]
 800132c:	edc3 7a11 	vstr	s15, [r3, #68]	@ 0x44
}
 8001330:	bf00      	nop
 8001332:	3714      	adds	r7, #20
 8001334:	46bd      	mov	sp, r7
 8001336:	f85d 7b04 	ldr.w	r7, [sp], #4
 800133a:	4770      	bx	lr

0800133c <BMS_Step>:

void BMS_Step(bms_ctx_t *c, uint32_t now_ms) {
 800133c:	b580      	push	{r7, lr}
 800133e:	b082      	sub	sp, #8
 8001340:	af00      	add	r7, sp, #0
 8001342:	6078      	str	r0, [r7, #4]
 8001344:	6039      	str	r1, [r7, #0]
  (void)now_ms;

  switch (c->state) {
 8001346:	687b      	ldr	r3, [r7, #4]
 8001348:	781b      	ldrb	r3, [r3, #0]
 800134a:	2b06      	cmp	r3, #6
 800134c:	f200 809b 	bhi.w	8001486 <BMS_Step+0x14a>
 8001350:	a201      	add	r2, pc, #4	@ (adr r2, 8001358 <BMS_Step+0x1c>)
 8001352:	f852 f023 	ldr.w	pc, [r2, r3, lsl #2]
 8001356:	bf00      	nop
 8001358:	08001375 	.word	0x08001375
 800135c:	08001381 	.word	0x08001381
 8001360:	0800138d 	.word	0x0800138d
 8001364:	080013b7 	.word	0x080013b7
 8001368:	080013f9 	.word	0x080013f9
 800136c:	08001435 	.word	0x08001435
 8001370:	08001481 	.word	0x08001481

    case BMS_INIT:
      all_off();
 8001374:	f7ff fe9e 	bl	80010b4 <all_off>
      c->state = BMS_STANDBY;
 8001378:	687b      	ldr	r3, [r7, #4]
 800137a:	2201      	movs	r2, #1
 800137c:	701a      	strb	r2, [r3, #0]
      break;
 800137e:	e093      	b.n	80014a8 <BMS_Step+0x16c>

    case BMS_STANDBY:
      all_off();
 8001380:	f7ff fe98 	bl	80010b4 <all_off>
      c->state = BMS_MEASURE;
 8001384:	687b      	ldr	r3, [r7, #4]
 8001386:	2202      	movs	r2, #2
 8001388:	701a      	strb	r2, [r3, #0]
      break;
 800138a:	e08d      	b.n	80014a8 <BMS_Step+0x16c>

    case BMS_MEASURE:
      BMS_UpdateDerived(c);
 800138c:	6878      	ldr	r0, [r7, #4]
 800138e:	f7ff ff81 	bl	8001294 <BMS_UpdateDerived>
      check_faults(c);
 8001392:	6878      	ldr	r0, [r7, #4]
 8001394:	f7ff fe98 	bl	80010c8 <check_faults>
      if (c->state == BMS_FAULT) {
 8001398:	687b      	ldr	r3, [r7, #4]
 800139a:	781b      	ldrb	r3, [r3, #0]
 800139c:	2b06      	cmp	r3, #6
 800139e:	d102      	bne.n	80013a6 <BMS_Step+0x6a>
        all_off();
 80013a0:	f7ff fe88 	bl	80010b4 <all_off>
        break;
 80013a4:	e080      	b.n	80014a8 <BMS_Step+0x16c>
      }

      c->state = mode_select(c);
 80013a6:	6878      	ldr	r0, [r7, #4]
 80013a8:	f7ff ff06 	bl	80011b8 <mode_select>
 80013ac:	4603      	mov	r3, r0
 80013ae:	461a      	mov	r2, r3
 80013b0:	687b      	ldr	r3, [r7, #4]
 80013b2:	701a      	strb	r2, [r3, #0]
      break;
 80013b4:	e078      	b.n	80014a8 <BMS_Step+0x16c>

    case BMS_CHARGE:
      BMS_HW_SetChargeEnable(true);
 80013b6:	2001      	movs	r0, #1
 80013b8:	f000 f92c 	bl	8001614 <BMS_HW_SetChargeEnable>
      BMS_HW_SetDischargeEnable(false);
 80013bc:	2000      	movs	r0, #0
 80013be:	f000 f93b 	bl	8001638 <BMS_HW_SetDischargeEnable>

      BMS_UpdateDerived(c);
 80013c2:	6878      	ldr	r0, [r7, #4]
 80013c4:	f7ff ff66 	bl	8001294 <BMS_UpdateDerived>
      check_faults(c);
 80013c8:	6878      	ldr	r0, [r7, #4]
 80013ca:	f7ff fe7d 	bl	80010c8 <check_faults>
      if (c->state == BMS_FAULT) {
 80013ce:	687b      	ldr	r3, [r7, #4]
 80013d0:	781b      	ldrb	r3, [r3, #0]
 80013d2:	2b06      	cmp	r3, #6
 80013d4:	d102      	bne.n	80013dc <BMS_Step+0xa0>
        all_off();
 80013d6:	f7ff fe6d 	bl	80010b4 <all_off>
        break;
 80013da:	e065      	b.n	80014a8 <BMS_Step+0x16c>
      }

      /* Stay in charge while charger remains present */
      if (!c->charger_connected) {
 80013dc:	687b      	ldr	r3, [r7, #4]
 80013de:	f893 3048 	ldrb.w	r3, [r3, #72]	@ 0x48
 80013e2:	f083 0301 	eor.w	r3, r3, #1
 80013e6:	b2db      	uxtb	r3, r3
 80013e8:	2b00      	cmp	r3, #0
 80013ea:	d058      	beq.n	800149e <BMS_Step+0x162>
        all_off();
 80013ec:	f7ff fe62 	bl	80010b4 <all_off>
        c->state = BMS_MEASURE;
 80013f0:	687b      	ldr	r3, [r7, #4]
 80013f2:	2202      	movs	r2, #2
 80013f4:	701a      	strb	r2, [r3, #0]
      }
      break;
 80013f6:	e052      	b.n	800149e <BMS_Step+0x162>

    case BMS_DISCHARGE:
      BMS_HW_SetChargeEnable(false);
 80013f8:	2000      	movs	r0, #0
 80013fa:	f000 f90b 	bl	8001614 <BMS_HW_SetChargeEnable>
      BMS_HW_SetDischargeEnable(true);
 80013fe:	2001      	movs	r0, #1
 8001400:	f000 f91a 	bl	8001638 <BMS_HW_SetDischargeEnable>

      BMS_UpdateDerived(c);
 8001404:	6878      	ldr	r0, [r7, #4]
 8001406:	f7ff ff45 	bl	8001294 <BMS_UpdateDerived>
      check_faults(c);
 800140a:	6878      	ldr	r0, [r7, #4]
 800140c:	f7ff fe5c 	bl	80010c8 <check_faults>
      if (c->state == BMS_FAULT) {
 8001410:	687b      	ldr	r3, [r7, #4]
 8001412:	781b      	ldrb	r3, [r3, #0]
 8001414:	2b06      	cmp	r3, #6
 8001416:	d102      	bne.n	800141e <BMS_Step+0xe2>
        all_off();
 8001418:	f7ff fe4c 	bl	80010b4 <all_off>
        break;
 800141c:	e044      	b.n	80014a8 <BMS_Step+0x16c>
      }

      if (c->charger_connected) {
 800141e:	687b      	ldr	r3, [r7, #4]
 8001420:	f893 3048 	ldrb.w	r3, [r3, #72]	@ 0x48
 8001424:	2b00      	cmp	r3, #0
 8001426:	d03c      	beq.n	80014a2 <BMS_Step+0x166>
        all_off();
 8001428:	f7ff fe44 	bl	80010b4 <all_off>
        c->state = BMS_MEASURE;
 800142c:	687b      	ldr	r3, [r7, #4]
 800142e:	2202      	movs	r2, #2
 8001430:	701a      	strb	r2, [r3, #0]
      }
      break;
 8001432:	e036      	b.n	80014a2 <BMS_Step+0x166>

    case BMS_DEEP_DISCHARGE:
      if (!c->deep_mode || c->charger_connected) {
 8001434:	687b      	ldr	r3, [r7, #4]
 8001436:	f893 3049 	ldrb.w	r3, [r3, #73]	@ 0x49
 800143a:	f083 0301 	eor.w	r3, r3, #1
 800143e:	b2db      	uxtb	r3, r3
 8001440:	2b00      	cmp	r3, #0
 8001442:	d104      	bne.n	800144e <BMS_Step+0x112>
 8001444:	687b      	ldr	r3, [r7, #4]
 8001446:	f893 3048 	ldrb.w	r3, [r3, #72]	@ 0x48
 800144a:	2b00      	cmp	r3, #0
 800144c:	d005      	beq.n	800145a <BMS_Step+0x11e>
        all_off();
 800144e:	f7ff fe31 	bl	80010b4 <all_off>
        c->state = BMS_MEASURE;
 8001452:	687b      	ldr	r3, [r7, #4]
 8001454:	2202      	movs	r2, #2
 8001456:	701a      	strb	r2, [r3, #0]
        break;
 8001458:	e026      	b.n	80014a8 <BMS_Step+0x16c>
      }

      BMS_HW_SetChargeEnable(false);
 800145a:	2000      	movs	r0, #0
 800145c:	f000 f8da 	bl	8001614 <BMS_HW_SetChargeEnable>
      BMS_HW_SetDischargeEnable(false);
 8001460:	2000      	movs	r0, #0
 8001462:	f000 f8e9 	bl	8001638 <BMS_HW_SetDischargeEnable>

      BMS_UpdateDerived(c);
 8001466:	6878      	ldr	r0, [r7, #4]
 8001468:	f7ff ff14 	bl	8001294 <BMS_UpdateDerived>
      check_faults(c);
 800146c:	6878      	ldr	r0, [r7, #4]
 800146e:	f7ff fe2b 	bl	80010c8 <check_faults>
      if (c->state == BMS_FAULT) {
 8001472:	687b      	ldr	r3, [r7, #4]
 8001474:	781b      	ldrb	r3, [r3, #0]
 8001476:	2b06      	cmp	r3, #6
 8001478:	d115      	bne.n	80014a6 <BMS_Step+0x16a>
        all_off();
 800147a:	f7ff fe1b 	bl	80010b4 <all_off>
        break;
 800147e:	e013      	b.n	80014a8 <BMS_Step+0x16c>
      }
      break;

    case BMS_FAULT:
      all_off();
 8001480:	f7ff fe18 	bl	80010b4 <all_off>
      break;
 8001484:	e010      	b.n	80014a8 <BMS_Step+0x16c>

    default:
      all_off();
 8001486:	f7ff fe15 	bl	80010b4 <all_off>
      c->faults |= FAULT_SENSOR;
 800148a:	687b      	ldr	r3, [r7, #4]
 800148c:	685b      	ldr	r3, [r3, #4]
 800148e:	f043 0210 	orr.w	r2, r3, #16
 8001492:	687b      	ldr	r3, [r7, #4]
 8001494:	605a      	str	r2, [r3, #4]
      c->state = BMS_FAULT;
 8001496:	687b      	ldr	r3, [r7, #4]
 8001498:	2206      	movs	r2, #6
 800149a:	701a      	strb	r2, [r3, #0]
      break;
 800149c:	e004      	b.n	80014a8 <BMS_Step+0x16c>
      break;
 800149e:	bf00      	nop
 80014a0:	e002      	b.n	80014a8 <BMS_Step+0x16c>
      break;
 80014a2:	bf00      	nop
 80014a4:	e000      	b.n	80014a8 <BMS_Step+0x16c>
      break;
 80014a6:	bf00      	nop
  }
}
 80014a8:	bf00      	nop
 80014aa:	3708      	adds	r7, #8
 80014ac:	46bd      	mov	sp, r7
 80014ae:	bd80      	pop	{r7, pc}

080014b0 <gpio_pin_output>:
#define DSG_PIN  7U

// Nucleo USER button (B1)
#define USER_BTN_PIN 13U

static inline void gpio_pin_output(GPIO_TypeDef *GPIOx, uint32_t pin) {
 80014b0:	b480      	push	{r7}
 80014b2:	b083      	sub	sp, #12
 80014b4:	af00      	add	r7, sp, #0
 80014b6:	6078      	str	r0, [r7, #4]
 80014b8:	6039      	str	r1, [r7, #0]
  GPIOx->MODER &= ~(3U << (pin * 2U));
 80014ba:	687b      	ldr	r3, [r7, #4]
 80014bc:	681a      	ldr	r2, [r3, #0]
 80014be:	683b      	ldr	r3, [r7, #0]
 80014c0:	005b      	lsls	r3, r3, #1
 80014c2:	2103      	movs	r1, #3
 80014c4:	fa01 f303 	lsl.w	r3, r1, r3
 80014c8:	43db      	mvns	r3, r3
 80014ca:	401a      	ands	r2, r3
 80014cc:	687b      	ldr	r3, [r7, #4]
 80014ce:	601a      	str	r2, [r3, #0]
  GPIOx->MODER |=  (1U << (pin * 2U));   // output
 80014d0:	687b      	ldr	r3, [r7, #4]
 80014d2:	681a      	ldr	r2, [r3, #0]
 80014d4:	683b      	ldr	r3, [r7, #0]
 80014d6:	005b      	lsls	r3, r3, #1
 80014d8:	2101      	movs	r1, #1
 80014da:	fa01 f303 	lsl.w	r3, r1, r3
 80014de:	431a      	orrs	r2, r3
 80014e0:	687b      	ldr	r3, [r7, #4]
 80014e2:	601a      	str	r2, [r3, #0]

  GPIOx->OTYPER &= ~(1U << pin);         // push-pull
 80014e4:	687b      	ldr	r3, [r7, #4]
 80014e6:	685a      	ldr	r2, [r3, #4]
 80014e8:	2101      	movs	r1, #1
 80014ea:	683b      	ldr	r3, [r7, #0]
 80014ec:	fa01 f303 	lsl.w	r3, r1, r3
 80014f0:	43db      	mvns	r3, r3
 80014f2:	401a      	ands	r2, r3
 80014f4:	687b      	ldr	r3, [r7, #4]
 80014f6:	605a      	str	r2, [r3, #4]
  GPIOx->PUPDR  &= ~(3U << (pin * 2U));  // no pull
 80014f8:	687b      	ldr	r3, [r7, #4]
 80014fa:	68da      	ldr	r2, [r3, #12]
 80014fc:	683b      	ldr	r3, [r7, #0]
 80014fe:	005b      	lsls	r3, r3, #1
 8001500:	2103      	movs	r1, #3
 8001502:	fa01 f303 	lsl.w	r3, r1, r3
 8001506:	43db      	mvns	r3, r3
 8001508:	401a      	ands	r2, r3
 800150a:	687b      	ldr	r3, [r7, #4]
 800150c:	60da      	str	r2, [r3, #12]

  GPIOx->OSPEEDR &= ~(3U << (pin * 2U));
 800150e:	687b      	ldr	r3, [r7, #4]
 8001510:	689a      	ldr	r2, [r3, #8]
 8001512:	683b      	ldr	r3, [r7, #0]
 8001514:	005b      	lsls	r3, r3, #1
 8001516:	2103      	movs	r1, #3
 8001518:	fa01 f303 	lsl.w	r3, r1, r3
 800151c:	43db      	mvns	r3, r3
 800151e:	401a      	ands	r2, r3
 8001520:	687b      	ldr	r3, [r7, #4]
 8001522:	609a      	str	r2, [r3, #8]
  GPIOx->OSPEEDR |=  (1U << (pin * 2U)); // medium speed
 8001524:	687b      	ldr	r3, [r7, #4]
 8001526:	689a      	ldr	r2, [r3, #8]
 8001528:	683b      	ldr	r3, [r7, #0]
 800152a:	005b      	lsls	r3, r3, #1
 800152c:	2101      	movs	r1, #1
 800152e:	fa01 f303 	lsl.w	r3, r1, r3
 8001532:	431a      	orrs	r2, r3
 8001534:	687b      	ldr	r3, [r7, #4]
 8001536:	609a      	str	r2, [r3, #8]
}
 8001538:	bf00      	nop
 800153a:	370c      	adds	r7, #12
 800153c:	46bd      	mov	sp, r7
 800153e:	f85d 7b04 	ldr.w	r7, [sp], #4
 8001542:	4770      	bx	lr

08001544 <gpio_pin_input_pullup>:

static inline void gpio_pin_input_pullup(GPIO_TypeDef *GPIOx, uint32_t pin) {
 8001544:	b480      	push	{r7}
 8001546:	b083      	sub	sp, #12
 8001548:	af00      	add	r7, sp, #0
 800154a:	6078      	str	r0, [r7, #4]
 800154c:	6039      	str	r1, [r7, #0]
  GPIOx->MODER &= ~(3U << (pin * 2U));   // input
 800154e:	687b      	ldr	r3, [r7, #4]
 8001550:	681a      	ldr	r2, [r3, #0]
 8001552:	683b      	ldr	r3, [r7, #0]
 8001554:	005b      	lsls	r3, r3, #1
 8001556:	2103      	movs	r1, #3
 8001558:	fa01 f303 	lsl.w	r3, r1, r3
 800155c:	43db      	mvns	r3, r3
 800155e:	401a      	ands	r2, r3
 8001560:	687b      	ldr	r3, [r7, #4]
 8001562:	601a      	str	r2, [r3, #0]
  GPIOx->PUPDR &= ~(3U << (pin * 2U));
 8001564:	687b      	ldr	r3, [r7, #4]
 8001566:	68da      	ldr	r2, [r3, #12]
 8001568:	683b      	ldr	r3, [r7, #0]
 800156a:	005b      	lsls	r3, r3, #1
 800156c:	2103      	movs	r1, #3
 800156e:	fa01 f303 	lsl.w	r3, r1, r3
 8001572:	43db      	mvns	r3, r3
 8001574:	401a      	ands	r2, r3
 8001576:	687b      	ldr	r3, [r7, #4]
 8001578:	60da      	str	r2, [r3, #12]
  GPIOx->PUPDR |=  (1U << (pin * 2U));   // pull-up
 800157a:	687b      	ldr	r3, [r7, #4]
 800157c:	68da      	ldr	r2, [r3, #12]
 800157e:	683b      	ldr	r3, [r7, #0]
 8001580:	005b      	lsls	r3, r3, #1
 8001582:	2101      	movs	r1, #1
 8001584:	fa01 f303 	lsl.w	r3, r1, r3
 8001588:	431a      	orrs	r2, r3
 800158a:	687b      	ldr	r3, [r7, #4]
 800158c:	60da      	str	r2, [r3, #12]
}
 800158e:	bf00      	nop
 8001590:	370c      	adds	r7, #12
 8001592:	46bd      	mov	sp, r7
 8001594:	f85d 7b04 	ldr.w	r7, [sp], #4
 8001598:	4770      	bx	lr

0800159a <pin_write>:

static inline void pin_write(GPIO_TypeDef *GPIOx, uint32_t pin, bool on) {
 800159a:	b480      	push	{r7}
 800159c:	b085      	sub	sp, #20
 800159e:	af00      	add	r7, sp, #0
 80015a0:	60f8      	str	r0, [r7, #12]
 80015a2:	60b9      	str	r1, [r7, #8]
 80015a4:	4613      	mov	r3, r2
 80015a6:	71fb      	strb	r3, [r7, #7]
  if (on) GPIOx->BSRR = (1U << pin);
 80015a8:	79fb      	ldrb	r3, [r7, #7]
 80015aa:	2b00      	cmp	r3, #0
 80015ac:	d005      	beq.n	80015ba <pin_write+0x20>
 80015ae:	2201      	movs	r2, #1
 80015b0:	68bb      	ldr	r3, [r7, #8]
 80015b2:	409a      	lsls	r2, r3
 80015b4:	68fb      	ldr	r3, [r7, #12]
 80015b6:	619a      	str	r2, [r3, #24]
  else    GPIOx->BSRR = (1U << (pin + 16U));
}
 80015b8:	e005      	b.n	80015c6 <pin_write+0x2c>
  else    GPIOx->BSRR = (1U << (pin + 16U));
 80015ba:	68bb      	ldr	r3, [r7, #8]
 80015bc:	3310      	adds	r3, #16
 80015be:	2201      	movs	r2, #1
 80015c0:	409a      	lsls	r2, r3
 80015c2:	68fb      	ldr	r3, [r7, #12]
 80015c4:	619a      	str	r2, [r3, #24]
}
 80015c6:	bf00      	nop
 80015c8:	3714      	adds	r7, #20
 80015ca:	46bd      	mov	sp, r7
 80015cc:	f85d 7b04 	ldr.w	r7, [sp], #4
 80015d0:	4770      	bx	lr
	...

080015d4 <BMS_HW_Init>:

void BMS_HW_Init(void) {
 80015d4:	b580      	push	{r7, lr}
 80015d6:	af00      	add	r7, sp, #0
  RCC->AHB1ENR |= GPIOCEN;
 80015d8:	4b0c      	ldr	r3, [pc, #48]	@ (800160c <BMS_HW_Init+0x38>)
 80015da:	6b1b      	ldr	r3, [r3, #48]	@ 0x30
 80015dc:	4a0b      	ldr	r2, [pc, #44]	@ (800160c <BMS_HW_Init+0x38>)
 80015de:	f043 0304 	orr.w	r3, r3, #4
 80015e2:	6313      	str	r3, [r2, #48]	@ 0x30

  gpio_pin_output(GPIOC, CHG_PIN);
 80015e4:	2106      	movs	r1, #6
 80015e6:	480a      	ldr	r0, [pc, #40]	@ (8001610 <BMS_HW_Init+0x3c>)
 80015e8:	f7ff ff62 	bl	80014b0 <gpio_pin_output>
  gpio_pin_output(GPIOC, DSG_PIN);
 80015ec:	2107      	movs	r1, #7
 80015ee:	4808      	ldr	r0, [pc, #32]	@ (8001610 <BMS_HW_Init+0x3c>)
 80015f0:	f7ff ff5e 	bl	80014b0 <gpio_pin_output>
  gpio_pin_input_pullup(GPIOC, USER_BTN_PIN);
 80015f4:	210d      	movs	r1, #13
 80015f6:	4806      	ldr	r0, [pc, #24]	@ (8001610 <BMS_HW_Init+0x3c>)
 80015f8:	f7ff ffa4 	bl	8001544 <gpio_pin_input_pullup>

  BMS_HW_SetChargeEnable(false);
 80015fc:	2000      	movs	r0, #0
 80015fe:	f000 f809 	bl	8001614 <BMS_HW_SetChargeEnable>
  BMS_HW_SetDischargeEnable(false);
 8001602:	2000      	movs	r0, #0
 8001604:	f000 f818 	bl	8001638 <BMS_HW_SetDischargeEnable>
}
 8001608:	bf00      	nop
 800160a:	bd80      	pop	{r7, pc}
 800160c:	40023800 	.word	0x40023800
 8001610:	40020800 	.word	0x40020800

08001614 <BMS_HW_SetChargeEnable>:

void BMS_HW_SetChargeEnable(bool on) {
 8001614:	b580      	push	{r7, lr}
 8001616:	b082      	sub	sp, #8
 8001618:	af00      	add	r7, sp, #0
 800161a:	4603      	mov	r3, r0
 800161c:	71fb      	strb	r3, [r7, #7]
  pin_write(GPIOC, CHG_PIN, on);
 800161e:	79fb      	ldrb	r3, [r7, #7]
 8001620:	461a      	mov	r2, r3
 8001622:	2106      	movs	r1, #6
 8001624:	4803      	ldr	r0, [pc, #12]	@ (8001634 <BMS_HW_SetChargeEnable+0x20>)
 8001626:	f7ff ffb8 	bl	800159a <pin_write>
}
 800162a:	bf00      	nop
 800162c:	3708      	adds	r7, #8
 800162e:	46bd      	mov	sp, r7
 8001630:	bd80      	pop	{r7, pc}
 8001632:	bf00      	nop
 8001634:	40020800 	.word	0x40020800

08001638 <BMS_HW_SetDischargeEnable>:

void BMS_HW_SetDischargeEnable(bool on) {
 8001638:	b580      	push	{r7, lr}
 800163a:	b082      	sub	sp, #8
 800163c:	af00      	add	r7, sp, #0
 800163e:	4603      	mov	r3, r0
 8001640:	71fb      	strb	r3, [r7, #7]
  pin_write(GPIOC, DSG_PIN, on);
 8001642:	79fb      	ldrb	r3, [r7, #7]
 8001644:	461a      	mov	r2, r3
 8001646:	2107      	movs	r1, #7
 8001648:	4803      	ldr	r0, [pc, #12]	@ (8001658 <BMS_HW_SetDischargeEnable+0x20>)
 800164a:	f7ff ffa6 	bl	800159a <pin_write>
}
 800164e:	bf00      	nop
 8001650:	3708      	adds	r7, #8
 8001652:	46bd      	mov	sp, r7
 8001654:	bd80      	pop	{r7, pc}
 8001656:	bf00      	nop
 8001658:	40020800 	.word	0x40020800

0800165c <BMS_HW_UserButtonPressed>:

bool BMS_HW_UserButtonPressed(void) {
 800165c:	b480      	push	{r7}
 800165e:	af00      	add	r7, sp, #0
  // Nucleo USER button on PC13: pressed = LOW, released = HIGH
  return ((GPIOC->IDR & (1U << USER_BTN_PIN)) == 0U);
 8001660:	4b06      	ldr	r3, [pc, #24]	@ (800167c <BMS_HW_UserButtonPressed+0x20>)
 8001662:	691b      	ldr	r3, [r3, #16]
 8001664:	f403 5300 	and.w	r3, r3, #8192	@ 0x2000
 8001668:	2b00      	cmp	r3, #0
 800166a:	bf0c      	ite	eq
 800166c:	2301      	moveq	r3, #1
 800166e:	2300      	movne	r3, #0
 8001670:	b2db      	uxtb	r3, r3
}
 8001672:	4618      	mov	r0, r3
 8001674:	46bd      	mov	sp, r7
 8001676:	f85d 7b04 	ldr.w	r7, [sp], #4
 800167a:	4770      	bx	lr
 800167c:	40020800 	.word	0x40020800

08001680 <__NVIC_SystemReset>:
/**
  \brief   System Reset
  \details Initiates a system reset request to reset the MCU.
 */
__NO_RETURN __STATIC_INLINE void __NVIC_SystemReset(void)
{
 8001680:	b480      	push	{r7}
 8001682:	af00      	add	r7, sp, #0
  \details Acts as a special kind of Data Memory Barrier.
           It completes when all explicit memory accesses before this instruction complete.
 */
__STATIC_FORCEINLINE void __DSB(void)
{
  __ASM volatile ("dsb 0xF":::"memory");
 8001684:	f3bf 8f4f 	dsb	sy
}
 8001688:	bf00      	nop
  __DSB();                                                          /* Ensure all outstanding memory accesses included
                                                                       buffered write are completed before reset */
  SCB->AIRCR  = (uint32_t)((0x5FAUL << SCB_AIRCR_VECTKEY_Pos)    |
                           (SCB->AIRCR & SCB_AIRCR_PRIGROUP_Msk) |
 800168a:	4b06      	ldr	r3, [pc, #24]	@ (80016a4 <__NVIC_SystemReset+0x24>)
 800168c:	68db      	ldr	r3, [r3, #12]
 800168e:	f403 62e0 	and.w	r2, r3, #1792	@ 0x700
  SCB->AIRCR  = (uint32_t)((0x5FAUL << SCB_AIRCR_VECTKEY_Pos)    |
 8001692:	4904      	ldr	r1, [pc, #16]	@ (80016a4 <__NVIC_SystemReset+0x24>)
 8001694:	4b04      	ldr	r3, [pc, #16]	@ (80016a8 <__NVIC_SystemReset+0x28>)
 8001696:	4313      	orrs	r3, r2
 8001698:	60cb      	str	r3, [r1, #12]
  __ASM volatile ("dsb 0xF":::"memory");
 800169a:	f3bf 8f4f 	dsb	sy
}
 800169e:	bf00      	nop
                            SCB_AIRCR_SYSRESETREQ_Msk    );         /* Keep priority group unchanged */
  __DSB();                                                          /* Ensure completion of memory access */

  for(;;)                                                           /* wait until reset */
  {
    __NOP();
 80016a0:	bf00      	nop
 80016a2:	e7fd      	b.n	80016a0 <__NVIC_SystemReset+0x20>
 80016a4:	e000ed00 	.word	0xe000ed00
 80016a8:	05fa0004 	.word	0x05fa0004

080016ac <clock_init_minimal>:
#include <math.h>
#include <string.h>
#include "core_cm4.h"
#include "uart_vcp.h"

static void clock_init_minimal(void) {}
 80016ac:	b480      	push	{r7}
 80016ae:	af00      	add	r7, sp, #0
 80016b0:	bf00      	nop
 80016b2:	46bd      	mov	sp, r7
 80016b4:	f85d 7b04 	ldr.w	r7, [sp], #4
 80016b8:	4770      	bx	lr
	...

080016bc <adc_raw_to_v_local>:

/* Runtime-configurable charger-detect thresholds */
static float g_chg_det_on_v  = CHG_DET_ON_V;
static float g_chg_det_off_v = CHG_DET_OFF_V;

static inline float adc_raw_to_v_local(uint16_t raw){
 80016bc:	b480      	push	{r7}
 80016be:	b083      	sub	sp, #12
 80016c0:	af00      	add	r7, sp, #0
 80016c2:	4603      	mov	r3, r0
 80016c4:	80fb      	strh	r3, [r7, #6]
  return (raw * VREF) / ADCMAX;
 80016c6:	88fb      	ldrh	r3, [r7, #6]
 80016c8:	ee07 3a90 	vmov	s15, r3
 80016cc:	eef8 7ae7 	vcvt.f32.s32	s15, s15
 80016d0:	ed9f 7a08 	vldr	s14, [pc, #32]	@ 80016f4 <adc_raw_to_v_local+0x38>
 80016d4:	ee67 7a87 	vmul.f32	s15, s15, s14
 80016d8:	ed9f 7a07 	vldr	s14, [pc, #28]	@ 80016f8 <adc_raw_to_v_local+0x3c>
 80016dc:	eec7 6a87 	vdiv.f32	s13, s15, s14
 80016e0:	eef0 7a66 	vmov.f32	s15, s13
}
 80016e4:	eeb0 0a67 	vmov.f32	s0, s15
 80016e8:	370c      	adds	r7, #12
 80016ea:	46bd      	mov	sp, r7
 80016ec:	f85d 7b04 	ldr.w	r7, [sp], #4
 80016f0:	4770      	bx	lr
 80016f2:	bf00      	nop
 80016f4:	40533333 	.word	0x40533333
 80016f8:	457ff000 	.word	0x457ff000

080016fc <tap1_from_adc>:
#define V3_R2_OHMS   50000.0f

#define V4_R1_OHMS  180000.0f
#define V4_R2_OHMS   39000.0f

static inline float tap1_from_adc(float vadc){
 80016fc:	b480      	push	{r7}
 80016fe:	b083      	sub	sp, #12
 8001700:	af00      	add	r7, sp, #0
 8001702:	ed87 0a01 	vstr	s0, [r7, #4]
  return vadc * ((V1_R1_OHMS + V1_R2_OHMS) / V1_R2_OHMS);
 8001706:	edd7 7a01 	vldr	s15, [r7, #4]
 800170a:	ed9f 7a05 	vldr	s14, [pc, #20]	@ 8001720 <tap1_from_adc+0x24>
 800170e:	ee67 7a87 	vmul.f32	s15, s15, s14
}
 8001712:	eeb0 0a67 	vmov.f32	s0, s15
 8001716:	370c      	adds	r7, #12
 8001718:	46bd      	mov	sp, r7
 800171a:	f85d 7b04 	ldr.w	r7, [sp], #4
 800171e:	4770      	bx	lr
 8001720:	3faa3d71 	.word	0x3faa3d71

08001724 <tap2_from_adc>:

static inline float tap2_from_adc(float vadc){
 8001724:	b480      	push	{r7}
 8001726:	b083      	sub	sp, #12
 8001728:	af00      	add	r7, sp, #0
 800172a:	ed87 0a01 	vstr	s0, [r7, #4]
  return vadc * ((V2_R1_OHMS + V2_R2_OHMS) / V2_R2_OHMS);
 800172e:	edd7 7a01 	vldr	s15, [r7, #4]
 8001732:	ed9f 7a05 	vldr	s14, [pc, #20]	@ 8001748 <tap2_from_adc+0x24>
 8001736:	ee67 7a87 	vmul.f32	s15, s15, s14
}
 800173a:	eeb0 0a67 	vmov.f32	s0, s15
 800173e:	370c      	adds	r7, #12
 8001740:	46bd      	mov	sp, r7
 8001742:	f85d 7b04 	ldr.w	r7, [sp], #4
 8001746:	4770      	bx	lr
 8001748:	40324925 	.word	0x40324925

0800174c <tap3_from_adc>:

static inline float tap3_from_adc(float vadc){
 800174c:	b480      	push	{r7}
 800174e:	b083      	sub	sp, #12
 8001750:	af00      	add	r7, sp, #0
 8001752:	ed87 0a01 	vstr	s0, [r7, #4]
  return vadc * ((V3_R1_OHMS + V3_R2_OHMS) / V3_R2_OHMS);
 8001756:	edd7 7a01 	vldr	s15, [r7, #4]
 800175a:	eeb1 7a00 	vmov.f32	s14, #16	@ 0x40800000  4.0
 800175e:	ee67 7a87 	vmul.f32	s15, s15, s14
}
 8001762:	eeb0 0a67 	vmov.f32	s0, s15
 8001766:	370c      	adds	r7, #12
 8001768:	46bd      	mov	sp, r7
 800176a:	f85d 7b04 	ldr.w	r7, [sp], #4
 800176e:	4770      	bx	lr

08001770 <tap4_from_adc>:

static inline float tap4_from_adc(float vadc){
 8001770:	b480      	push	{r7}
 8001772:	b083      	sub	sp, #12
 8001774:	af00      	add	r7, sp, #0
 8001776:	ed87 0a01 	vstr	s0, [r7, #4]
  return vadc * ((V4_R1_OHMS + V4_R2_OHMS) / V4_R2_OHMS);
 800177a:	edd7 7a01 	vldr	s15, [r7, #4]
 800177e:	ed9f 7a05 	vldr	s14, [pc, #20]	@ 8001794 <tap4_from_adc+0x24>
 8001782:	ee67 7a87 	vmul.f32	s15, s15, s14
}
 8001786:	eeb0 0a67 	vmov.f32	s0, s15
 800178a:	370c      	adds	r7, #12
 800178c:	46bd      	mov	sp, r7
 800178e:	f85d 7b04 	ldr.w	r7, [sp], #4
 8001792:	4770      	bx	lr
 8001794:	40b3b13b 	.word	0x40b3b13b

08001798 <ntc_resistance_from_v>:
#define NTC_R0_OHMS     10000.0f
#define NTC_BETA_K      3380.0f
#define T0_K            298.15f
#define TH_RFIXED_OHMS  39000.0f

static inline float ntc_resistance_from_v(float v){
 8001798:	b480      	push	{r7}
 800179a:	b083      	sub	sp, #12
 800179c:	af00      	add	r7, sp, #0
 800179e:	ed87 0a01 	vstr	s0, [r7, #4]
  if (v < 0.001f) v = 0.001f;
 80017a2:	edd7 7a01 	vldr	s15, [r7, #4]
 80017a6:	ed9f 7a14 	vldr	s14, [pc, #80]	@ 80017f8 <ntc_resistance_from_v+0x60>
 80017aa:	eef4 7ac7 	vcmpe.f32	s15, s14
 80017ae:	eef1 fa10 	vmrs	APSR_nzcv, fpscr
 80017b2:	d501      	bpl.n	80017b8 <ntc_resistance_from_v+0x20>
 80017b4:	4b11      	ldr	r3, [pc, #68]	@ (80017fc <ntc_resistance_from_v+0x64>)
 80017b6:	607b      	str	r3, [r7, #4]
  if (v > (VREF - 0.001f)) v = VREF - 0.001f;
 80017b8:	edd7 7a01 	vldr	s15, [r7, #4]
 80017bc:	ed9f 7a10 	vldr	s14, [pc, #64]	@ 8001800 <ntc_resistance_from_v+0x68>
 80017c0:	eef4 7ac7 	vcmpe.f32	s15, s14
 80017c4:	eef1 fa10 	vmrs	APSR_nzcv, fpscr
 80017c8:	dd01      	ble.n	80017ce <ntc_resistance_from_v+0x36>
 80017ca:	4b0e      	ldr	r3, [pc, #56]	@ (8001804 <ntc_resistance_from_v+0x6c>)
 80017cc:	607b      	str	r3, [r7, #4]
  return TH_RFIXED_OHMS * (v / (VREF - v));
 80017ce:	ed9f 7a0e 	vldr	s14, [pc, #56]	@ 8001808 <ntc_resistance_from_v+0x70>
 80017d2:	edd7 7a01 	vldr	s15, [r7, #4]
 80017d6:	ee37 7a67 	vsub.f32	s14, s14, s15
 80017da:	edd7 6a01 	vldr	s13, [r7, #4]
 80017de:	eec6 7a87 	vdiv.f32	s15, s13, s14
 80017e2:	ed9f 7a0a 	vldr	s14, [pc, #40]	@ 800180c <ntc_resistance_from_v+0x74>
 80017e6:	ee67 7a87 	vmul.f32	s15, s15, s14
}
 80017ea:	eeb0 0a67 	vmov.f32	s0, s15
 80017ee:	370c      	adds	r7, #12
 80017f0:	46bd      	mov	sp, r7
 80017f2:	f85d 7b04 	ldr.w	r7, [sp], #4
 80017f6:	4770      	bx	lr
 80017f8:	3a83126f 	.word	0x3a83126f
 80017fc:	3a83126f 	.word	0x3a83126f
 8001800:	405322d1 	.word	0x405322d1
 8001804:	405322d1 	.word	0x405322d1
 8001808:	40533333 	.word	0x40533333
 800180c:	47185800 	.word	0x47185800

08001810 <temp_c_from_adc>:

static inline float temp_c_from_adc(float vadc){
 8001810:	b580      	push	{r7, lr}
 8001812:	b086      	sub	sp, #24
 8001814:	af00      	add	r7, sp, #0
 8001816:	ed87 0a01 	vstr	s0, [r7, #4]
  float r = ntc_resistance_from_v(vadc);
 800181a:	ed97 0a01 	vldr	s0, [r7, #4]
 800181e:	f7ff ffbb 	bl	8001798 <ntc_resistance_from_v>
 8001822:	ed87 0a05 	vstr	s0, [r7, #20]
  float invT = (1.0f / T0_K) + (1.0f / NTC_BETA_K) * logf(r / NTC_R0_OHMS);
 8001826:	edd7 7a05 	vldr	s15, [r7, #20]
 800182a:	eddf 6a13 	vldr	s13, [pc, #76]	@ 8001878 <temp_c_from_adc+0x68>
 800182e:	ee87 7aa6 	vdiv.f32	s14, s15, s13
 8001832:	eeb0 0a47 	vmov.f32	s0, s14
 8001836:	f006 f833 	bl	80078a0 <logf>
 800183a:	eef0 7a40 	vmov.f32	s15, s0
 800183e:	ed9f 7a0f 	vldr	s14, [pc, #60]	@ 800187c <temp_c_from_adc+0x6c>
 8001842:	ee67 7a87 	vmul.f32	s15, s15, s14
 8001846:	ed9f 7a0e 	vldr	s14, [pc, #56]	@ 8001880 <temp_c_from_adc+0x70>
 800184a:	ee77 7a87 	vadd.f32	s15, s15, s14
 800184e:	edc7 7a04 	vstr	s15, [r7, #16]
  float Tk = 1.0f / invT;
 8001852:	eef7 6a00 	vmov.f32	s13, #112	@ 0x3f800000  1.0
 8001856:	ed97 7a04 	vldr	s14, [r7, #16]
 800185a:	eec6 7a87 	vdiv.f32	s15, s13, s14
 800185e:	edc7 7a03 	vstr	s15, [r7, #12]
  return Tk - 273.15f;
 8001862:	edd7 7a03 	vldr	s15, [r7, #12]
 8001866:	ed9f 7a07 	vldr	s14, [pc, #28]	@ 8001884 <temp_c_from_adc+0x74>
 800186a:	ee77 7ac7 	vsub.f32	s15, s15, s14
}
 800186e:	eeb0 0a67 	vmov.f32	s0, s15
 8001872:	3718      	adds	r7, #24
 8001874:	46bd      	mov	sp, r7
 8001876:	bd80      	pop	{r7, pc}
 8001878:	461c4000 	.word	0x461c4000
 800187c:	399b1d63 	.word	0x399b1d63
 8001880:	3b5bcf0f 	.word	0x3b5bcf0f
 8001884:	43889333 	.word	0x43889333

08001888 <curr_a_from_adc>:

/* -- Current conversion -- */
#define I_VZERO_V      1.65f
#define I_SENS_V_PER_A 0.1f

static inline float curr_a_from_adc(float vadc){
 8001888:	b480      	push	{r7}
 800188a:	b083      	sub	sp, #12
 800188c:	af00      	add	r7, sp, #0
 800188e:	ed87 0a01 	vstr	s0, [r7, #4]
  return (vadc - I_VZERO_V) / I_SENS_V_PER_A;
 8001892:	edd7 7a01 	vldr	s15, [r7, #4]
 8001896:	ed9f 7a08 	vldr	s14, [pc, #32]	@ 80018b8 <curr_a_from_adc+0x30>
 800189a:	ee77 7ac7 	vsub.f32	s15, s15, s14
 800189e:	ed9f 7a07 	vldr	s14, [pc, #28]	@ 80018bc <curr_a_from_adc+0x34>
 80018a2:	eec7 6a87 	vdiv.f32	s13, s15, s14
 80018a6:	eef0 7a66 	vmov.f32	s15, s13
}
 80018aa:	eeb0 0a67 	vmov.f32	s0, s15
 80018ae:	370c      	adds	r7, #12
 80018b0:	46bd      	mov	sp, r7
 80018b2:	f85d 7b04 	ldr.w	r7, [sp], #4
 80018b6:	4770      	bx	lr
 80018b8:	3fd33333 	.word	0x3fd33333
 80018bc:	3dcccccd 	.word	0x3dcccccd

080018c0 <lp_filter>:

/* -- Simple low-pass filter -- */
static inline float lp_filter(float prev, float input, float alpha) {
 80018c0:	b480      	push	{r7}
 80018c2:	b085      	sub	sp, #20
 80018c4:	af00      	add	r7, sp, #0
 80018c6:	ed87 0a03 	vstr	s0, [r7, #12]
 80018ca:	edc7 0a02 	vstr	s1, [r7, #8]
 80018ce:	ed87 1a01 	vstr	s2, [r7, #4]
  return prev + alpha * (input - prev);
 80018d2:	ed97 7a02 	vldr	s14, [r7, #8]
 80018d6:	edd7 7a03 	vldr	s15, [r7, #12]
 80018da:	ee37 7a67 	vsub.f32	s14, s14, s15
 80018de:	edd7 7a01 	vldr	s15, [r7, #4]
 80018e2:	ee27 7a27 	vmul.f32	s14, s14, s15
 80018e6:	edd7 7a03 	vldr	s15, [r7, #12]
 80018ea:	ee77 7a27 	vadd.f32	s15, s14, s15
}
 80018ee:	eeb0 0a67 	vmov.f32	s0, s15
 80018f2:	3714      	adds	r7, #20
 80018f4:	46bd      	mov	sp, r7
 80018f6:	f85d 7b04 	ldr.w	r7, [sp], #4
 80018fa:	4770      	bx	lr

080018fc <charger_present_update>:

/* -- Charger detect: hysteresis -- */
static bool charger_present_update(bool prev, float vdet) {
 80018fc:	b480      	push	{r7}
 80018fe:	b083      	sub	sp, #12
 8001900:	af00      	add	r7, sp, #0
 8001902:	4603      	mov	r3, r0
 8001904:	ed87 0a00 	vstr	s0, [r7]
 8001908:	71fb      	strb	r3, [r7, #7]
  if (prev) return (vdet >= g_chg_det_off_v);
 800190a:	79fb      	ldrb	r3, [r7, #7]
 800190c:	2b00      	cmp	r3, #0
 800190e:	d00d      	beq.n	800192c <charger_present_update+0x30>
 8001910:	4b10      	ldr	r3, [pc, #64]	@ (8001954 <charger_present_update+0x58>)
 8001912:	edd3 7a00 	vldr	s15, [r3]
 8001916:	ed97 7a00 	vldr	s14, [r7]
 800191a:	eeb4 7ae7 	vcmpe.f32	s14, s15
 800191e:	eef1 fa10 	vmrs	APSR_nzcv, fpscr
 8001922:	bfac      	ite	ge
 8001924:	2301      	movge	r3, #1
 8001926:	2300      	movlt	r3, #0
 8001928:	b2db      	uxtb	r3, r3
 800192a:	e00c      	b.n	8001946 <charger_present_update+0x4a>
  else      return (vdet >= g_chg_det_on_v);
 800192c:	4b0a      	ldr	r3, [pc, #40]	@ (8001958 <charger_present_update+0x5c>)
 800192e:	edd3 7a00 	vldr	s15, [r3]
 8001932:	ed97 7a00 	vldr	s14, [r7]
 8001936:	eeb4 7ae7 	vcmpe.f32	s14, s15
 800193a:	eef1 fa10 	vmrs	APSR_nzcv, fpscr
 800193e:	bfac      	ite	ge
 8001940:	2301      	movge	r3, #1
 8001942:	2300      	movlt	r3, #0
 8001944:	b2db      	uxtb	r3, r3
}
 8001946:	4618      	mov	r0, r3
 8001948:	370c      	adds	r7, #12
 800194a:	46bd      	mov	sp, r7
 800194c:	f85d 7b04 	ldr.w	r7, [sp], #4
 8001950:	4770      	bx	lr
 8001952:	bf00      	nop
 8001954:	20000014 	.word	0x20000014
 8001958:	20000010 	.word	0x20000010

0800195c <deep_button_update>:

/* -- 5s USER-button long-press toggle for deep_mode -- */
#define DEEP_LONGPRESS_MS 5000u
#define BTN_DEBOUNCE_MS     30u

static void deep_button_update(bms_ctx_t *c, uint32_t now_ms) {
 800195c:	b580      	push	{r7, lr}
 800195e:	b084      	sub	sp, #16
 8001960:	af00      	add	r7, sp, #0
 8001962:	6078      	str	r0, [r7, #4]
 8001964:	6039      	str	r1, [r7, #0]
  static uint32_t t_last_change = 0;

  static bool armed = true;
  static uint32_t t_press_start = 0;

  bool raw = BMS_HW_UserButtonPressed();
 8001966:	f7ff fe79 	bl	800165c <BMS_HW_UserButtonPressed>
 800196a:	4603      	mov	r3, r0
 800196c:	73fb      	strb	r3, [r7, #15]

  if (raw != last_raw) {
 800196e:	4b25      	ldr	r3, [pc, #148]	@ (8001a04 <deep_button_update+0xa8>)
 8001970:	781b      	ldrb	r3, [r3, #0]
 8001972:	7bfa      	ldrb	r2, [r7, #15]
 8001974:	429a      	cmp	r2, r3
 8001976:	d005      	beq.n	8001984 <deep_button_update+0x28>
    last_raw = raw;
 8001978:	4a22      	ldr	r2, [pc, #136]	@ (8001a04 <deep_button_update+0xa8>)
 800197a:	7bfb      	ldrb	r3, [r7, #15]
 800197c:	7013      	strb	r3, [r2, #0]
    t_last_change = now_ms;
 800197e:	4a22      	ldr	r2, [pc, #136]	@ (8001a08 <deep_button_update+0xac>)
 8001980:	683b      	ldr	r3, [r7, #0]
 8001982:	6013      	str	r3, [r2, #0]
  }
  if ((now_ms - t_last_change) >= BTN_DEBOUNCE_MS) {
 8001984:	4b20      	ldr	r3, [pc, #128]	@ (8001a08 <deep_button_update+0xac>)
 8001986:	681b      	ldr	r3, [r3, #0]
 8001988:	683a      	ldr	r2, [r7, #0]
 800198a:	1ad3      	subs	r3, r2, r3
 800198c:	2b1d      	cmp	r3, #29
 800198e:	d902      	bls.n	8001996 <deep_button_update+0x3a>
    stable = raw;
 8001990:	4a1e      	ldr	r2, [pc, #120]	@ (8001a0c <deep_button_update+0xb0>)
 8001992:	7bfb      	ldrb	r3, [r7, #15]
 8001994:	7013      	strb	r3, [r2, #0]
  }

  if (stable) {
 8001996:	4b1d      	ldr	r3, [pc, #116]	@ (8001a0c <deep_button_update+0xb0>)
 8001998:	781b      	ldrb	r3, [r3, #0]
 800199a:	2b00      	cmp	r3, #0
 800199c:	d027      	beq.n	80019ee <deep_button_update+0x92>
    if (t_press_start == 0u) t_press_start = now_ms;
 800199e:	4b1c      	ldr	r3, [pc, #112]	@ (8001a10 <deep_button_update+0xb4>)
 80019a0:	681b      	ldr	r3, [r3, #0]
 80019a2:	2b00      	cmp	r3, #0
 80019a4:	d102      	bne.n	80019ac <deep_button_update+0x50>
 80019a6:	4a1a      	ldr	r2, [pc, #104]	@ (8001a10 <deep_button_update+0xb4>)
 80019a8:	683b      	ldr	r3, [r7, #0]
 80019aa:	6013      	str	r3, [r2, #0]

    if (armed && (now_ms - t_press_start) >= DEEP_LONGPRESS_MS) {
 80019ac:	4b19      	ldr	r3, [pc, #100]	@ (8001a14 <deep_button_update+0xb8>)
 80019ae:	781b      	ldrb	r3, [r3, #0]
 80019b0:	2b00      	cmp	r3, #0
 80019b2:	d022      	beq.n	80019fa <deep_button_update+0x9e>
 80019b4:	4b16      	ldr	r3, [pc, #88]	@ (8001a10 <deep_button_update+0xb4>)
 80019b6:	681b      	ldr	r3, [r3, #0]
 80019b8:	683a      	ldr	r2, [r7, #0]
 80019ba:	1ad3      	subs	r3, r2, r3
 80019bc:	f241 3287 	movw	r2, #4999	@ 0x1387
 80019c0:	4293      	cmp	r3, r2
 80019c2:	d91a      	bls.n	80019fa <deep_button_update+0x9e>
      c->deep_mode = !c->deep_mode;
 80019c4:	687b      	ldr	r3, [r7, #4]
 80019c6:	f893 3049 	ldrb.w	r3, [r3, #73]	@ 0x49
 80019ca:	2b00      	cmp	r3, #0
 80019cc:	bf14      	ite	ne
 80019ce:	2301      	movne	r3, #1
 80019d0:	2300      	moveq	r3, #0
 80019d2:	b2db      	uxtb	r3, r3
 80019d4:	f083 0301 	eor.w	r3, r3, #1
 80019d8:	b2db      	uxtb	r3, r3
 80019da:	f003 0301 	and.w	r3, r3, #1
 80019de:	b2da      	uxtb	r2, r3
 80019e0:	687b      	ldr	r3, [r7, #4]
 80019e2:	f883 2049 	strb.w	r2, [r3, #73]	@ 0x49
      armed = false;
 80019e6:	4b0b      	ldr	r3, [pc, #44]	@ (8001a14 <deep_button_update+0xb8>)
 80019e8:	2200      	movs	r2, #0
 80019ea:	701a      	strb	r2, [r3, #0]
    }
  } else {
    t_press_start = 0u;
    armed = true;
  }
}
 80019ec:	e005      	b.n	80019fa <deep_button_update+0x9e>
    t_press_start = 0u;
 80019ee:	4b08      	ldr	r3, [pc, #32]	@ (8001a10 <deep_button_update+0xb4>)
 80019f0:	2200      	movs	r2, #0
 80019f2:	601a      	str	r2, [r3, #0]
    armed = true;
 80019f4:	4b07      	ldr	r3, [pc, #28]	@ (8001a14 <deep_button_update+0xb8>)
 80019f6:	2201      	movs	r2, #1
 80019f8:	701a      	strb	r2, [r3, #0]
}
 80019fa:	bf00      	nop
 80019fc:	3710      	adds	r7, #16
 80019fe:	46bd      	mov	sp, r7
 8001a00:	bd80      	pop	{r7, pc}
 8001a02:	bf00      	nop
 8001a04:	20000220 	.word	0x20000220
 8001a08:	20000224 	.word	0x20000224
 8001a0c:	20000228 	.word	0x20000228
 8001a10:	2000022c 	.word	0x2000022c
 8001a14:	20000018 	.word	0x20000018

08001a18 <send_telemetry>:

/* -- telemetry -- */
static void send_telemetry(const bms_ctx_t *c) {
 8001a18:	e92d 4ff0 	stmdb	sp!, {r4, r5, r6, r7, r8, r9, sl, fp, lr}
 8001a1c:	f5ad 7d53 	sub.w	sp, sp, #844	@ 0x34c
 8001a20:	af2c      	add	r7, sp, #176	@ 0xb0
 8001a22:	f507 7326 	add.w	r3, r7, #664	@ 0x298
 8001a26:	f5a3 7303 	sub.w	r3, r3, #524	@ 0x20c
 8001a2a:	6018      	str	r0, [r3, #0]
    "\"ov\":%.3f,"
    "\"uv\":%.3f,"
    "\"deep_uv\":%.3f,"
    "\"ot\":%.1f,"
    "\"oc\":%.2f}\n",
    (unsigned)c->state,
 8001a2c:	f507 7326 	add.w	r3, r7, #664	@ 0x298
 8001a30:	f5a3 7303 	sub.w	r3, r3, #524	@ 0x20c
 8001a34:	681b      	ldr	r3, [r3, #0]
 8001a36:	781b      	ldrb	r3, [r3, #0]
  int k = snprintf(line, sizeof(line),
 8001a38:	f8c7 3080 	str.w	r3, [r7, #128]	@ 0x80
    (double)c->Vg[0], (double)c->Vg[1], (double)c->Vg[2], (double)c->Vg[3],
 8001a3c:	f507 7326 	add.w	r3, r7, #664	@ 0x298
 8001a40:	f5a3 7303 	sub.w	r3, r3, #524	@ 0x20c
 8001a44:	681b      	ldr	r3, [r3, #0]
 8001a46:	689b      	ldr	r3, [r3, #8]
  int k = snprintf(line, sizeof(line),
 8001a48:	4618      	mov	r0, r3
 8001a4a:	f7fe fdad 	bl	80005a8 <__aeabi_f2d>
 8001a4e:	e9c7 011e 	strd	r0, r1, [r7, #120]	@ 0x78
    (double)c->Vg[0], (double)c->Vg[1], (double)c->Vg[2], (double)c->Vg[3],
 8001a52:	f507 7326 	add.w	r3, r7, #664	@ 0x298
 8001a56:	f5a3 7303 	sub.w	r3, r3, #524	@ 0x20c
 8001a5a:	681b      	ldr	r3, [r3, #0]
 8001a5c:	68db      	ldr	r3, [r3, #12]
  int k = snprintf(line, sizeof(line),
 8001a5e:	4618      	mov	r0, r3
 8001a60:	f7fe fda2 	bl	80005a8 <__aeabi_f2d>
 8001a64:	e9c7 011c 	strd	r0, r1, [r7, #112]	@ 0x70
    (double)c->Vg[0], (double)c->Vg[1], (double)c->Vg[2], (double)c->Vg[3],
 8001a68:	f507 7326 	add.w	r3, r7, #664	@ 0x298
 8001a6c:	f5a3 7303 	sub.w	r3, r3, #524	@ 0x20c
 8001a70:	681b      	ldr	r3, [r3, #0]
 8001a72:	691b      	ldr	r3, [r3, #16]
  int k = snprintf(line, sizeof(line),
 8001a74:	4618      	mov	r0, r3
 8001a76:	f7fe fd97 	bl	80005a8 <__aeabi_f2d>
 8001a7a:	e9c7 011a 	strd	r0, r1, [r7, #104]	@ 0x68
    (double)c->Vg[0], (double)c->Vg[1], (double)c->Vg[2], (double)c->Vg[3],
 8001a7e:	f507 7326 	add.w	r3, r7, #664	@ 0x298
 8001a82:	f5a3 7303 	sub.w	r3, r3, #524	@ 0x20c
 8001a86:	681b      	ldr	r3, [r3, #0]
 8001a88:	695b      	ldr	r3, [r3, #20]
  int k = snprintf(line, sizeof(line),
 8001a8a:	4618      	mov	r0, r3
 8001a8c:	f7fe fd8c 	bl	80005a8 <__aeabi_f2d>
 8001a90:	e9c7 0118 	strd	r0, r1, [r7, #96]	@ 0x60
    (double)c->Tg[0], (double)c->Tg[1], (double)c->Tg[2], (double)c->Tg[3],
 8001a94:	f507 7326 	add.w	r3, r7, #664	@ 0x298
 8001a98:	f5a3 7303 	sub.w	r3, r3, #524	@ 0x20c
 8001a9c:	681b      	ldr	r3, [r3, #0]
 8001a9e:	699b      	ldr	r3, [r3, #24]
  int k = snprintf(line, sizeof(line),
 8001aa0:	4618      	mov	r0, r3
 8001aa2:	f7fe fd81 	bl	80005a8 <__aeabi_f2d>
 8001aa6:	e9c7 0116 	strd	r0, r1, [r7, #88]	@ 0x58
    (double)c->Tg[0], (double)c->Tg[1], (double)c->Tg[2], (double)c->Tg[3],
 8001aaa:	f507 7326 	add.w	r3, r7, #664	@ 0x298
 8001aae:	f5a3 7303 	sub.w	r3, r3, #524	@ 0x20c
 8001ab2:	681b      	ldr	r3, [r3, #0]
 8001ab4:	69db      	ldr	r3, [r3, #28]
  int k = snprintf(line, sizeof(line),
 8001ab6:	4618      	mov	r0, r3
 8001ab8:	f7fe fd76 	bl	80005a8 <__aeabi_f2d>
 8001abc:	e9c7 0114 	strd	r0, r1, [r7, #80]	@ 0x50
    (double)c->Tg[0], (double)c->Tg[1], (double)c->Tg[2], (double)c->Tg[3],
 8001ac0:	f507 7326 	add.w	r3, r7, #664	@ 0x298
 8001ac4:	f5a3 7303 	sub.w	r3, r3, #524	@ 0x20c
 8001ac8:	681b      	ldr	r3, [r3, #0]
 8001aca:	6a1b      	ldr	r3, [r3, #32]
  int k = snprintf(line, sizeof(line),
 8001acc:	4618      	mov	r0, r3
 8001ace:	f7fe fd6b 	bl	80005a8 <__aeabi_f2d>
 8001ad2:	e9c7 0112 	strd	r0, r1, [r7, #72]	@ 0x48
    (double)c->Tg[0], (double)c->Tg[1], (double)c->Tg[2], (double)c->Tg[3],
 8001ad6:	f507 7326 	add.w	r3, r7, #664	@ 0x298
 8001ada:	f5a3 7303 	sub.w	r3, r3, #524	@ 0x20c
 8001ade:	681b      	ldr	r3, [r3, #0]
 8001ae0:	6a5b      	ldr	r3, [r3, #36]	@ 0x24
  int k = snprintf(line, sizeof(line),
 8001ae2:	4618      	mov	r0, r3
 8001ae4:	f7fe fd60 	bl	80005a8 <__aeabi_f2d>
 8001ae8:	e9c7 0110 	strd	r0, r1, [r7, #64]	@ 0x40
    (double)c->Tg[4], (double)c->Tg[5], (double)c->Tg[6], (double)c->Tg[7],
 8001aec:	f507 7326 	add.w	r3, r7, #664	@ 0x298
 8001af0:	f5a3 7303 	sub.w	r3, r3, #524	@ 0x20c
 8001af4:	681b      	ldr	r3, [r3, #0]
 8001af6:	6a9b      	ldr	r3, [r3, #40]	@ 0x28
  int k = snprintf(line, sizeof(line),
 8001af8:	4618      	mov	r0, r3
 8001afa:	f7fe fd55 	bl	80005a8 <__aeabi_f2d>
 8001afe:	e9c7 010e 	strd	r0, r1, [r7, #56]	@ 0x38
    (double)c->Tg[4], (double)c->Tg[5], (double)c->Tg[6], (double)c->Tg[7],
 8001b02:	f507 7326 	add.w	r3, r7, #664	@ 0x298
 8001b06:	f5a3 7303 	sub.w	r3, r3, #524	@ 0x20c
 8001b0a:	681b      	ldr	r3, [r3, #0]
 8001b0c:	6adb      	ldr	r3, [r3, #44]	@ 0x2c
  int k = snprintf(line, sizeof(line),
 8001b0e:	4618      	mov	r0, r3
 8001b10:	f7fe fd4a 	bl	80005a8 <__aeabi_f2d>
 8001b14:	e9c7 010c 	strd	r0, r1, [r7, #48]	@ 0x30
    (double)c->Tg[4], (double)c->Tg[5], (double)c->Tg[6], (double)c->Tg[7],
 8001b18:	f507 7326 	add.w	r3, r7, #664	@ 0x298
 8001b1c:	f5a3 7303 	sub.w	r3, r3, #524	@ 0x20c
 8001b20:	681b      	ldr	r3, [r3, #0]
 8001b22:	6b1b      	ldr	r3, [r3, #48]	@ 0x30
  int k = snprintf(line, sizeof(line),
 8001b24:	4618      	mov	r0, r3
 8001b26:	f7fe fd3f 	bl	80005a8 <__aeabi_f2d>
 8001b2a:	e9c7 010a 	strd	r0, r1, [r7, #40]	@ 0x28
    (double)c->Tg[4], (double)c->Tg[5], (double)c->Tg[6], (double)c->Tg[7],
 8001b2e:	f507 7326 	add.w	r3, r7, #664	@ 0x298
 8001b32:	f5a3 7303 	sub.w	r3, r3, #524	@ 0x20c
 8001b36:	681b      	ldr	r3, [r3, #0]
 8001b38:	6b5b      	ldr	r3, [r3, #52]	@ 0x34
  int k = snprintf(line, sizeof(line),
 8001b3a:	4618      	mov	r0, r3
 8001b3c:	f7fe fd34 	bl	80005a8 <__aeabi_f2d>
 8001b40:	e9c7 0108 	strd	r0, r1, [r7, #32]
    (double)c->I,
 8001b44:	f507 7326 	add.w	r3, r7, #664	@ 0x298
 8001b48:	f5a3 7303 	sub.w	r3, r3, #524	@ 0x20c
 8001b4c:	681b      	ldr	r3, [r3, #0]
 8001b4e:	6b9b      	ldr	r3, [r3, #56]	@ 0x38
  int k = snprintf(line, sizeof(line),
 8001b50:	4618      	mov	r0, r3
 8001b52:	f7fe fd29 	bl	80005a8 <__aeabi_f2d>
 8001b56:	e9c7 0106 	strd	r0, r1, [r7, #24]
    (unsigned)(c->charger_connected ? 1u : 0u),
 8001b5a:	f507 7326 	add.w	r3, r7, #664	@ 0x298
 8001b5e:	f5a3 7303 	sub.w	r3, r3, #524	@ 0x20c
 8001b62:	681b      	ldr	r3, [r3, #0]
 8001b64:	f893 3048 	ldrb.w	r3, [r3, #72]	@ 0x48
  int k = snprintf(line, sizeof(line),
 8001b68:	2b00      	cmp	r3, #0
 8001b6a:	d003      	beq.n	8001b74 <send_telemetry+0x15c>
 8001b6c:	2301      	movs	r3, #1
 8001b6e:	f8c7 3088 	str.w	r3, [r7, #136]	@ 0x88
 8001b72:	e002      	b.n	8001b7a <send_telemetry+0x162>
 8001b74:	2300      	movs	r3, #0
 8001b76:	f8c7 3088 	str.w	r3, [r7, #136]	@ 0x88
    (unsigned)(c->deep_mode ? 1u : 0u),
 8001b7a:	f507 7326 	add.w	r3, r7, #664	@ 0x298
 8001b7e:	f5a3 7303 	sub.w	r3, r3, #524	@ 0x20c
 8001b82:	681b      	ldr	r3, [r3, #0]
 8001b84:	f893 3049 	ldrb.w	r3, [r3, #73]	@ 0x49
  int k = snprintf(line, sizeof(line),
 8001b88:	2b00      	cmp	r3, #0
 8001b8a:	d003      	beq.n	8001b94 <send_telemetry+0x17c>
 8001b8c:	2301      	movs	r3, #1
 8001b8e:	f8c7 3084 	str.w	r3, [r7, #132]	@ 0x84
 8001b92:	e002      	b.n	8001b9a <send_telemetry+0x182>
 8001b94:	2300      	movs	r3, #0
 8001b96:	f8c7 3084 	str.w	r3, [r7, #132]	@ 0x84
    (unsigned long)c->faults,
 8001b9a:	f507 7326 	add.w	r3, r7, #664	@ 0x298
 8001b9e:	f5a3 7303 	sub.w	r3, r3, #524	@ 0x20c
 8001ba2:	681b      	ldr	r3, [r3, #0]
 8001ba4:	685e      	ldr	r6, [r3, #4]
  int k = snprintf(line, sizeof(line),
 8001ba6:	4b4d      	ldr	r3, [pc, #308]	@ (8001cdc <send_telemetry+0x2c4>)
 8001ba8:	681b      	ldr	r3, [r3, #0]
 8001baa:	4618      	mov	r0, r3
 8001bac:	f7fe fcfc 	bl	80005a8 <__aeabi_f2d>
 8001bb0:	e9c7 0104 	strd	r0, r1, [r7, #16]
 8001bb4:	4b4a      	ldr	r3, [pc, #296]	@ (8001ce0 <send_telemetry+0x2c8>)
 8001bb6:	681b      	ldr	r3, [r3, #0]
 8001bb8:	4618      	mov	r0, r3
 8001bba:	f7fe fcf5 	bl	80005a8 <__aeabi_f2d>
 8001bbe:	e9c7 0102 	strd	r0, r1, [r7, #8]
 8001bc2:	4b48      	ldr	r3, [pc, #288]	@ (8001ce4 <send_telemetry+0x2cc>)
 8001bc4:	681b      	ldr	r3, [r3, #0]
 8001bc6:	4618      	mov	r0, r3
 8001bc8:	f7fe fcee 	bl	80005a8 <__aeabi_f2d>
 8001bcc:	e9c7 0100 	strd	r0, r1, [r7]
 8001bd0:	4b45      	ldr	r3, [pc, #276]	@ (8001ce8 <send_telemetry+0x2d0>)
 8001bd2:	681b      	ldr	r3, [r3, #0]
 8001bd4:	4618      	mov	r0, r3
 8001bd6:	f7fe fce7 	bl	80005a8 <__aeabi_f2d>
 8001bda:	4682      	mov	sl, r0
 8001bdc:	468b      	mov	fp, r1
 8001bde:	4b43      	ldr	r3, [pc, #268]	@ (8001cec <send_telemetry+0x2d4>)
 8001be0:	681b      	ldr	r3, [r3, #0]
 8001be2:	4618      	mov	r0, r3
 8001be4:	f7fe fce0 	bl	80005a8 <__aeabi_f2d>
 8001be8:	4680      	mov	r8, r0
 8001bea:	4689      	mov	r9, r1
 8001bec:	4b40      	ldr	r3, [pc, #256]	@ (8001cf0 <send_telemetry+0x2d8>)
 8001bee:	681b      	ldr	r3, [r3, #0]
 8001bf0:	4618      	mov	r0, r3
 8001bf2:	f7fe fcd9 	bl	80005a8 <__aeabi_f2d>
 8001bf6:	4604      	mov	r4, r0
 8001bf8:	460d      	mov	r5, r1
 8001bfa:	4b3e      	ldr	r3, [pc, #248]	@ (8001cf4 <send_telemetry+0x2dc>)
 8001bfc:	681b      	ldr	r3, [r3, #0]
 8001bfe:	4618      	mov	r0, r3
 8001c00:	f7fe fcd2 	bl	80005a8 <__aeabi_f2d>
 8001c04:	4602      	mov	r2, r0
 8001c06:	460b      	mov	r3, r1
 8001c08:	f107 0094 	add.w	r0, r7, #148	@ 0x94
 8001c0c:	e9cd 232a 	strd	r2, r3, [sp, #168]	@ 0xa8
 8001c10:	e9cd 4528 	strd	r4, r5, [sp, #160]	@ 0xa0
 8001c14:	e9cd 8926 	strd	r8, r9, [sp, #152]	@ 0x98
 8001c18:	e9cd ab24 	strd	sl, fp, [sp, #144]	@ 0x90
 8001c1c:	ed97 7b00 	vldr	d7, [r7]
 8001c20:	ed8d 7b22 	vstr	d7, [sp, #136]	@ 0x88
 8001c24:	ed97 7b02 	vldr	d7, [r7, #8]
 8001c28:	ed8d 7b20 	vstr	d7, [sp, #128]	@ 0x80
 8001c2c:	ed97 7b04 	vldr	d7, [r7, #16]
 8001c30:	ed8d 7b1e 	vstr	d7, [sp, #120]	@ 0x78
 8001c34:	961c      	str	r6, [sp, #112]	@ 0x70
 8001c36:	f8d7 3084 	ldr.w	r3, [r7, #132]	@ 0x84
 8001c3a:	931b      	str	r3, [sp, #108]	@ 0x6c
 8001c3c:	f8d7 3088 	ldr.w	r3, [r7, #136]	@ 0x88
 8001c40:	931a      	str	r3, [sp, #104]	@ 0x68
 8001c42:	ed97 7b06 	vldr	d7, [r7, #24]
 8001c46:	ed8d 7b18 	vstr	d7, [sp, #96]	@ 0x60
 8001c4a:	ed97 7b08 	vldr	d7, [r7, #32]
 8001c4e:	ed8d 7b16 	vstr	d7, [sp, #88]	@ 0x58
 8001c52:	ed97 7b0a 	vldr	d7, [r7, #40]	@ 0x28
 8001c56:	ed8d 7b14 	vstr	d7, [sp, #80]	@ 0x50
 8001c5a:	ed97 7b0c 	vldr	d7, [r7, #48]	@ 0x30
 8001c5e:	ed8d 7b12 	vstr	d7, [sp, #72]	@ 0x48
 8001c62:	ed97 7b0e 	vldr	d7, [r7, #56]	@ 0x38
 8001c66:	ed8d 7b10 	vstr	d7, [sp, #64]	@ 0x40
 8001c6a:	ed97 7b10 	vldr	d7, [r7, #64]	@ 0x40
 8001c6e:	ed8d 7b0e 	vstr	d7, [sp, #56]	@ 0x38
 8001c72:	ed97 7b12 	vldr	d7, [r7, #72]	@ 0x48
 8001c76:	ed8d 7b0c 	vstr	d7, [sp, #48]	@ 0x30
 8001c7a:	ed97 7b14 	vldr	d7, [r7, #80]	@ 0x50
 8001c7e:	ed8d 7b0a 	vstr	d7, [sp, #40]	@ 0x28
 8001c82:	ed97 7b16 	vldr	d7, [r7, #88]	@ 0x58
 8001c86:	ed8d 7b08 	vstr	d7, [sp, #32]
 8001c8a:	ed97 7b18 	vldr	d7, [r7, #96]	@ 0x60
 8001c8e:	ed8d 7b06 	vstr	d7, [sp, #24]
 8001c92:	ed97 7b1a 	vldr	d7, [r7, #104]	@ 0x68
 8001c96:	ed8d 7b04 	vstr	d7, [sp, #16]
 8001c9a:	ed97 7b1c 	vldr	d7, [r7, #112]	@ 0x70
 8001c9e:	ed8d 7b02 	vstr	d7, [sp, #8]
 8001ca2:	ed97 7b1e 	vldr	d7, [r7, #120]	@ 0x78
 8001ca6:	ed8d 7b00 	vstr	d7, [sp]
 8001caa:	f8d7 3080 	ldr.w	r3, [r7, #128]	@ 0x80
 8001cae:	4a12      	ldr	r2, [pc, #72]	@ (8001cf8 <send_telemetry+0x2e0>)
 8001cb0:	f44f 7100 	mov.w	r1, #512	@ 0x200
 8001cb4:	f001 fc8a 	bl	80035cc <sniprintf>
 8001cb8:	f8c7 0294 	str.w	r0, [r7, #660]	@ 0x294
    (double)g_deep_uv_limit_v,
    (double)g_ot_limit_c,
    (double)g_oc_limit_a
  );

  if (k > 0) {
 8001cbc:	f8d7 3294 	ldr.w	r3, [r7, #660]	@ 0x294
 8001cc0:	2b00      	cmp	r3, #0
 8001cc2:	dd04      	ble.n	8001cce <send_telemetry+0x2b6>
    UART2_WriteStr(line);
 8001cc4:	f107 0394 	add.w	r3, r7, #148	@ 0x94
 8001cc8:	4618      	mov	r0, r3
 8001cca:	f000 fd5d 	bl	8002788 <UART2_WriteStr>
  }
}
 8001cce:	bf00      	nop
 8001cd0:	f507 7727 	add.w	r7, r7, #668	@ 0x29c
 8001cd4:	46bd      	mov	sp, r7
 8001cd6:	e8bd 8ff0 	ldmia.w	sp!, {r4, r5, r6, r7, r8, r9, sl, fp, pc}
 8001cda:	bf00      	nop
 8001cdc:	20000010 	.word	0x20000010
 8001ce0:	20000014 	.word	0x20000014
 8001ce4:	20000000 	.word	0x20000000
 8001ce8:	20000004 	.word	0x20000004
 8001cec:	2000021c 	.word	0x2000021c
 8001cf0:	20000008 	.word	0x20000008
 8001cf4:	2000000c 	.word	0x2000000c
 8001cf8:	08007af8 	.word	0x08007af8

08001cfc <handle_cmd>:
   CHGTH <on> <off>
   VTH <ov> <uv> <deep_uv>
   TTH <ot>
   ITH <oc>
*/
static void handle_cmd(char *line, bms_ctx_t *c) {
 8001cfc:	b580      	push	{r7, lr}
 8001cfe:	b0be      	sub	sp, #248	@ 0xf8
 8001d00:	af02      	add	r7, sp, #8
 8001d02:	6078      	str	r0, [r7, #4]
 8001d04:	6039      	str	r1, [r7, #0]
  (void)c;

  /* Debug: echo every received command */
  {
    char dbg[192];
    int n = snprintf(dbg, sizeof(dbg), "{\"msg\":\"CMD RX: %s\"}\n", line);
 8001d06:	f107 000c 	add.w	r0, r7, #12
 8001d0a:	687b      	ldr	r3, [r7, #4]
 8001d0c:	4a81      	ldr	r2, [pc, #516]	@ (8001f14 <handle_cmd+0x218>)
 8001d0e:	21c0      	movs	r1, #192	@ 0xc0
 8001d10:	f001 fc5c 	bl	80035cc <sniprintf>
 8001d14:	f8c7 00ec 	str.w	r0, [r7, #236]	@ 0xec
    if (n > 0) {
 8001d18:	f8d7 30ec 	ldr.w	r3, [r7, #236]	@ 0xec
 8001d1c:	2b00      	cmp	r3, #0
 8001d1e:	dd06      	ble.n	8001d2e <handle_cmd+0x32>
      UART2_WriteStr(dbg);
 8001d20:	f107 030c 	add.w	r3, r7, #12
 8001d24:	4618      	mov	r0, r3
 8001d26:	f000 fd2f 	bl	8002788 <UART2_WriteStr>
      UART2_WaitTxComplete();
 8001d2a:	f000 fd59 	bl	80027e0 <UART2_WaitTxComplete>
    }
  }

  if (strcmp(line, "RESET") == 0) {
 8001d2e:	497a      	ldr	r1, [pc, #488]	@ (8001f18 <handle_cmd+0x21c>)
 8001d30:	6878      	ldr	r0, [r7, #4]
 8001d32:	f7fe fa6d 	bl	8000210 <strcmp>
 8001d36:	4603      	mov	r3, r0
 8001d38:	2b00      	cmp	r3, #0
 8001d3a:	d115      	bne.n	8001d68 <handle_cmd+0x6c>
    UART2_WriteStr("{\"msg\":\"STM resetting\"}\n");
 8001d3c:	4877      	ldr	r0, [pc, #476]	@ (8001f1c <handle_cmd+0x220>)
 8001d3e:	f000 fd23 	bl	8002788 <UART2_WriteStr>
    UART2_WaitTxComplete();
 8001d42:	f000 fd4d 	bl	80027e0 <UART2_WaitTxComplete>

    /* Long delay for debugging so GUI has time to see ACK */
    for (volatile uint32_t i = 0; i < 20000000u; i++) {
 8001d46:	2300      	movs	r3, #0
 8001d48:	f8c7 30e8 	str.w	r3, [r7, #232]	@ 0xe8
 8001d4c:	e005      	b.n	8001d5a <handle_cmd+0x5e>
      __NOP();
 8001d4e:	bf00      	nop
    for (volatile uint32_t i = 0; i < 20000000u; i++) {
 8001d50:	f8d7 30e8 	ldr.w	r3, [r7, #232]	@ 0xe8
 8001d54:	3301      	adds	r3, #1
 8001d56:	f8c7 30e8 	str.w	r3, [r7, #232]	@ 0xe8
 8001d5a:	f8d7 30e8 	ldr.w	r3, [r7, #232]	@ 0xe8
 8001d5e:	4a70      	ldr	r2, [pc, #448]	@ (8001f20 <handle_cmd+0x224>)
 8001d60:	4293      	cmp	r3, r2
 8001d62:	d9f4      	bls.n	8001d4e <handle_cmd+0x52>
    }

    NVIC_SystemReset();
 8001d64:	f7ff fc8c 	bl	8001680 <__NVIC_SystemReset>
    return;
  }

  {
    float on_v = 0.0f, off_v = 0.0f;
 8001d68:	f04f 0300 	mov.w	r3, #0
 8001d6c:	f8c7 30e4 	str.w	r3, [r7, #228]	@ 0xe4
 8001d70:	f04f 0300 	mov.w	r3, #0
 8001d74:	f8c7 30e0 	str.w	r3, [r7, #224]	@ 0xe0
    if (sscanf(line, "CHGTH %f %f", &on_v, &off_v) == 2) {
 8001d78:	f107 03e0 	add.w	r3, r7, #224	@ 0xe0
 8001d7c:	f107 02e4 	add.w	r2, r7, #228	@ 0xe4
 8001d80:	4968      	ldr	r1, [pc, #416]	@ (8001f24 <handle_cmd+0x228>)
 8001d82:	6878      	ldr	r0, [r7, #4]
 8001d84:	f001 fc7a 	bl	800367c <siscanf>
 8001d88:	4603      	mov	r3, r0
 8001d8a:	2b02      	cmp	r3, #2
 8001d8c:	d121      	bne.n	8001dd2 <handle_cmd+0xd6>
      if ((on_v > off_v) && (off_v >= 0.0f)) {
 8001d8e:	ed97 7a39 	vldr	s14, [r7, #228]	@ 0xe4
 8001d92:	edd7 7a38 	vldr	s15, [r7, #224]	@ 0xe0
 8001d96:	eeb4 7ae7 	vcmpe.f32	s14, s15
 8001d9a:	eef1 fa10 	vmrs	APSR_nzcv, fpscr
 8001d9e:	dd12      	ble.n	8001dc6 <handle_cmd+0xca>
 8001da0:	edd7 7a38 	vldr	s15, [r7, #224]	@ 0xe0
 8001da4:	eef5 7ac0 	vcmpe.f32	s15, #0.0
 8001da8:	eef1 fa10 	vmrs	APSR_nzcv, fpscr
 8001dac:	db0b      	blt.n	8001dc6 <handle_cmd+0xca>
        g_chg_det_on_v  = on_v;
 8001dae:	f8d7 30e4 	ldr.w	r3, [r7, #228]	@ 0xe4
 8001db2:	4a5d      	ldr	r2, [pc, #372]	@ (8001f28 <handle_cmd+0x22c>)
 8001db4:	6013      	str	r3, [r2, #0]
        g_chg_det_off_v = off_v;
 8001db6:	f8d7 30e0 	ldr.w	r3, [r7, #224]	@ 0xe0
 8001dba:	4a5c      	ldr	r2, [pc, #368]	@ (8001f2c <handle_cmd+0x230>)
 8001dbc:	6013      	str	r3, [r2, #0]
        UART2_WriteStr("{\"msg\":\"CHGTH set\"}\n");
 8001dbe:	485c      	ldr	r0, [pc, #368]	@ (8001f30 <handle_cmd+0x234>)
 8001dc0:	f000 fce2 	bl	8002788 <UART2_WriteStr>
 8001dc4:	e002      	b.n	8001dcc <handle_cmd+0xd0>
      } else {
        UART2_WriteStr("{\"msg\":\"Invalid CHGTH\"}\n");
 8001dc6:	485b      	ldr	r0, [pc, #364]	@ (8001f34 <handle_cmd+0x238>)
 8001dc8:	f000 fcde 	bl	8002788 <UART2_WriteStr>
      }
      UART2_WaitTxComplete();
 8001dcc:	f000 fd08 	bl	80027e0 <UART2_WaitTxComplete>
 8001dd0:	e09d      	b.n	8001f0e <handle_cmd+0x212>
      return;
    }
  }

  {
    float ov = 0.0f, uv = 0.0f, deep_uv = 0.0f;
 8001dd2:	f04f 0300 	mov.w	r3, #0
 8001dd6:	f8c7 30dc 	str.w	r3, [r7, #220]	@ 0xdc
 8001dda:	f04f 0300 	mov.w	r3, #0
 8001dde:	f8c7 30d8 	str.w	r3, [r7, #216]	@ 0xd8
 8001de2:	f04f 0300 	mov.w	r3, #0
 8001de6:	f8c7 30d4 	str.w	r3, [r7, #212]	@ 0xd4
    if (sscanf(line, "VTH %f %f %f", &ov, &uv, &deep_uv) == 3) {
 8001dea:	f107 01d8 	add.w	r1, r7, #216	@ 0xd8
 8001dee:	f107 02dc 	add.w	r2, r7, #220	@ 0xdc
 8001df2:	f107 03d4 	add.w	r3, r7, #212	@ 0xd4
 8001df6:	9300      	str	r3, [sp, #0]
 8001df8:	460b      	mov	r3, r1
 8001dfa:	494f      	ldr	r1, [pc, #316]	@ (8001f38 <handle_cmd+0x23c>)
 8001dfc:	6878      	ldr	r0, [r7, #4]
 8001dfe:	f001 fc3d 	bl	800367c <siscanf>
 8001e02:	4603      	mov	r3, r0
 8001e04:	2b03      	cmp	r3, #3
 8001e06:	d12e      	bne.n	8001e66 <handle_cmd+0x16a>
      if ((ov > uv) && (uv >= deep_uv) && (deep_uv >= 0.0f)) {
 8001e08:	ed97 7a37 	vldr	s14, [r7, #220]	@ 0xdc
 8001e0c:	edd7 7a36 	vldr	s15, [r7, #216]	@ 0xd8
 8001e10:	eeb4 7ae7 	vcmpe.f32	s14, s15
 8001e14:	eef1 fa10 	vmrs	APSR_nzcv, fpscr
 8001e18:	dd1f      	ble.n	8001e5a <handle_cmd+0x15e>
 8001e1a:	ed97 7a36 	vldr	s14, [r7, #216]	@ 0xd8
 8001e1e:	edd7 7a35 	vldr	s15, [r7, #212]	@ 0xd4
 8001e22:	eeb4 7ae7 	vcmpe.f32	s14, s15
 8001e26:	eef1 fa10 	vmrs	APSR_nzcv, fpscr
 8001e2a:	db16      	blt.n	8001e5a <handle_cmd+0x15e>
 8001e2c:	edd7 7a35 	vldr	s15, [r7, #212]	@ 0xd4
 8001e30:	eef5 7ac0 	vcmpe.f32	s15, #0.0
 8001e34:	eef1 fa10 	vmrs	APSR_nzcv, fpscr
 8001e38:	db0f      	blt.n	8001e5a <handle_cmd+0x15e>
        g_ov_limit_v      = ov;
 8001e3a:	f8d7 30dc 	ldr.w	r3, [r7, #220]	@ 0xdc
 8001e3e:	4a3f      	ldr	r2, [pc, #252]	@ (8001f3c <handle_cmd+0x240>)
 8001e40:	6013      	str	r3, [r2, #0]
        g_uv_limit_v      = uv;
 8001e42:	f8d7 30d8 	ldr.w	r3, [r7, #216]	@ 0xd8
 8001e46:	4a3e      	ldr	r2, [pc, #248]	@ (8001f40 <handle_cmd+0x244>)
 8001e48:	6013      	str	r3, [r2, #0]
        g_deep_uv_limit_v = deep_uv;
 8001e4a:	f8d7 30d4 	ldr.w	r3, [r7, #212]	@ 0xd4
 8001e4e:	4a3d      	ldr	r2, [pc, #244]	@ (8001f44 <handle_cmd+0x248>)
 8001e50:	6013      	str	r3, [r2, #0]
        UART2_WriteStr("{\"msg\":\"VTH set\"}\n");
 8001e52:	483d      	ldr	r0, [pc, #244]	@ (8001f48 <handle_cmd+0x24c>)
 8001e54:	f000 fc98 	bl	8002788 <UART2_WriteStr>
 8001e58:	e002      	b.n	8001e60 <handle_cmd+0x164>
      } else {
        UART2_WriteStr("{\"msg\":\"Invalid VTH\"}\n");
 8001e5a:	483c      	ldr	r0, [pc, #240]	@ (8001f4c <handle_cmd+0x250>)
 8001e5c:	f000 fc94 	bl	8002788 <UART2_WriteStr>
      }
      UART2_WaitTxComplete();
 8001e60:	f000 fcbe 	bl	80027e0 <UART2_WaitTxComplete>
 8001e64:	e053      	b.n	8001f0e <handle_cmd+0x212>
      return;
    }
  }

  {
    float ot = 0.0f;
 8001e66:	f04f 0300 	mov.w	r3, #0
 8001e6a:	f8c7 30d0 	str.w	r3, [r7, #208]	@ 0xd0
    if (sscanf(line, "TTH %f", &ot) == 1) {
 8001e6e:	f107 03d0 	add.w	r3, r7, #208	@ 0xd0
 8001e72:	461a      	mov	r2, r3
 8001e74:	4936      	ldr	r1, [pc, #216]	@ (8001f50 <handle_cmd+0x254>)
 8001e76:	6878      	ldr	r0, [r7, #4]
 8001e78:	f001 fc00 	bl	800367c <siscanf>
 8001e7c:	4603      	mov	r3, r0
 8001e7e:	2b01      	cmp	r3, #1
 8001e80:	d11d      	bne.n	8001ebe <handle_cmd+0x1c2>
      if (ot > 0.0f && ot < 150.0f) {
 8001e82:	edd7 7a34 	vldr	s15, [r7, #208]	@ 0xd0
 8001e86:	eef5 7ac0 	vcmpe.f32	s15, #0.0
 8001e8a:	eef1 fa10 	vmrs	APSR_nzcv, fpscr
 8001e8e:	dd10      	ble.n	8001eb2 <handle_cmd+0x1b6>
 8001e90:	edd7 7a34 	vldr	s15, [r7, #208]	@ 0xd0
 8001e94:	ed9f 7a2f 	vldr	s14, [pc, #188]	@ 8001f54 <handle_cmd+0x258>
 8001e98:	eef4 7ac7 	vcmpe.f32	s15, s14
 8001e9c:	eef1 fa10 	vmrs	APSR_nzcv, fpscr
 8001ea0:	d507      	bpl.n	8001eb2 <handle_cmd+0x1b6>
        g_ot_limit_c = ot;
 8001ea2:	f8d7 30d0 	ldr.w	r3, [r7, #208]	@ 0xd0
 8001ea6:	4a2c      	ldr	r2, [pc, #176]	@ (8001f58 <handle_cmd+0x25c>)
 8001ea8:	6013      	str	r3, [r2, #0]
        UART2_WriteStr("{\"msg\":\"TTH set\"}\n");
 8001eaa:	482c      	ldr	r0, [pc, #176]	@ (8001f5c <handle_cmd+0x260>)
 8001eac:	f000 fc6c 	bl	8002788 <UART2_WriteStr>
 8001eb0:	e002      	b.n	8001eb8 <handle_cmd+0x1bc>
      } else {
        UART2_WriteStr("{\"msg\":\"Invalid TTH\"}\n");
 8001eb2:	482b      	ldr	r0, [pc, #172]	@ (8001f60 <handle_cmd+0x264>)
 8001eb4:	f000 fc68 	bl	8002788 <UART2_WriteStr>
      }
      UART2_WaitTxComplete();
 8001eb8:	f000 fc92 	bl	80027e0 <UART2_WaitTxComplete>
 8001ebc:	e027      	b.n	8001f0e <handle_cmd+0x212>
      return;
    }
  }

  {
    float oc = 0.0f;
 8001ebe:	f04f 0300 	mov.w	r3, #0
 8001ec2:	f8c7 30cc 	str.w	r3, [r7, #204]	@ 0xcc
    if (sscanf(line, "ITH %f", &oc) == 1) {
 8001ec6:	f107 03cc 	add.w	r3, r7, #204	@ 0xcc
 8001eca:	461a      	mov	r2, r3
 8001ecc:	4925      	ldr	r1, [pc, #148]	@ (8001f64 <handle_cmd+0x268>)
 8001ece:	6878      	ldr	r0, [r7, #4]
 8001ed0:	f001 fbd4 	bl	800367c <siscanf>
 8001ed4:	4603      	mov	r3, r0
 8001ed6:	2b01      	cmp	r3, #1
 8001ed8:	d114      	bne.n	8001f04 <handle_cmd+0x208>
      if (oc > 0.0f) {
 8001eda:	edd7 7a33 	vldr	s15, [r7, #204]	@ 0xcc
 8001ede:	eef5 7ac0 	vcmpe.f32	s15, #0.0
 8001ee2:	eef1 fa10 	vmrs	APSR_nzcv, fpscr
 8001ee6:	dd07      	ble.n	8001ef8 <handle_cmd+0x1fc>
        g_oc_limit_a = oc;
 8001ee8:	f8d7 30cc 	ldr.w	r3, [r7, #204]	@ 0xcc
 8001eec:	4a1e      	ldr	r2, [pc, #120]	@ (8001f68 <handle_cmd+0x26c>)
 8001eee:	6013      	str	r3, [r2, #0]
        UART2_WriteStr("{\"msg\":\"ITH set\"}\n");
 8001ef0:	481e      	ldr	r0, [pc, #120]	@ (8001f6c <handle_cmd+0x270>)
 8001ef2:	f000 fc49 	bl	8002788 <UART2_WriteStr>
 8001ef6:	e002      	b.n	8001efe <handle_cmd+0x202>
      } else {
        UART2_WriteStr("{\"msg\":\"Invalid ITH\"}\n");
 8001ef8:	481d      	ldr	r0, [pc, #116]	@ (8001f70 <handle_cmd+0x274>)
 8001efa:	f000 fc45 	bl	8002788 <UART2_WriteStr>
      }
      UART2_WaitTxComplete();
 8001efe:	f000 fc6f 	bl	80027e0 <UART2_WaitTxComplete>
 8001f02:	e004      	b.n	8001f0e <handle_cmd+0x212>
      return;
    }
  }

  UART2_WriteStr("{\"msg\":\"Unknown cmd\"}\n");
 8001f04:	481b      	ldr	r0, [pc, #108]	@ (8001f74 <handle_cmd+0x278>)
 8001f06:	f000 fc3f 	bl	8002788 <UART2_WriteStr>
  UART2_WaitTxComplete();
 8001f0a:	f000 fc69 	bl	80027e0 <UART2_WaitTxComplete>
}
 8001f0e:	37f0      	adds	r7, #240	@ 0xf0
 8001f10:	46bd      	mov	sp, r7
 8001f12:	bd80      	pop	{r7, pc}
 8001f14:	08007bc8 	.word	0x08007bc8
 8001f18:	08007be0 	.word	0x08007be0
 8001f1c:	08007be8 	.word	0x08007be8
 8001f20:	01312cff 	.word	0x01312cff
 8001f24:	08007c04 	.word	0x08007c04
 8001f28:	20000010 	.word	0x20000010
 8001f2c:	20000014 	.word	0x20000014
 8001f30:	08007c10 	.word	0x08007c10
 8001f34:	08007c28 	.word	0x08007c28
 8001f38:	08007c44 	.word	0x08007c44
 8001f3c:	20000000 	.word	0x20000000
 8001f40:	20000004 	.word	0x20000004
 8001f44:	2000021c 	.word	0x2000021c
 8001f48:	08007c54 	.word	0x08007c54
 8001f4c:	08007c68 	.word	0x08007c68
 8001f50:	08007c80 	.word	0x08007c80
 8001f54:	43160000 	.word	0x43160000
 8001f58:	20000008 	.word	0x20000008
 8001f5c:	08007c88 	.word	0x08007c88
 8001f60:	08007c9c 	.word	0x08007c9c
 8001f64:	08007cb4 	.word	0x08007cb4
 8001f68:	2000000c 	.word	0x2000000c
 8001f6c:	08007cbc 	.word	0x08007cbc
 8001f70:	08007cd0 	.word	0x08007cd0
 8001f74:	08007ce8 	.word	0x08007ce8

08001f78 <main>:

int main(void) {
 8001f78:	b580      	push	{r7, lr}
 8001f7a:	b0dc      	sub	sp, #368	@ 0x170
 8001f7c:	af00      	add	r7, sp, #0
  clock_init_minimal();
 8001f7e:	f7ff fb95 	bl	80016ac <clock_init_minimal>

  timebase_init_1ms(16000000U);
 8001f82:	48d2      	ldr	r0, [pc, #840]	@ (80022cc <main+0x354>)
 8001f84:	f000 fb16 	bl	80025b4 <timebase_init_1ms>
  UART2_Init(16000000U, 115200);
 8001f88:	f44f 31e1 	mov.w	r1, #115200	@ 0x1c200
 8001f8c:	48cf      	ldr	r0, [pc, #828]	@ (80022cc <main+0x354>)
 8001f8e:	f000 fb83 	bl	8002698 <UART2_Init>

  ADC_DMA_Init();
 8001f92:	f7ff f829 	bl	8000fe8 <ADC_DMA_Init>
  ADC_DMA_Start();
 8001f96:	f7ff f873 	bl	8001080 <ADC_DMA_Start>

  BMS_HW_Init();
 8001f9a:	f7ff fb1b 	bl	80015d4 <BMS_HW_Init>

  bms_ctx_t ctx;
  BMS_Init(&ctx);
 8001f9e:	f107 03c4 	add.w	r3, r7, #196	@ 0xc4
 8001fa2:	4618      	mov	r0, r3
 8001fa4:	f7ff f92a 	bl	80011fc <BMS_Init>

  uint32_t t_meas = 0, t_tel = 0;
 8001fa8:	2300      	movs	r3, #0
 8001faa:	f8c7 316c 	str.w	r3, [r7, #364]	@ 0x16c
 8001fae:	2300      	movs	r3, #0
 8001fb0:	f8c7 3168 	str.w	r3, [r7, #360]	@ 0x168
  char cmd[128];

  float tap1_f = 0.0f, tap2_f = 0.0f, tap3_f = 0.0f, tap4_f = 0.0f;
 8001fb4:	f04f 0300 	mov.w	r3, #0
 8001fb8:	f8c7 3164 	str.w	r3, [r7, #356]	@ 0x164
 8001fbc:	f04f 0300 	mov.w	r3, #0
 8001fc0:	f8c7 3160 	str.w	r3, [r7, #352]	@ 0x160
 8001fc4:	f04f 0300 	mov.w	r3, #0
 8001fc8:	f8c7 315c 	str.w	r3, [r7, #348]	@ 0x15c
 8001fcc:	f04f 0300 	mov.w	r3, #0
 8001fd0:	f8c7 3158 	str.w	r3, [r7, #344]	@ 0x158
  float temp_f[8] = {0};
 8001fd4:	f507 73b8 	add.w	r3, r7, #368	@ 0x170
 8001fd8:	f5a3 73a6 	sub.w	r3, r3, #332	@ 0x14c
 8001fdc:	4618      	mov	r0, r3
 8001fde:	2320      	movs	r3, #32
 8001fe0:	461a      	mov	r2, r3
 8001fe2:	2100      	movs	r1, #0
 8001fe4:	f002 fb04 	bl	80045f0 <memset>
  float current_f = 0.0f;
 8001fe8:	f04f 0300 	mov.w	r3, #0
 8001fec:	f8c7 3154 	str.w	r3, [r7, #340]	@ 0x154
  bool filt_init = false;
 8001ff0:	2300      	movs	r3, #0
 8001ff2:	f887 3153 	strb.w	r3, [r7, #339]	@ 0x153

  while (1) {
    uint32_t now = millis();
 8001ff6:	f000 fad1 	bl	800259c <millis>
 8001ffa:	f8c7 013c 	str.w	r0, [r7, #316]	@ 0x13c

    deep_button_update(&ctx, now);
 8001ffe:	f107 03c4 	add.w	r3, r7, #196	@ 0xc4
 8002002:	f8d7 113c 	ldr.w	r1, [r7, #316]	@ 0x13c
 8002006:	4618      	mov	r0, r3
 8002008:	f7ff fca8 	bl	800195c <deep_button_update>

    while (UART2_ReadLine(cmd, sizeof(cmd))) {
 800200c:	e007      	b.n	800201e <main+0xa6>
      handle_cmd(cmd, &ctx);
 800200e:	f107 02c4 	add.w	r2, r7, #196	@ 0xc4
 8002012:	f107 0344 	add.w	r3, r7, #68	@ 0x44
 8002016:	4611      	mov	r1, r2
 8002018:	4618      	mov	r0, r3
 800201a:	f7ff fe6f 	bl	8001cfc <handle_cmd>
    while (UART2_ReadLine(cmd, sizeof(cmd))) {
 800201e:	f107 0344 	add.w	r3, r7, #68	@ 0x44
 8002022:	2180      	movs	r1, #128	@ 0x80
 8002024:	4618      	mov	r0, r3
 8002026:	f000 fbed 	bl	8002804 <UART2_ReadLine>
 800202a:	4603      	mov	r3, r0
 800202c:	2b00      	cmp	r3, #0
 800202e:	d1ee      	bne.n	800200e <main+0x96>
    }

    if (now - t_meas >= MEASURE_PERIOD_MS) {
 8002030:	f8d7 213c 	ldr.w	r2, [r7, #316]	@ 0x13c
 8002034:	f8d7 316c 	ldr.w	r3, [r7, #364]	@ 0x16c
 8002038:	1ad3      	subs	r3, r2, r3
 800203a:	2b31      	cmp	r3, #49	@ 0x31
 800203c:	f240 8186 	bls.w	800234c <main+0x3d4>
      t_meas = now;
 8002040:	f8d7 313c 	ldr.w	r3, [r7, #316]	@ 0x13c
 8002044:	f8c7 316c 	str.w	r3, [r7, #364]	@ 0x16c

      const adc_frame_t *f = ADC_GetFrame();
 8002048:	f7ff f82a 	bl	80010a0 <ADC_GetFrame>
 800204c:	f8c7 0138 	str.w	r0, [r7, #312]	@ 0x138

      float tap1_raw = tap1_from_adc(adc_raw_to_v_local(f->raw[0]));
 8002050:	f8d7 3138 	ldr.w	r3, [r7, #312]	@ 0x138
 8002054:	881b      	ldrh	r3, [r3, #0]
 8002056:	4618      	mov	r0, r3
 8002058:	f7ff fb30 	bl	80016bc <adc_raw_to_v_local>
 800205c:	eef0 7a40 	vmov.f32	s15, s0
 8002060:	eeb0 0a67 	vmov.f32	s0, s15
 8002064:	f7ff fb4a 	bl	80016fc <tap1_from_adc>
 8002068:	ed87 0a4d 	vstr	s0, [r7, #308]	@ 0x134
      float tap2_raw = tap2_from_adc(adc_raw_to_v_local(f->raw[1]));
 800206c:	f8d7 3138 	ldr.w	r3, [r7, #312]	@ 0x138
 8002070:	885b      	ldrh	r3, [r3, #2]
 8002072:	4618      	mov	r0, r3
 8002074:	f7ff fb22 	bl	80016bc <adc_raw_to_v_local>
 8002078:	eef0 7a40 	vmov.f32	s15, s0
 800207c:	eeb0 0a67 	vmov.f32	s0, s15
 8002080:	f7ff fb50 	bl	8001724 <tap2_from_adc>
 8002084:	ed87 0a4c 	vstr	s0, [r7, #304]	@ 0x130
      float tap3_raw = tap3_from_adc(adc_raw_to_v_local(f->raw[2]));
 8002088:	f8d7 3138 	ldr.w	r3, [r7, #312]	@ 0x138
 800208c:	889b      	ldrh	r3, [r3, #4]
 800208e:	4618      	mov	r0, r3
 8002090:	f7ff fb14 	bl	80016bc <adc_raw_to_v_local>
 8002094:	eef0 7a40 	vmov.f32	s15, s0
 8002098:	eeb0 0a67 	vmov.f32	s0, s15
 800209c:	f7ff fb56 	bl	800174c <tap3_from_adc>
 80020a0:	ed87 0a4b 	vstr	s0, [r7, #300]	@ 0x12c
      float tap4_raw = tap4_from_adc(adc_raw_to_v_local(f->raw[3]));
 80020a4:	f8d7 3138 	ldr.w	r3, [r7, #312]	@ 0x138
 80020a8:	88db      	ldrh	r3, [r3, #6]
 80020aa:	4618      	mov	r0, r3
 80020ac:	f7ff fb06 	bl	80016bc <adc_raw_to_v_local>
 80020b0:	eef0 7a40 	vmov.f32	s15, s0
 80020b4:	eeb0 0a67 	vmov.f32	s0, s15
 80020b8:	f7ff fb5a 	bl	8001770 <tap4_from_adc>
 80020bc:	ed87 0a4a 	vstr	s0, [r7, #296]	@ 0x128

      float temp_raw[8];
      for (int i = 0; i < 8; i++) {
 80020c0:	2300      	movs	r3, #0
 80020c2:	f8c7 314c 	str.w	r3, [r7, #332]	@ 0x14c
 80020c6:	e020      	b.n	800210a <main+0x192>
        float vadc = adc_raw_to_v_local(f->raw[4 + i]);
 80020c8:	f8d7 314c 	ldr.w	r3, [r7, #332]	@ 0x14c
 80020cc:	1d1a      	adds	r2, r3, #4
 80020ce:	f8d7 3138 	ldr.w	r3, [r7, #312]	@ 0x138
 80020d2:	f833 3012 	ldrh.w	r3, [r3, r2, lsl #1]
 80020d6:	4618      	mov	r0, r3
 80020d8:	f7ff faf0 	bl	80016bc <adc_raw_to_v_local>
 80020dc:	ed87 0a44 	vstr	s0, [r7, #272]	@ 0x110
        temp_raw[i] = temp_c_from_adc(vadc);
 80020e0:	ed97 0a44 	vldr	s0, [r7, #272]	@ 0x110
 80020e4:	f7ff fb94 	bl	8001810 <temp_c_from_adc>
 80020e8:	eef0 7a40 	vmov.f32	s15, s0
 80020ec:	f507 73b8 	add.w	r3, r7, #368	@ 0x170
 80020f0:	f5a3 72b6 	sub.w	r2, r3, #364	@ 0x16c
 80020f4:	f8d7 314c 	ldr.w	r3, [r7, #332]	@ 0x14c
 80020f8:	009b      	lsls	r3, r3, #2
 80020fa:	4413      	add	r3, r2
 80020fc:	edc3 7a00 	vstr	s15, [r3]
      for (int i = 0; i < 8; i++) {
 8002100:	f8d7 314c 	ldr.w	r3, [r7, #332]	@ 0x14c
 8002104:	3301      	adds	r3, #1
 8002106:	f8c7 314c 	str.w	r3, [r7, #332]	@ 0x14c
 800210a:	f8d7 314c 	ldr.w	r3, [r7, #332]	@ 0x14c
 800210e:	2b07      	cmp	r3, #7
 8002110:	ddda      	ble.n	80020c8 <main+0x150>
      }

      float current_raw = curr_a_from_adc(adc_raw_to_v_local(f->raw[12]));
 8002112:	f8d7 3138 	ldr.w	r3, [r7, #312]	@ 0x138
 8002116:	8b1b      	ldrh	r3, [r3, #24]
 8002118:	4618      	mov	r0, r3
 800211a:	f7ff facf 	bl	80016bc <adc_raw_to_v_local>
 800211e:	eef0 7a40 	vmov.f32	s15, s0
 8002122:	eeb0 0a67 	vmov.f32	s0, s15
 8002126:	f7ff fbaf 	bl	8001888 <curr_a_from_adc>
 800212a:	ed87 0a49 	vstr	s0, [r7, #292]	@ 0x124

      if (!filt_init) {
 800212e:	f897 3153 	ldrb.w	r3, [r7, #339]	@ 0x153
 8002132:	f083 0301 	eor.w	r3, r3, #1
 8002136:	b2db      	uxtb	r3, r3
 8002138:	2b00      	cmp	r3, #0
 800213a:	d036      	beq.n	80021aa <main+0x232>
        tap1_f = tap1_raw;
 800213c:	f8d7 3134 	ldr.w	r3, [r7, #308]	@ 0x134
 8002140:	f8c7 3164 	str.w	r3, [r7, #356]	@ 0x164
        tap2_f = tap2_raw;
 8002144:	f8d7 3130 	ldr.w	r3, [r7, #304]	@ 0x130
 8002148:	f8c7 3160 	str.w	r3, [r7, #352]	@ 0x160
        tap3_f = tap3_raw;
 800214c:	f8d7 312c 	ldr.w	r3, [r7, #300]	@ 0x12c
 8002150:	f8c7 315c 	str.w	r3, [r7, #348]	@ 0x15c
        tap4_f = tap4_raw;
 8002154:	f8d7 3128 	ldr.w	r3, [r7, #296]	@ 0x128
 8002158:	f8c7 3158 	str.w	r3, [r7, #344]	@ 0x158

        for (int i = 0; i < 8; i++) {
 800215c:	2300      	movs	r3, #0
 800215e:	f8c7 3148 	str.w	r3, [r7, #328]	@ 0x148
 8002162:	e016      	b.n	8002192 <main+0x21a>
          temp_f[i] = temp_raw[i];
 8002164:	f507 73b8 	add.w	r3, r7, #368	@ 0x170
 8002168:	f5a3 72b6 	sub.w	r2, r3, #364	@ 0x16c
 800216c:	f8d7 3148 	ldr.w	r3, [r7, #328]	@ 0x148
 8002170:	009b      	lsls	r3, r3, #2
 8002172:	4413      	add	r3, r2
 8002174:	681a      	ldr	r2, [r3, #0]
 8002176:	f507 73b8 	add.w	r3, r7, #368	@ 0x170
 800217a:	f5a3 71a6 	sub.w	r1, r3, #332	@ 0x14c
 800217e:	f8d7 3148 	ldr.w	r3, [r7, #328]	@ 0x148
 8002182:	009b      	lsls	r3, r3, #2
 8002184:	440b      	add	r3, r1
 8002186:	601a      	str	r2, [r3, #0]
        for (int i = 0; i < 8; i++) {
 8002188:	f8d7 3148 	ldr.w	r3, [r7, #328]	@ 0x148
 800218c:	3301      	adds	r3, #1
 800218e:	f8c7 3148 	str.w	r3, [r7, #328]	@ 0x148
 8002192:	f8d7 3148 	ldr.w	r3, [r7, #328]	@ 0x148
 8002196:	2b07      	cmp	r3, #7
 8002198:	dde4      	ble.n	8002164 <main+0x1ec>
        }

        current_f = current_raw;
 800219a:	f8d7 3124 	ldr.w	r3, [r7, #292]	@ 0x124
 800219e:	f8c7 3154 	str.w	r3, [r7, #340]	@ 0x154
        filt_init = true;
 80021a2:	2301      	movs	r3, #1
 80021a4:	f887 3153 	strb.w	r3, [r7, #339]	@ 0x153
 80021a8:	e06f      	b.n	800228a <main+0x312>
      } else {
        const float alpha_v = 0.15f;
 80021aa:	4b49      	ldr	r3, [pc, #292]	@ (80022d0 <main+0x358>)
 80021ac:	f8c7 3120 	str.w	r3, [r7, #288]	@ 0x120
        const float alpha_t = 0.10f;
 80021b0:	4b48      	ldr	r3, [pc, #288]	@ (80022d4 <main+0x35c>)
 80021b2:	f8c7 311c 	str.w	r3, [r7, #284]	@ 0x11c
        const float alpha_i = 0.12f;
 80021b6:	4b48      	ldr	r3, [pc, #288]	@ (80022d8 <main+0x360>)
 80021b8:	f8c7 3118 	str.w	r3, [r7, #280]	@ 0x118

        tap1_f = lp_filter(tap1_f, tap1_raw, alpha_v);
 80021bc:	ed97 1a48 	vldr	s2, [r7, #288]	@ 0x120
 80021c0:	edd7 0a4d 	vldr	s1, [r7, #308]	@ 0x134
 80021c4:	ed97 0a59 	vldr	s0, [r7, #356]	@ 0x164
 80021c8:	f7ff fb7a 	bl	80018c0 <lp_filter>
 80021cc:	ed87 0a59 	vstr	s0, [r7, #356]	@ 0x164
        tap2_f = lp_filter(tap2_f, tap2_raw, alpha_v);
 80021d0:	ed97 1a48 	vldr	s2, [r7, #288]	@ 0x120
 80021d4:	edd7 0a4c 	vldr	s1, [r7, #304]	@ 0x130
 80021d8:	ed97 0a58 	vldr	s0, [r7, #352]	@ 0x160
 80021dc:	f7ff fb70 	bl	80018c0 <lp_filter>
 80021e0:	ed87 0a58 	vstr	s0, [r7, #352]	@ 0x160
        tap3_f = lp_filter(tap3_f, tap3_raw, alpha_v);
 80021e4:	ed97 1a48 	vldr	s2, [r7, #288]	@ 0x120
 80021e8:	edd7 0a4b 	vldr	s1, [r7, #300]	@ 0x12c
 80021ec:	ed97 0a57 	vldr	s0, [r7, #348]	@ 0x15c
 80021f0:	f7ff fb66 	bl	80018c0 <lp_filter>
 80021f4:	ed87 0a57 	vstr	s0, [r7, #348]	@ 0x15c
        tap4_f = lp_filter(tap4_f, tap4_raw, alpha_v);
 80021f8:	ed97 1a48 	vldr	s2, [r7, #288]	@ 0x120
 80021fc:	edd7 0a4a 	vldr	s1, [r7, #296]	@ 0x128
 8002200:	ed97 0a56 	vldr	s0, [r7, #344]	@ 0x158
 8002204:	f7ff fb5c 	bl	80018c0 <lp_filter>
 8002208:	ed87 0a56 	vstr	s0, [r7, #344]	@ 0x158

        for (int i = 0; i < 8; i++) {
 800220c:	2300      	movs	r3, #0
 800220e:	f8c7 3144 	str.w	r3, [r7, #324]	@ 0x144
 8002212:	e02c      	b.n	800226e <main+0x2f6>
          temp_f[i] = lp_filter(temp_f[i], temp_raw[i], alpha_t);
 8002214:	f507 73b8 	add.w	r3, r7, #368	@ 0x170
 8002218:	f5a3 72a6 	sub.w	r2, r3, #332	@ 0x14c
 800221c:	f8d7 3144 	ldr.w	r3, [r7, #324]	@ 0x144
 8002220:	009b      	lsls	r3, r3, #2
 8002222:	4413      	add	r3, r2
 8002224:	edd3 7a00 	vldr	s15, [r3]
 8002228:	f507 73b8 	add.w	r3, r7, #368	@ 0x170
 800222c:	f5a3 72b6 	sub.w	r2, r3, #364	@ 0x16c
 8002230:	f8d7 3144 	ldr.w	r3, [r7, #324]	@ 0x144
 8002234:	009b      	lsls	r3, r3, #2
 8002236:	4413      	add	r3, r2
 8002238:	ed93 7a00 	vldr	s14, [r3]
 800223c:	ed97 1a47 	vldr	s2, [r7, #284]	@ 0x11c
 8002240:	eef0 0a47 	vmov.f32	s1, s14
 8002244:	eeb0 0a67 	vmov.f32	s0, s15
 8002248:	f7ff fb3a 	bl	80018c0 <lp_filter>
 800224c:	eef0 7a40 	vmov.f32	s15, s0
 8002250:	f507 73b8 	add.w	r3, r7, #368	@ 0x170
 8002254:	f5a3 72a6 	sub.w	r2, r3, #332	@ 0x14c
 8002258:	f8d7 3144 	ldr.w	r3, [r7, #324]	@ 0x144
 800225c:	009b      	lsls	r3, r3, #2
 800225e:	4413      	add	r3, r2
 8002260:	edc3 7a00 	vstr	s15, [r3]
        for (int i = 0; i < 8; i++) {
 8002264:	f8d7 3144 	ldr.w	r3, [r7, #324]	@ 0x144
 8002268:	3301      	adds	r3, #1
 800226a:	f8c7 3144 	str.w	r3, [r7, #324]	@ 0x144
 800226e:	f8d7 3144 	ldr.w	r3, [r7, #324]	@ 0x144
 8002272:	2b07      	cmp	r3, #7
 8002274:	ddce      	ble.n	8002214 <main+0x29c>
        }

        current_f = lp_filter(current_f, current_raw, alpha_i);
 8002276:	ed97 1a46 	vldr	s2, [r7, #280]	@ 0x118
 800227a:	edd7 0a49 	vldr	s1, [r7, #292]	@ 0x124
 800227e:	ed97 0a55 	vldr	s0, [r7, #340]	@ 0x154
 8002282:	f7ff fb1d 	bl	80018c0 <lp_filter>
 8002286:	ed87 0a55 	vstr	s0, [r7, #340]	@ 0x154
      }

      ctx.Vg[0] = tap1_f;
 800228a:	f8d7 3164 	ldr.w	r3, [r7, #356]	@ 0x164
 800228e:	f8c7 30cc 	str.w	r3, [r7, #204]	@ 0xcc
      ctx.Vg[1] = tap2_f - tap1_f;
 8002292:	ed97 7a58 	vldr	s14, [r7, #352]	@ 0x160
 8002296:	edd7 7a59 	vldr	s15, [r7, #356]	@ 0x164
 800229a:	ee77 7a67 	vsub.f32	s15, s14, s15
 800229e:	edc7 7a34 	vstr	s15, [r7, #208]	@ 0xd0
      ctx.Vg[2] = tap3_f - tap2_f;
 80022a2:	ed97 7a57 	vldr	s14, [r7, #348]	@ 0x15c
 80022a6:	edd7 7a58 	vldr	s15, [r7, #352]	@ 0x160
 80022aa:	ee77 7a67 	vsub.f32	s15, s14, s15
 80022ae:	edc7 7a35 	vstr	s15, [r7, #212]	@ 0xd4
      ctx.Vg[3] = tap4_f - tap3_f;
 80022b2:	ed97 7a56 	vldr	s14, [r7, #344]	@ 0x158
 80022b6:	edd7 7a57 	vldr	s15, [r7, #348]	@ 0x15c
 80022ba:	ee77 7a67 	vsub.f32	s15, s14, s15
 80022be:	edc7 7a36 	vstr	s15, [r7, #216]	@ 0xd8

      for (int i = 0; i < 8; i++) {
 80022c2:	2300      	movs	r3, #0
 80022c4:	f8c7 3140 	str.w	r3, [r7, #320]	@ 0x140
 80022c8:	e01f      	b.n	800230a <main+0x392>
 80022ca:	bf00      	nop
 80022cc:	00f42400 	.word	0x00f42400
 80022d0:	3e19999a 	.word	0x3e19999a
 80022d4:	3dcccccd 	.word	0x3dcccccd
 80022d8:	3df5c28f 	.word	0x3df5c28f
        ctx.Tg[i] = temp_f[i];
 80022dc:	f507 73b8 	add.w	r3, r7, #368	@ 0x170
 80022e0:	f5a3 72a6 	sub.w	r2, r3, #332	@ 0x14c
 80022e4:	f8d7 3140 	ldr.w	r3, [r7, #320]	@ 0x140
 80022e8:	009b      	lsls	r3, r3, #2
 80022ea:	4413      	add	r3, r2
 80022ec:	681a      	ldr	r2, [r3, #0]
 80022ee:	f8d7 3140 	ldr.w	r3, [r7, #320]	@ 0x140
 80022f2:	3306      	adds	r3, #6
 80022f4:	009b      	lsls	r3, r3, #2
 80022f6:	f503 73b8 	add.w	r3, r3, #368	@ 0x170
 80022fa:	443b      	add	r3, r7
 80022fc:	3bac      	subs	r3, #172	@ 0xac
 80022fe:	601a      	str	r2, [r3, #0]
      for (int i = 0; i < 8; i++) {
 8002300:	f8d7 3140 	ldr.w	r3, [r7, #320]	@ 0x140
 8002304:	3301      	adds	r3, #1
 8002306:	f8c7 3140 	str.w	r3, [r7, #320]	@ 0x140
 800230a:	f8d7 3140 	ldr.w	r3, [r7, #320]	@ 0x140
 800230e:	2b07      	cmp	r3, #7
 8002310:	dde4      	ble.n	80022dc <main+0x364>
      }

      ctx.I = current_f;
 8002312:	f8d7 3154 	ldr.w	r3, [r7, #340]	@ 0x154
 8002316:	f8c7 30fc 	str.w	r3, [r7, #252]	@ 0xfc

      float chg_vadc = adc_raw_to_v_local(f->raw[13]);
 800231a:	f8d7 3138 	ldr.w	r3, [r7, #312]	@ 0x138
 800231e:	8b5b      	ldrh	r3, [r3, #26]
 8002320:	4618      	mov	r0, r3
 8002322:	f7ff f9cb 	bl	80016bc <adc_raw_to_v_local>
 8002326:	ed87 0a45 	vstr	s0, [r7, #276]	@ 0x114
      ctx.charger_connected = charger_present_update(ctx.charger_connected, chg_vadc);
 800232a:	f897 310c 	ldrb.w	r3, [r7, #268]	@ 0x10c
 800232e:	ed97 0a45 	vldr	s0, [r7, #276]	@ 0x114
 8002332:	4618      	mov	r0, r3
 8002334:	f7ff fae2 	bl	80018fc <charger_present_update>
 8002338:	4603      	mov	r3, r0
 800233a:	f887 310c 	strb.w	r3, [r7, #268]	@ 0x10c

      BMS_Step(&ctx, now);
 800233e:	f107 03c4 	add.w	r3, r7, #196	@ 0xc4
 8002342:	f8d7 113c 	ldr.w	r1, [r7, #316]	@ 0x13c
 8002346:	4618      	mov	r0, r3
 8002348:	f7fe fff8 	bl	800133c <BMS_Step>
    }

    if (now - t_tel >= TELEMETRY_MS) {
 800234c:	f8d7 213c 	ldr.w	r2, [r7, #316]	@ 0x13c
 8002350:	f8d7 3168 	ldr.w	r3, [r7, #360]	@ 0x168
 8002354:	1ad3      	subs	r3, r2, r3
 8002356:	2b31      	cmp	r3, #49	@ 0x31
 8002358:	f67f ae4d 	bls.w	8001ff6 <main+0x7e>
      t_tel = now;
 800235c:	f8d7 313c 	ldr.w	r3, [r7, #316]	@ 0x13c
 8002360:	f8c7 3168 	str.w	r3, [r7, #360]	@ 0x168
      send_telemetry(&ctx);
 8002364:	f107 03c4 	add.w	r3, r7, #196	@ 0xc4
 8002368:	4618      	mov	r0, r3
 800236a:	f7ff fb55 	bl	8001a18 <send_telemetry>
  while (1) {
 800236e:	e642      	b.n	8001ff6 <main+0x7e>

08002370 <USART2_IRQHandler>:
    }
  }
}

void USART2_IRQHandler(void) {
 8002370:	b580      	push	{r7, lr}
 8002372:	af00      	add	r7, sp, #0
  UART2_OnRxIRQ();
 8002374:	f000 fa1e 	bl	80027b4 <UART2_OnRxIRQ>
}
 8002378:	bf00      	nop
 800237a:	bd80      	pop	{r7, pc}

0800237c <NMI_Handler>:
/******************************************************************************/
/**
  * @brief This function handles Non maskable interrupt.
  */
void NMI_Handler(void)
{
 800237c:	b480      	push	{r7}
 800237e:	af00      	add	r7, sp, #0
  /* USER CODE BEGIN NonMaskableInt_IRQn 0 */

  /* USER CODE END NonMaskableInt_IRQn 0 */
  /* USER CODE BEGIN NonMaskableInt_IRQn 1 */
   while (1)
 8002380:	bf00      	nop
 8002382:	e7fd      	b.n	8002380 <NMI_Handler+0x4>

08002384 <HardFault_Handler>:

/**
  * @brief This function handles Hard fault interrupt.
  */
void HardFault_Handler(void)
{
 8002384:	b480      	push	{r7}
 8002386:	af00      	add	r7, sp, #0
  /* USER CODE BEGIN HardFault_IRQn 0 */

  /* USER CODE END HardFault_IRQn 0 */
  while (1)
 8002388:	bf00      	nop
 800238a:	e7fd      	b.n	8002388 <HardFault_Handler+0x4>

0800238c <MemManage_Handler>:

/**
  * @brief This function handles Memory management fault.
  */
void MemManage_Handler(void)
{
 800238c:	b480      	push	{r7}
 800238e:	af00      	add	r7, sp, #0
  /* USER CODE BEGIN MemoryManagement_IRQn 0 */

  /* USER CODE END MemoryManagement_IRQn 0 */
  while (1)
 8002390:	bf00      	nop
 8002392:	e7fd      	b.n	8002390 <MemManage_Handler+0x4>

08002394 <BusFault_Handler>:

/**
  * @brief This function handles Pre-fetch fault, memory access fault.
  */
void BusFault_Handler(void)
{
 8002394:	b480      	push	{r7}
 8002396:	af00      	add	r7, sp, #0
  /* USER CODE BEGIN BusFault_IRQn 0 */

  /* USER CODE END BusFault_IRQn 0 */
  while (1)
 8002398:	bf00      	nop
 800239a:	e7fd      	b.n	8002398 <BusFault_Handler+0x4>

0800239c <UsageFault_Handler>:

/**
  * @brief This function handles Undefined instruction or illegal state.
  */
void UsageFault_Handler(void)
{
 800239c:	b480      	push	{r7}
 800239e:	af00      	add	r7, sp, #0
  /* USER CODE BEGIN UsageFault_IRQn 0 */

  /* USER CODE END UsageFault_IRQn 0 */
  while (1)
 80023a0:	bf00      	nop
 80023a2:	e7fd      	b.n	80023a0 <UsageFault_Handler+0x4>

080023a4 <SVC_Handler>:

/**
  * @brief This function handles System service call via SWI instruction.
  */
void SVC_Handler(void)
{
 80023a4:	b480      	push	{r7}
 80023a6:	af00      	add	r7, sp, #0

  /* USER CODE END SVCall_IRQn 0 */
  /* USER CODE BEGIN SVCall_IRQn 1 */

  /* USER CODE END SVCall_IRQn 1 */
}
 80023a8:	bf00      	nop
 80023aa:	46bd      	mov	sp, r7
 80023ac:	f85d 7b04 	ldr.w	r7, [sp], #4
 80023b0:	4770      	bx	lr

080023b2 <DebugMon_Handler>:

/**
  * @brief This function handles Debug monitor.
  */
void DebugMon_Handler(void)
{
 80023b2:	b480      	push	{r7}
 80023b4:	af00      	add	r7, sp, #0

  /* USER CODE END DebugMonitor_IRQn 0 */
  /* USER CODE BEGIN DebugMonitor_IRQn 1 */

  /* USER CODE END DebugMonitor_IRQn 1 */
}
 80023b6:	bf00      	nop
 80023b8:	46bd      	mov	sp, r7
 80023ba:	f85d 7b04 	ldr.w	r7, [sp], #4
 80023be:	4770      	bx	lr

080023c0 <PendSV_Handler>:

/**
  * @brief This function handles Pendable request for system service.
  */
void PendSV_Handler(void)
{
 80023c0:	b480      	push	{r7}
 80023c2:	af00      	add	r7, sp, #0

  /* USER CODE END PendSV_IRQn 0 */
  /* USER CODE BEGIN PendSV_IRQn 1 */

  /* USER CODE END PendSV_IRQn 1 */
}
 80023c4:	bf00      	nop
 80023c6:	46bd      	mov	sp, r7
 80023c8:	f85d 7b04 	ldr.w	r7, [sp], #4
 80023cc:	4770      	bx	lr

080023ce <_getpid>:
void initialise_monitor_handles()
{
}

int _getpid(void)
{
 80023ce:	b480      	push	{r7}
 80023d0:	af00      	add	r7, sp, #0
  return 1;
 80023d2:	2301      	movs	r3, #1
}
 80023d4:	4618      	mov	r0, r3
 80023d6:	46bd      	mov	sp, r7
 80023d8:	f85d 7b04 	ldr.w	r7, [sp], #4
 80023dc:	4770      	bx	lr

080023de <_kill>:

int _kill(int pid, int sig)
{
 80023de:	b580      	push	{r7, lr}
 80023e0:	b082      	sub	sp, #8
 80023e2:	af00      	add	r7, sp, #0
 80023e4:	6078      	str	r0, [r7, #4]
 80023e6:	6039      	str	r1, [r7, #0]
  (void)pid;
  (void)sig;
  errno = EINVAL;
 80023e8:	f002 f952 	bl	8004690 <__errno>
 80023ec:	4603      	mov	r3, r0
 80023ee:	2216      	movs	r2, #22
 80023f0:	601a      	str	r2, [r3, #0]
  return -1;
 80023f2:	f04f 33ff 	mov.w	r3, #4294967295	@ 0xffffffff
}
 80023f6:	4618      	mov	r0, r3
 80023f8:	3708      	adds	r7, #8
 80023fa:	46bd      	mov	sp, r7
 80023fc:	bd80      	pop	{r7, pc}

080023fe <_exit>:

void _exit (int status)
{
 80023fe:	b580      	push	{r7, lr}
 8002400:	b082      	sub	sp, #8
 8002402:	af00      	add	r7, sp, #0
 8002404:	6078      	str	r0, [r7, #4]
  _kill(status, -1);
 8002406:	f04f 31ff 	mov.w	r1, #4294967295	@ 0xffffffff
 800240a:	6878      	ldr	r0, [r7, #4]
 800240c:	f7ff ffe7 	bl	80023de <_kill>
  while (1) {}    /* Make sure we hang here */
 8002410:	bf00      	nop
 8002412:	e7fd      	b.n	8002410 <_exit+0x12>

08002414 <_read>:
}

__attribute__((weak)) int _read(int file, char *ptr, int len)
{
 8002414:	b580      	push	{r7, lr}
 8002416:	b086      	sub	sp, #24
 8002418:	af00      	add	r7, sp, #0
 800241a:	60f8      	str	r0, [r7, #12]
 800241c:	60b9      	str	r1, [r7, #8]
 800241e:	607a      	str	r2, [r7, #4]
  (void)file;
  int DataIdx;

  for (DataIdx = 0; DataIdx < len; DataIdx++)
 8002420:	2300      	movs	r3, #0
 8002422:	617b      	str	r3, [r7, #20]
 8002424:	e00a      	b.n	800243c <_read+0x28>
  {
    *ptr++ = __io_getchar();
 8002426:	f3af 8000 	nop.w
 800242a:	4601      	mov	r1, r0
 800242c:	68bb      	ldr	r3, [r7, #8]
 800242e:	1c5a      	adds	r2, r3, #1
 8002430:	60ba      	str	r2, [r7, #8]
 8002432:	b2ca      	uxtb	r2, r1
 8002434:	701a      	strb	r2, [r3, #0]
  for (DataIdx = 0; DataIdx < len; DataIdx++)
 8002436:	697b      	ldr	r3, [r7, #20]
 8002438:	3301      	adds	r3, #1
 800243a:	617b      	str	r3, [r7, #20]
 800243c:	697a      	ldr	r2, [r7, #20]
 800243e:	687b      	ldr	r3, [r7, #4]
 8002440:	429a      	cmp	r2, r3
 8002442:	dbf0      	blt.n	8002426 <_read+0x12>
  }

  return len;
 8002444:	687b      	ldr	r3, [r7, #4]
}
 8002446:	4618      	mov	r0, r3
 8002448:	3718      	adds	r7, #24
 800244a:	46bd      	mov	sp, r7
 800244c:	bd80      	pop	{r7, pc}

0800244e <_write>:

__attribute__((weak)) int _write(int file, char *ptr, int len)
{
 800244e:	b580      	push	{r7, lr}
 8002450:	b086      	sub	sp, #24
 8002452:	af00      	add	r7, sp, #0
 8002454:	60f8      	str	r0, [r7, #12]
 8002456:	60b9      	str	r1, [r7, #8]
 8002458:	607a      	str	r2, [r7, #4]
  (void)file;
  int DataIdx;

  for (DataIdx = 0; DataIdx < len; DataIdx++)
 800245a:	2300      	movs	r3, #0
 800245c:	617b      	str	r3, [r7, #20]
 800245e:	e009      	b.n	8002474 <_write+0x26>
  {
    __io_putchar(*ptr++);
 8002460:	68bb      	ldr	r3, [r7, #8]
 8002462:	1c5a      	adds	r2, r3, #1
 8002464:	60ba      	str	r2, [r7, #8]
 8002466:	781b      	ldrb	r3, [r3, #0]
 8002468:	4618      	mov	r0, r3
 800246a:	f3af 8000 	nop.w
  for (DataIdx = 0; DataIdx < len; DataIdx++)
 800246e:	697b      	ldr	r3, [r7, #20]
 8002470:	3301      	adds	r3, #1
 8002472:	617b      	str	r3, [r7, #20]
 8002474:	697a      	ldr	r2, [r7, #20]
 8002476:	687b      	ldr	r3, [r7, #4]
 8002478:	429a      	cmp	r2, r3
 800247a:	dbf1      	blt.n	8002460 <_write+0x12>
  }
  return len;
 800247c:	687b      	ldr	r3, [r7, #4]
}
 800247e:	4618      	mov	r0, r3
 8002480:	3718      	adds	r7, #24
 8002482:	46bd      	mov	sp, r7
 8002484:	bd80      	pop	{r7, pc}

08002486 <_close>:

int _close(int file)
{
 8002486:	b480      	push	{r7}
 8002488:	b083      	sub	sp, #12
 800248a:	af00      	add	r7, sp, #0
 800248c:	6078      	str	r0, [r7, #4]
  (void)file;
  return -1;
 800248e:	f04f 33ff 	mov.w	r3, #4294967295	@ 0xffffffff
}
 8002492:	4618      	mov	r0, r3
 8002494:	370c      	adds	r7, #12
 8002496:	46bd      	mov	sp, r7
 8002498:	f85d 7b04 	ldr.w	r7, [sp], #4
 800249c:	4770      	bx	lr

0800249e <_fstat>:


int _fstat(int file, struct stat *st)
{
 800249e:	b480      	push	{r7}
 80024a0:	b083      	sub	sp, #12
 80024a2:	af00      	add	r7, sp, #0
 80024a4:	6078      	str	r0, [r7, #4]
 80024a6:	6039      	str	r1, [r7, #0]
  (void)file;
  st->st_mode = S_IFCHR;
 80024a8:	683b      	ldr	r3, [r7, #0]
 80024aa:	f44f 5200 	mov.w	r2, #8192	@ 0x2000
 80024ae:	605a      	str	r2, [r3, #4]
  return 0;
 80024b0:	2300      	movs	r3, #0
}
 80024b2:	4618      	mov	r0, r3
 80024b4:	370c      	adds	r7, #12
 80024b6:	46bd      	mov	sp, r7
 80024b8:	f85d 7b04 	ldr.w	r7, [sp], #4
 80024bc:	4770      	bx	lr

080024be <_isatty>:

int _isatty(int file)
{
 80024be:	b480      	push	{r7}
 80024c0:	b083      	sub	sp, #12
 80024c2:	af00      	add	r7, sp, #0
 80024c4:	6078      	str	r0, [r7, #4]
  (void)file;
  return 1;
 80024c6:	2301      	movs	r3, #1
}
 80024c8:	4618      	mov	r0, r3
 80024ca:	370c      	adds	r7, #12
 80024cc:	46bd      	mov	sp, r7
 80024ce:	f85d 7b04 	ldr.w	r7, [sp], #4
 80024d2:	4770      	bx	lr

080024d4 <_lseek>:

int _lseek(int file, int ptr, int dir)
{
 80024d4:	b480      	push	{r7}
 80024d6:	b085      	sub	sp, #20
 80024d8:	af00      	add	r7, sp, #0
 80024da:	60f8      	str	r0, [r7, #12]
 80024dc:	60b9      	str	r1, [r7, #8]
 80024de:	607a      	str	r2, [r7, #4]
  (void)file;
  (void)ptr;
  (void)dir;
  return 0;
 80024e0:	2300      	movs	r3, #0
}
 80024e2:	4618      	mov	r0, r3
 80024e4:	3714      	adds	r7, #20
 80024e6:	46bd      	mov	sp, r7
 80024e8:	f85d 7b04 	ldr.w	r7, [sp], #4
 80024ec:	4770      	bx	lr
	...

080024f0 <_sbrk>:
 *
 * @param incr Memory size
 * @return Pointer to allocated memory
 */
void *_sbrk(ptrdiff_t incr)
{
 80024f0:	b580      	push	{r7, lr}
 80024f2:	b086      	sub	sp, #24
 80024f4:	af00      	add	r7, sp, #0
 80024f6:	6078      	str	r0, [r7, #4]
  extern uint8_t _end; /* Symbol defined in the linker script */
  extern uint8_t _estack; /* Symbol defined in the linker script */
  extern uint32_t _Min_Stack_Size; /* Symbol defined in the linker script */
  const uint32_t stack_limit = (uint32_t)&_estack - (uint32_t)&_Min_Stack_Size;
 80024f8:	4a14      	ldr	r2, [pc, #80]	@ (800254c <_sbrk+0x5c>)
 80024fa:	4b15      	ldr	r3, [pc, #84]	@ (8002550 <_sbrk+0x60>)
 80024fc:	1ad3      	subs	r3, r2, r3
 80024fe:	617b      	str	r3, [r7, #20]
  const uint8_t *max_heap = (uint8_t *)stack_limit;
 8002500:	697b      	ldr	r3, [r7, #20]
 8002502:	613b      	str	r3, [r7, #16]
  uint8_t *prev_heap_end;

  /* Initialize heap end at first call */
  if (NULL == __sbrk_heap_end)
 8002504:	4b13      	ldr	r3, [pc, #76]	@ (8002554 <_sbrk+0x64>)
 8002506:	681b      	ldr	r3, [r3, #0]
 8002508:	2b00      	cmp	r3, #0
 800250a:	d102      	bne.n	8002512 <_sbrk+0x22>
  {
    __sbrk_heap_end = &_end;
 800250c:	4b11      	ldr	r3, [pc, #68]	@ (8002554 <_sbrk+0x64>)
 800250e:	4a12      	ldr	r2, [pc, #72]	@ (8002558 <_sbrk+0x68>)
 8002510:	601a      	str	r2, [r3, #0]
  }

  /* Protect heap from growing into the reserved MSP stack */
  if (__sbrk_heap_end + incr > max_heap)
 8002512:	4b10      	ldr	r3, [pc, #64]	@ (8002554 <_sbrk+0x64>)
 8002514:	681a      	ldr	r2, [r3, #0]
 8002516:	687b      	ldr	r3, [r7, #4]
 8002518:	4413      	add	r3, r2
 800251a:	693a      	ldr	r2, [r7, #16]
 800251c:	429a      	cmp	r2, r3
 800251e:	d207      	bcs.n	8002530 <_sbrk+0x40>
  {
    errno = ENOMEM;
 8002520:	f002 f8b6 	bl	8004690 <__errno>
 8002524:	4603      	mov	r3, r0
 8002526:	220c      	movs	r2, #12
 8002528:	601a      	str	r2, [r3, #0]
    return (void *)-1;
 800252a:	f04f 33ff 	mov.w	r3, #4294967295	@ 0xffffffff
 800252e:	e009      	b.n	8002544 <_sbrk+0x54>
  }

  prev_heap_end = __sbrk_heap_end;
 8002530:	4b08      	ldr	r3, [pc, #32]	@ (8002554 <_sbrk+0x64>)
 8002532:	681b      	ldr	r3, [r3, #0]
 8002534:	60fb      	str	r3, [r7, #12]
  __sbrk_heap_end += incr;
 8002536:	4b07      	ldr	r3, [pc, #28]	@ (8002554 <_sbrk+0x64>)
 8002538:	681a      	ldr	r2, [r3, #0]
 800253a:	687b      	ldr	r3, [r7, #4]
 800253c:	4413      	add	r3, r2
 800253e:	4a05      	ldr	r2, [pc, #20]	@ (8002554 <_sbrk+0x64>)
 8002540:	6013      	str	r3, [r2, #0]

  return (void *)prev_heap_end;
 8002542:	68fb      	ldr	r3, [r7, #12]
}
 8002544:	4618      	mov	r0, r3
 8002546:	3718      	adds	r7, #24
 8002548:	46bd      	mov	sp, r7
 800254a:	bd80      	pop	{r7, pc}
 800254c:	20020000 	.word	0x20020000
 8002550:	00000400 	.word	0x00000400
 8002554:	20000230 	.word	0x20000230
 8002558:	20000488 	.word	0x20000488

0800255c <SystemInit>:
  *         configuration.
  * @param  None
  * @retval None
  */
void SystemInit(void)
{
 800255c:	b480      	push	{r7}
 800255e:	af00      	add	r7, sp, #0
  /* FPU settings ------------------------------------------------------------*/
  #if (__FPU_PRESENT == 1) && (__FPU_USED == 1)
    SCB->CPACR |= ((3UL << 10*2)|(3UL << 11*2));  /* set CP10 and CP11 Full Access */
 8002560:	4b06      	ldr	r3, [pc, #24]	@ (800257c <SystemInit+0x20>)
 8002562:	f8d3 3088 	ldr.w	r3, [r3, #136]	@ 0x88
 8002566:	4a05      	ldr	r2, [pc, #20]	@ (800257c <SystemInit+0x20>)
 8002568:	f443 0370 	orr.w	r3, r3, #15728640	@ 0xf00000
 800256c:	f8c2 3088 	str.w	r3, [r2, #136]	@ 0x88

  /* Configure the Vector Table location -------------------------------------*/
#if defined(USER_VECT_TAB_ADDRESS)
  SCB->VTOR = VECT_TAB_BASE_ADDRESS | VECT_TAB_OFFSET; /* Vector Table Relocation in Internal SRAM */
#endif /* USER_VECT_TAB_ADDRESS */
}
 8002570:	bf00      	nop
 8002572:	46bd      	mov	sp, r7
 8002574:	f85d 7b04 	ldr.w	r7, [sp], #4
 8002578:	4770      	bx	lr
 800257a:	bf00      	nop
 800257c:	e000ed00 	.word	0xe000ed00

08002580 <SysTick_Handler>:
#include "timebase.h"
#include "stm32f4xx.h"

static volatile uint32_t g_ms = 0;

void SysTick_Handler(void) { g_ms++; }
 8002580:	b480      	push	{r7}
 8002582:	af00      	add	r7, sp, #0
 8002584:	4b04      	ldr	r3, [pc, #16]	@ (8002598 <SysTick_Handler+0x18>)
 8002586:	681b      	ldr	r3, [r3, #0]
 8002588:	3301      	adds	r3, #1
 800258a:	4a03      	ldr	r2, [pc, #12]	@ (8002598 <SysTick_Handler+0x18>)
 800258c:	6013      	str	r3, [r2, #0]
 800258e:	bf00      	nop
 8002590:	46bd      	mov	sp, r7
 8002592:	f85d 7b04 	ldr.w	r7, [sp], #4
 8002596:	4770      	bx	lr
 8002598:	20000234 	.word	0x20000234

0800259c <millis>:
uint32_t millis(void) { return g_ms; }
 800259c:	b480      	push	{r7}
 800259e:	af00      	add	r7, sp, #0
 80025a0:	4b03      	ldr	r3, [pc, #12]	@ (80025b0 <millis+0x14>)
 80025a2:	681b      	ldr	r3, [r3, #0]
 80025a4:	4618      	mov	r0, r3
 80025a6:	46bd      	mov	sp, r7
 80025a8:	f85d 7b04 	ldr.w	r7, [sp], #4
 80025ac:	4770      	bx	lr
 80025ae:	bf00      	nop
 80025b0:	20000234 	.word	0x20000234

080025b4 <timebase_init_1ms>:

void timebase_init_1ms(uint32_t cpu_hz) {
 80025b4:	b480      	push	{r7}
 80025b6:	b083      	sub	sp, #12
 80025b8:	af00      	add	r7, sp, #0
 80025ba:	6078      	str	r0, [r7, #4]
  SysTick->LOAD = (cpu_hz / 1000U) - 1U;
 80025bc:	687b      	ldr	r3, [r7, #4]
 80025be:	4a09      	ldr	r2, [pc, #36]	@ (80025e4 <timebase_init_1ms+0x30>)
 80025c0:	fba2 2303 	umull	r2, r3, r2, r3
 80025c4:	099b      	lsrs	r3, r3, #6
 80025c6:	4a08      	ldr	r2, [pc, #32]	@ (80025e8 <timebase_init_1ms+0x34>)
 80025c8:	3b01      	subs	r3, #1
 80025ca:	6053      	str	r3, [r2, #4]
  SysTick->VAL  = 0;
 80025cc:	4b06      	ldr	r3, [pc, #24]	@ (80025e8 <timebase_init_1ms+0x34>)
 80025ce:	2200      	movs	r2, #0
 80025d0:	609a      	str	r2, [r3, #8]
  SysTick->CTRL = SysTick_CTRL_CLKSOURCE_Msk |
 80025d2:	4b05      	ldr	r3, [pc, #20]	@ (80025e8 <timebase_init_1ms+0x34>)
 80025d4:	2207      	movs	r2, #7
 80025d6:	601a      	str	r2, [r3, #0]
                  SysTick_CTRL_TICKINT_Msk |
                  SysTick_CTRL_ENABLE_Msk;
}
 80025d8:	bf00      	nop
 80025da:	370c      	adds	r7, #12
 80025dc:	46bd      	mov	sp, r7
 80025de:	f85d 7b04 	ldr.w	r7, [sp], #4
 80025e2:	4770      	bx	lr
 80025e4:	10624dd3 	.word	0x10624dd3
 80025e8:	e000e010 	.word	0xe000e010

080025ec <__NVIC_EnableIRQ>:
{
 80025ec:	b480      	push	{r7}
 80025ee:	b083      	sub	sp, #12
 80025f0:	af00      	add	r7, sp, #0
 80025f2:	4603      	mov	r3, r0
 80025f4:	71fb      	strb	r3, [r7, #7]
  if ((int32_t)(IRQn) >= 0)
 80025f6:	f997 3007 	ldrsb.w	r3, [r7, #7]
 80025fa:	2b00      	cmp	r3, #0
 80025fc:	db0b      	blt.n	8002616 <__NVIC_EnableIRQ+0x2a>
    NVIC->ISER[(((uint32_t)IRQn) >> 5UL)] = (uint32_t)(1UL << (((uint32_t)IRQn) & 0x1FUL));
 80025fe:	79fb      	ldrb	r3, [r7, #7]
 8002600:	f003 021f 	and.w	r2, r3, #31
 8002604:	4907      	ldr	r1, [pc, #28]	@ (8002624 <__NVIC_EnableIRQ+0x38>)
 8002606:	f997 3007 	ldrsb.w	r3, [r7, #7]
 800260a:	095b      	lsrs	r3, r3, #5
 800260c:	2001      	movs	r0, #1
 800260e:	fa00 f202 	lsl.w	r2, r0, r2
 8002612:	f841 2023 	str.w	r2, [r1, r3, lsl #2]
}
 8002616:	bf00      	nop
 8002618:	370c      	adds	r7, #12
 800261a:	46bd      	mov	sp, r7
 800261c:	f85d 7b04 	ldr.w	r7, [sp], #4
 8002620:	4770      	bx	lr
 8002622:	bf00      	nop
 8002624:	e000e100 	.word	0xe000e100

08002628 <rb_next>:

#define RX_BUF_SZ 256
static volatile uint8_t  rx_buf[RX_BUF_SZ];
static volatile uint16_t rx_w = 0, rx_r = 0;

static inline uint16_t rb_next(uint16_t x){ return (uint16_t)((x + 1u) % RX_BUF_SZ); }
 8002628:	b480      	push	{r7}
 800262a:	b083      	sub	sp, #12
 800262c:	af00      	add	r7, sp, #0
 800262e:	4603      	mov	r3, r0
 8002630:	80fb      	strh	r3, [r7, #6]
 8002632:	88fb      	ldrh	r3, [r7, #6]
 8002634:	3301      	adds	r3, #1
 8002636:	b29b      	uxth	r3, r3
 8002638:	b2db      	uxtb	r3, r3
 800263a:	b29b      	uxth	r3, r3
 800263c:	4618      	mov	r0, r3
 800263e:	370c      	adds	r7, #12
 8002640:	46bd      	mov	sp, r7
 8002642:	f85d 7b04 	ldr.w	r7, [sp], #4
 8002646:	4770      	bx	lr

08002648 <rb_push>:

/* This function is the Inbox Manager.
   It is called every time the UART hardware receives a new byte from your computer. */
static void rb_push(uint8_t b){
 8002648:	b580      	push	{r7, lr}
 800264a:	b084      	sub	sp, #16
 800264c:	af00      	add	r7, sp, #0
 800264e:	4603      	mov	r3, r0
 8002650:	71fb      	strb	r3, [r7, #7]
  uint16_t nw = rb_next(rx_w);
 8002652:	4b0e      	ldr	r3, [pc, #56]	@ (800268c <rb_push+0x44>)
 8002654:	881b      	ldrh	r3, [r3, #0]
 8002656:	b29b      	uxth	r3, r3
 8002658:	4618      	mov	r0, r3
 800265a:	f7ff ffe5 	bl	8002628 <rb_next>
 800265e:	4603      	mov	r3, r0
 8002660:	81fb      	strh	r3, [r7, #14]
  if (nw == rx_r) return; // overflow drop
 8002662:	4b0b      	ldr	r3, [pc, #44]	@ (8002690 <rb_push+0x48>)
 8002664:	881b      	ldrh	r3, [r3, #0]
 8002666:	b29b      	uxth	r3, r3
 8002668:	89fa      	ldrh	r2, [r7, #14]
 800266a:	429a      	cmp	r2, r3
 800266c:	d00a      	beq.n	8002684 <rb_push+0x3c>
  rx_buf[rx_w] = b;
 800266e:	4b07      	ldr	r3, [pc, #28]	@ (800268c <rb_push+0x44>)
 8002670:	881b      	ldrh	r3, [r3, #0]
 8002672:	b29b      	uxth	r3, r3
 8002674:	4619      	mov	r1, r3
 8002676:	4a07      	ldr	r2, [pc, #28]	@ (8002694 <rb_push+0x4c>)
 8002678:	79fb      	ldrb	r3, [r7, #7]
 800267a:	5453      	strb	r3, [r2, r1]
  rx_w = nw;
 800267c:	4a03      	ldr	r2, [pc, #12]	@ (800268c <rb_push+0x44>)
 800267e:	89fb      	ldrh	r3, [r7, #14]
 8002680:	8013      	strh	r3, [r2, #0]
 8002682:	e000      	b.n	8002686 <rb_push+0x3e>
  if (nw == rx_r) return; // overflow drop
 8002684:	bf00      	nop
}
 8002686:	3710      	adds	r7, #16
 8002688:	46bd      	mov	sp, r7
 800268a:	bd80      	pop	{r7, pc}
 800268c:	20000338 	.word	0x20000338
 8002690:	2000033a 	.word	0x2000033a
 8002694:	20000238 	.word	0x20000238

08002698 <UART2_Init>:

void UART2_Init(uint32_t pclk1_hz, uint32_t baud) {
 8002698:	b580      	push	{r7, lr}
 800269a:	b082      	sub	sp, #8
 800269c:	af00      	add	r7, sp, #0
 800269e:	6078      	str	r0, [r7, #4]
 80026a0:	6039      	str	r1, [r7, #0]
  // PA2 TX, PA3 RX -> AF7
  // Enable Clocks (GPIOA = Bit 0 of AHB1, USART2 = Bit 17 of APB1)
  RCC->AHB1ENR |= (1u << 0);
 80026a2:	4b2a      	ldr	r3, [pc, #168]	@ (800274c <UART2_Init+0xb4>)
 80026a4:	6b1b      	ldr	r3, [r3, #48]	@ 0x30
 80026a6:	4a29      	ldr	r2, [pc, #164]	@ (800274c <UART2_Init+0xb4>)
 80026a8:	f043 0301 	orr.w	r3, r3, #1
 80026ac:	6313      	str	r3, [r2, #48]	@ 0x30
  RCC->APB1ENR |= (1u << 17);
 80026ae:	4b27      	ldr	r3, [pc, #156]	@ (800274c <UART2_Init+0xb4>)
 80026b0:	6c1b      	ldr	r3, [r3, #64]	@ 0x40
 80026b2:	4a26      	ldr	r2, [pc, #152]	@ (800274c <UART2_Init+0xb4>)
 80026b4:	f443 3300 	orr.w	r3, r3, #131072	@ 0x20000
 80026b8:	6413      	str	r3, [r2, #64]	@ 0x40

  GPIOA->MODER &= ~((3u << (2 * 2)) | (3u << (3 * 2)));
 80026ba:	4b25      	ldr	r3, [pc, #148]	@ (8002750 <UART2_Init+0xb8>)
 80026bc:	681b      	ldr	r3, [r3, #0]
 80026be:	4a24      	ldr	r2, [pc, #144]	@ (8002750 <UART2_Init+0xb8>)
 80026c0:	f023 03f0 	bic.w	r3, r3, #240	@ 0xf0
 80026c4:	6013      	str	r3, [r2, #0]
  GPIOA->MODER |=  ((2u << (2 * 2)) | (2u << (3 * 2)));
 80026c6:	4b22      	ldr	r3, [pc, #136]	@ (8002750 <UART2_Init+0xb8>)
 80026c8:	681b      	ldr	r3, [r3, #0]
 80026ca:	4a21      	ldr	r2, [pc, #132]	@ (8002750 <UART2_Init+0xb8>)
 80026cc:	f043 03a0 	orr.w	r3, r3, #160	@ 0xa0
 80026d0:	6013      	str	r3, [r2, #0]

  // Set Alternate Function to AF7
  GPIOA->AFR[0] &= ~((0xFu << 8) | (0xFu << 12));
 80026d2:	4b1f      	ldr	r3, [pc, #124]	@ (8002750 <UART2_Init+0xb8>)
 80026d4:	6a1b      	ldr	r3, [r3, #32]
 80026d6:	4a1e      	ldr	r2, [pc, #120]	@ (8002750 <UART2_Init+0xb8>)
 80026d8:	f423 437f 	bic.w	r3, r3, #65280	@ 0xff00
 80026dc:	6213      	str	r3, [r2, #32]
  GPIOA->AFR[0] |=  ((7u   << 8) | (7u   << 12));
 80026de:	4b1c      	ldr	r3, [pc, #112]	@ (8002750 <UART2_Init+0xb8>)
 80026e0:	6a1b      	ldr	r3, [r3, #32]
 80026e2:	4a1b      	ldr	r2, [pc, #108]	@ (8002750 <UART2_Init+0xb8>)
 80026e4:	f443 43ee 	orr.w	r3, r3, #30464	@ 0x7700
 80026e8:	6213      	str	r3, [r2, #32]

  // Restart USART Registers
  USART2->CR1 = 0;
 80026ea:	4b1a      	ldr	r3, [pc, #104]	@ (8002754 <UART2_Init+0xbc>)
 80026ec:	2200      	movs	r2, #0
 80026ee:	60da      	str	r2, [r3, #12]
  USART2->CR2 = 0;
 80026f0:	4b18      	ldr	r3, [pc, #96]	@ (8002754 <UART2_Init+0xbc>)
 80026f2:	2200      	movs	r2, #0
 80026f4:	611a      	str	r2, [r3, #16]
  USART2->CR3 = 0;
 80026f6:	4b17      	ldr	r3, [pc, #92]	@ (8002754 <UART2_Init+0xbc>)
 80026f8:	2200      	movs	r2, #0
 80026fa:	615a      	str	r2, [r3, #20]

  // Calculate Baud Rate (BRR)
  USART2->BRR = (pclk1_hz + (baud / 2u)) / baud;
 80026fc:	683b      	ldr	r3, [r7, #0]
 80026fe:	085a      	lsrs	r2, r3, #1
 8002700:	687b      	ldr	r3, [r7, #4]
 8002702:	441a      	add	r2, r3
 8002704:	4913      	ldr	r1, [pc, #76]	@ (8002754 <UART2_Init+0xbc>)
 8002706:	683b      	ldr	r3, [r7, #0]
 8002708:	fbb2 f3f3 	udiv	r3, r2, r3
 800270c:	608b      	str	r3, [r1, #8]

  // Enable RX interrupt
  USART2->CR1 |= (1u << 5);
 800270e:	4b11      	ldr	r3, [pc, #68]	@ (8002754 <UART2_Init+0xbc>)
 8002710:	68db      	ldr	r3, [r3, #12]
 8002712:	4a10      	ldr	r2, [pc, #64]	@ (8002754 <UART2_Init+0xbc>)
 8002714:	f043 0320 	orr.w	r3, r3, #32
 8002718:	60d3      	str	r3, [r2, #12]

  // Enable Transmitter
  USART2->CR1 |= (1u << 3);
 800271a:	4b0e      	ldr	r3, [pc, #56]	@ (8002754 <UART2_Init+0xbc>)
 800271c:	68db      	ldr	r3, [r3, #12]
 800271e:	4a0d      	ldr	r2, [pc, #52]	@ (8002754 <UART2_Init+0xbc>)
 8002720:	f043 0308 	orr.w	r3, r3, #8
 8002724:	60d3      	str	r3, [r2, #12]

  // Enable Receiver
  USART2->CR1 |= (1u << 2);
 8002726:	4b0b      	ldr	r3, [pc, #44]	@ (8002754 <UART2_Init+0xbc>)
 8002728:	68db      	ldr	r3, [r3, #12]
 800272a:	4a0a      	ldr	r2, [pc, #40]	@ (8002754 <UART2_Init+0xbc>)
 800272c:	f043 0304 	orr.w	r3, r3, #4
 8002730:	60d3      	str	r3, [r2, #12]

  // Enable USART
  USART2->CR1 |= (1u << 13);
 8002732:	4b08      	ldr	r3, [pc, #32]	@ (8002754 <UART2_Init+0xbc>)
 8002734:	68db      	ldr	r3, [r3, #12]
 8002736:	4a07      	ldr	r2, [pc, #28]	@ (8002754 <UART2_Init+0xbc>)
 8002738:	f443 5300 	orr.w	r3, r3, #8192	@ 0x2000
 800273c:	60d3      	str	r3, [r2, #12]

  // Enable Interrupt in NVIC (USART2 is Interrupt #38)
  NVIC_EnableIRQ(USART2_IRQn);
 800273e:	2026      	movs	r0, #38	@ 0x26
 8002740:	f7ff ff54 	bl	80025ec <__NVIC_EnableIRQ>
}
 8002744:	bf00      	nop
 8002746:	3708      	adds	r7, #8
 8002748:	46bd      	mov	sp, r7
 800274a:	bd80      	pop	{r7, pc}
 800274c:	40023800 	.word	0x40023800
 8002750:	40020000 	.word	0x40020000
 8002754:	40004400 	.word	0x40004400

08002758 <UART2_WriteChar>:

void UART2_WriteChar(char c) {
 8002758:	b480      	push	{r7}
 800275a:	b083      	sub	sp, #12
 800275c:	af00      	add	r7, sp, #0
 800275e:	4603      	mov	r3, r0
 8002760:	71fb      	strb	r3, [r7, #7]
  while (!(USART2->SR & USART_SR_TXE)) {}
 8002762:	bf00      	nop
 8002764:	4b07      	ldr	r3, [pc, #28]	@ (8002784 <UART2_WriteChar+0x2c>)
 8002766:	681b      	ldr	r3, [r3, #0]
 8002768:	f003 0380 	and.w	r3, r3, #128	@ 0x80
 800276c:	2b00      	cmp	r3, #0
 800276e:	d0f9      	beq.n	8002764 <UART2_WriteChar+0xc>
  USART2->DR = (uint8_t)c;
 8002770:	4a04      	ldr	r2, [pc, #16]	@ (8002784 <UART2_WriteChar+0x2c>)
 8002772:	79fb      	ldrb	r3, [r7, #7]
 8002774:	6053      	str	r3, [r2, #4]
}
 8002776:	bf00      	nop
 8002778:	370c      	adds	r7, #12
 800277a:	46bd      	mov	sp, r7
 800277c:	f85d 7b04 	ldr.w	r7, [sp], #4
 8002780:	4770      	bx	lr
 8002782:	bf00      	nop
 8002784:	40004400 	.word	0x40004400

08002788 <UART2_WriteStr>:

void UART2_WriteStr(const char *s) {
 8002788:	b580      	push	{r7, lr}
 800278a:	b082      	sub	sp, #8
 800278c:	af00      	add	r7, sp, #0
 800278e:	6078      	str	r0, [r7, #4]
  while (*s) UART2_WriteChar(*s++);
 8002790:	e006      	b.n	80027a0 <UART2_WriteStr+0x18>
 8002792:	687b      	ldr	r3, [r7, #4]
 8002794:	1c5a      	adds	r2, r3, #1
 8002796:	607a      	str	r2, [r7, #4]
 8002798:	781b      	ldrb	r3, [r3, #0]
 800279a:	4618      	mov	r0, r3
 800279c:	f7ff ffdc 	bl	8002758 <UART2_WriteChar>
 80027a0:	687b      	ldr	r3, [r7, #4]
 80027a2:	781b      	ldrb	r3, [r3, #0]
 80027a4:	2b00      	cmp	r3, #0
 80027a6:	d1f4      	bne.n	8002792 <UART2_WriteStr+0xa>
}
 80027a8:	bf00      	nop
 80027aa:	bf00      	nop
 80027ac:	3708      	adds	r7, #8
 80027ae:	46bd      	mov	sp, r7
 80027b0:	bd80      	pop	{r7, pc}
	...

080027b4 <UART2_OnRxIRQ>:

void UART2_OnRxIRQ(void) {
 80027b4:	b580      	push	{r7, lr}
 80027b6:	b082      	sub	sp, #8
 80027b8:	af00      	add	r7, sp, #0
  if (USART2->SR & USART_SR_RXNE) {
 80027ba:	4b08      	ldr	r3, [pc, #32]	@ (80027dc <UART2_OnRxIRQ+0x28>)
 80027bc:	681b      	ldr	r3, [r3, #0]
 80027be:	f003 0320 	and.w	r3, r3, #32
 80027c2:	2b00      	cmp	r3, #0
 80027c4:	d006      	beq.n	80027d4 <UART2_OnRxIRQ+0x20>
    uint8_t b = (uint8_t)USART2->DR;  // clears RXNE
 80027c6:	4b05      	ldr	r3, [pc, #20]	@ (80027dc <UART2_OnRxIRQ+0x28>)
 80027c8:	685b      	ldr	r3, [r3, #4]
 80027ca:	71fb      	strb	r3, [r7, #7]
    rb_push(b);
 80027cc:	79fb      	ldrb	r3, [r7, #7]
 80027ce:	4618      	mov	r0, r3
 80027d0:	f7ff ff3a 	bl	8002648 <rb_push>
  }
}
 80027d4:	bf00      	nop
 80027d6:	3708      	adds	r7, #8
 80027d8:	46bd      	mov	sp, r7
 80027da:	bd80      	pop	{r7, pc}
 80027dc:	40004400 	.word	0x40004400

080027e0 <UART2_WaitTxComplete>:

void UART2_WaitTxComplete(void) {
 80027e0:	b480      	push	{r7}
 80027e2:	af00      	add	r7, sp, #0
  while (!(USART2->SR & USART_SR_TC)) {}
 80027e4:	bf00      	nop
 80027e6:	4b06      	ldr	r3, [pc, #24]	@ (8002800 <UART2_WaitTxComplete+0x20>)
 80027e8:	681b      	ldr	r3, [r3, #0]
 80027ea:	f003 0340 	and.w	r3, r3, #64	@ 0x40
 80027ee:	2b00      	cmp	r3, #0
 80027f0:	d0f9      	beq.n	80027e6 <UART2_WaitTxComplete+0x6>
}
 80027f2:	bf00      	nop
 80027f4:	bf00      	nop
 80027f6:	46bd      	mov	sp, r7
 80027f8:	f85d 7b04 	ldr.w	r7, [sp], #4
 80027fc:	4770      	bx	lr
 80027fe:	bf00      	nop
 8002800:	40004400 	.word	0x40004400

08002804 <UART2_ReadLine>:

bool UART2_ReadLine(char *out, uint32_t maxlen) {
 8002804:	b580      	push	{r7, lr}
 8002806:	b086      	sub	sp, #24
 8002808:	af00      	add	r7, sp, #0
 800280a:	6078      	str	r0, [r7, #4]
 800280c:	6039      	str	r1, [r7, #0]
  if (maxlen < 2) return false;
 800280e:	683b      	ldr	r3, [r7, #0]
 8002810:	2b01      	cmp	r3, #1
 8002812:	d801      	bhi.n	8002818 <UART2_ReadLine+0x14>
 8002814:	2300      	movs	r3, #0
 8002816:	e043      	b.n	80028a0 <UART2_ReadLine+0x9c>

  uint16_t r = rx_r;
 8002818:	4b23      	ldr	r3, [pc, #140]	@ (80028a8 <UART2_ReadLine+0xa4>)
 800281a:	881b      	ldrh	r3, [r3, #0]
 800281c:	82fb      	strh	r3, [r7, #22]
  uint32_t n = 0;
 800281e:	2300      	movs	r3, #0
 8002820:	613b      	str	r3, [r7, #16]

  while (r != rx_w) {
 8002822:	e036      	b.n	8002892 <UART2_ReadLine+0x8e>
    char c = (char)rx_buf[r];
 8002824:	8afb      	ldrh	r3, [r7, #22]
 8002826:	4a21      	ldr	r2, [pc, #132]	@ (80028ac <UART2_ReadLine+0xa8>)
 8002828:	5cd3      	ldrb	r3, [r2, r3]
 800282a:	73fb      	strb	r3, [r7, #15]
    r = rb_next(r);
 800282c:	8afb      	ldrh	r3, [r7, #22]
 800282e:	4618      	mov	r0, r3
 8002830:	f7ff fefa 	bl	8002628 <rb_next>
 8002834:	4603      	mov	r3, r0
 8002836:	82fb      	strh	r3, [r7, #22]

    if (c == '\r') {
 8002838:	7bfb      	ldrb	r3, [r7, #15]
 800283a:	2b0d      	cmp	r3, #13
 800283c:	d028      	beq.n	8002890 <UART2_ReadLine+0x8c>
      continue;   // ignore CR
    }

    if (c == '\n') {
 800283e:	7bfb      	ldrb	r3, [r7, #15]
 8002840:	2b0a      	cmp	r3, #10
 8002842:	d10e      	bne.n	8002862 <UART2_ReadLine+0x5e>
      out[n] = '\0';
 8002844:	687a      	ldr	r2, [r7, #4]
 8002846:	693b      	ldr	r3, [r7, #16]
 8002848:	4413      	add	r3, r2
 800284a:	2200      	movs	r2, #0
 800284c:	701a      	strb	r2, [r3, #0]
      rx_r = r;
 800284e:	4a16      	ldr	r2, [pc, #88]	@ (80028a8 <UART2_ReadLine+0xa4>)
 8002850:	8afb      	ldrh	r3, [r7, #22]
 8002852:	8013      	strh	r3, [r2, #0]
      return (n > 0);
 8002854:	693b      	ldr	r3, [r7, #16]
 8002856:	2b00      	cmp	r3, #0
 8002858:	bf14      	ite	ne
 800285a:	2301      	movne	r3, #1
 800285c:	2300      	moveq	r3, #0
 800285e:	b2db      	uxtb	r3, r3
 8002860:	e01e      	b.n	80028a0 <UART2_ReadLine+0x9c>
    }

    if (n < (maxlen - 1u)) {
 8002862:	683b      	ldr	r3, [r7, #0]
 8002864:	3b01      	subs	r3, #1
 8002866:	693a      	ldr	r2, [r7, #16]
 8002868:	429a      	cmp	r2, r3
 800286a:	d207      	bcs.n	800287c <UART2_ReadLine+0x78>
      out[n++] = c;
 800286c:	693b      	ldr	r3, [r7, #16]
 800286e:	1c5a      	adds	r2, r3, #1
 8002870:	613a      	str	r2, [r7, #16]
 8002872:	687a      	ldr	r2, [r7, #4]
 8002874:	4413      	add	r3, r2
 8002876:	7bfa      	ldrb	r2, [r7, #15]
 8002878:	701a      	strb	r2, [r3, #0]
 800287a:	e00a      	b.n	8002892 <UART2_ReadLine+0x8e>
    } else {
      // line too long: terminate, consume up to newline next time
      out[n] = '\0';
 800287c:	687a      	ldr	r2, [r7, #4]
 800287e:	693b      	ldr	r3, [r7, #16]
 8002880:	4413      	add	r3, r2
 8002882:	2200      	movs	r2, #0
 8002884:	701a      	strb	r2, [r3, #0]
      rx_r = r;
 8002886:	4a08      	ldr	r2, [pc, #32]	@ (80028a8 <UART2_ReadLine+0xa4>)
 8002888:	8afb      	ldrh	r3, [r7, #22]
 800288a:	8013      	strh	r3, [r2, #0]
      return true;
 800288c:	2301      	movs	r3, #1
 800288e:	e007      	b.n	80028a0 <UART2_ReadLine+0x9c>
      continue;   // ignore CR
 8002890:	bf00      	nop
  while (r != rx_w) {
 8002892:	4b07      	ldr	r3, [pc, #28]	@ (80028b0 <UART2_ReadLine+0xac>)
 8002894:	881b      	ldrh	r3, [r3, #0]
 8002896:	b29b      	uxth	r3, r3
 8002898:	8afa      	ldrh	r2, [r7, #22]
 800289a:	429a      	cmp	r2, r3
 800289c:	d1c2      	bne.n	8002824 <UART2_ReadLine+0x20>
    }
  }

  return false;
 800289e:	2300      	movs	r3, #0
}
 80028a0:	4618      	mov	r0, r3
 80028a2:	3718      	adds	r7, #24
 80028a4:	46bd      	mov	sp, r7
 80028a6:	bd80      	pop	{r7, pc}
 80028a8:	2000033a 	.word	0x2000033a
 80028ac:	20000238 	.word	0x20000238
 80028b0:	20000338 	.word	0x20000338

080028b4 <Reset_Handler>:

    .section  .text.Reset_Handler
  .weak  Reset_Handler
  .type  Reset_Handler, %function
Reset_Handler:  
  ldr   sp, =_estack      /* set stack pointer */
 80028b4:	f8df d034 	ldr.w	sp, [pc, #52]	@ 80028ec <LoopFillZerobss+0xe>
  
/* Call the clock system initialization function.*/
  bl  SystemInit  
 80028b8:	f7ff fe50 	bl	800255c <SystemInit>

/* Copy the data segment initializers from flash to SRAM */  
  ldr r0, =_sdata
 80028bc:	480c      	ldr	r0, [pc, #48]	@ (80028f0 <LoopFillZerobss+0x12>)
  ldr r1, =_edata
 80028be:	490d      	ldr	r1, [pc, #52]	@ (80028f4 <LoopFillZerobss+0x16>)
  ldr r2, =_sidata
 80028c0:	4a0d      	ldr	r2, [pc, #52]	@ (80028f8 <LoopFillZerobss+0x1a>)
  movs r3, #0
 80028c2:	2300      	movs	r3, #0
  b LoopCopyDataInit
 80028c4:	e002      	b.n	80028cc <LoopCopyDataInit>

080028c6 <CopyDataInit>:

CopyDataInit:
  ldr r4, [r2, r3]
 80028c6:	58d4      	ldr	r4, [r2, r3]
  str r4, [r0, r3]
 80028c8:	50c4      	str	r4, [r0, r3]
  adds r3, r3, #4
 80028ca:	3304      	adds	r3, #4

080028cc <LoopCopyDataInit>:

LoopCopyDataInit:
  adds r4, r0, r3
 80028cc:	18c4      	adds	r4, r0, r3
  cmp r4, r1
 80028ce:	428c      	cmp	r4, r1
  bcc CopyDataInit
 80028d0:	d3f9      	bcc.n	80028c6 <CopyDataInit>
  
/* Zero fill the bss segment. */
  ldr r2, =_sbss
 80028d2:	4a0a      	ldr	r2, [pc, #40]	@ (80028fc <LoopFillZerobss+0x1e>)
  ldr r4, =_ebss
 80028d4:	4c0a      	ldr	r4, [pc, #40]	@ (8002900 <LoopFillZerobss+0x22>)
  movs r3, #0
 80028d6:	2300      	movs	r3, #0
  b LoopFillZerobss
 80028d8:	e001      	b.n	80028de <LoopFillZerobss>

080028da <FillZerobss>:

FillZerobss:
  str  r3, [r2]
 80028da:	6013      	str	r3, [r2, #0]
  adds r2, r2, #4
 80028dc:	3204      	adds	r2, #4

080028de <LoopFillZerobss>:

LoopFillZerobss:
  cmp r2, r4
 80028de:	42a2      	cmp	r2, r4
  bcc FillZerobss
 80028e0:	d3fb      	bcc.n	80028da <FillZerobss>
  
/* Call static constructors */
    bl __libc_init_array
 80028e2:	f001 fedb 	bl	800469c <__libc_init_array>
/* Call the application's entry point.*/
  bl  main
 80028e6:	f7ff fb47 	bl	8001f78 <main>
  bx  lr    
 80028ea:	4770      	bx	lr
  ldr   sp, =_estack      /* set stack pointer */
 80028ec:	20020000 	.word	0x20020000
  ldr r0, =_sdata
 80028f0:	20000000 	.word	0x20000000
  ldr r1, =_edata
 80028f4:	200001e4 	.word	0x200001e4
  ldr r2, =_sidata
 80028f8:	08008170 	.word	0x08008170
  ldr r2, =_sbss
 80028fc:	200001e4 	.word	0x200001e4
  ldr r4, =_ebss
 8002900:	20000488 	.word	0x20000488

08002904 <ADC_IRQHandler>:
 * @retval None       
*/
    .section  .text.Default_Handler,"ax",%progbits
Default_Handler:
Infinite_Loop:
  b  Infinite_Loop
 8002904:	e7fe      	b.n	8002904 <ADC_IRQHandler>

08002906 <__cvt>:
 8002906:	e92d 47ff 	stmdb	sp!, {r0, r1, r2, r3, r4, r5, r6, r7, r8, r9, sl, lr}
 800290a:	ec57 6b10 	vmov	r6, r7, d0
 800290e:	2f00      	cmp	r7, #0
 8002910:	460c      	mov	r4, r1
 8002912:	4619      	mov	r1, r3
 8002914:	463b      	mov	r3, r7
 8002916:	bfbb      	ittet	lt
 8002918:	f107 4300 	addlt.w	r3, r7, #2147483648	@ 0x80000000
 800291c:	461f      	movlt	r7, r3
 800291e:	2300      	movge	r3, #0
 8002920:	232d      	movlt	r3, #45	@ 0x2d
 8002922:	700b      	strb	r3, [r1, #0]
 8002924:	9b0d      	ldr	r3, [sp, #52]	@ 0x34
 8002926:	f8dd a030 	ldr.w	sl, [sp, #48]	@ 0x30
 800292a:	4691      	mov	r9, r2
 800292c:	f023 0820 	bic.w	r8, r3, #32
 8002930:	bfbc      	itt	lt
 8002932:	4632      	movlt	r2, r6
 8002934:	4616      	movlt	r6, r2
 8002936:	f1b8 0f46 	cmp.w	r8, #70	@ 0x46
 800293a:	d005      	beq.n	8002948 <__cvt+0x42>
 800293c:	f1b8 0f45 	cmp.w	r8, #69	@ 0x45
 8002940:	d100      	bne.n	8002944 <__cvt+0x3e>
 8002942:	3401      	adds	r4, #1
 8002944:	2102      	movs	r1, #2
 8002946:	e000      	b.n	800294a <__cvt+0x44>
 8002948:	2103      	movs	r1, #3
 800294a:	ab03      	add	r3, sp, #12
 800294c:	9301      	str	r3, [sp, #4]
 800294e:	ab02      	add	r3, sp, #8
 8002950:	9300      	str	r3, [sp, #0]
 8002952:	ec47 6b10 	vmov	d0, r6, r7
 8002956:	4653      	mov	r3, sl
 8002958:	4622      	mov	r2, r4
 800295a:	f001 ff81 	bl	8004860 <_dtoa_r>
 800295e:	f1b8 0f47 	cmp.w	r8, #71	@ 0x47
 8002962:	4605      	mov	r5, r0
 8002964:	d119      	bne.n	800299a <__cvt+0x94>
 8002966:	f019 0f01 	tst.w	r9, #1
 800296a:	d00e      	beq.n	800298a <__cvt+0x84>
 800296c:	eb00 0904 	add.w	r9, r0, r4
 8002970:	2200      	movs	r2, #0
 8002972:	2300      	movs	r3, #0
 8002974:	4630      	mov	r0, r6
 8002976:	4639      	mov	r1, r7
 8002978:	f7fe f8d6 	bl	8000b28 <__aeabi_dcmpeq>
 800297c:	b108      	cbz	r0, 8002982 <__cvt+0x7c>
 800297e:	f8cd 900c 	str.w	r9, [sp, #12]
 8002982:	2230      	movs	r2, #48	@ 0x30
 8002984:	9b03      	ldr	r3, [sp, #12]
 8002986:	454b      	cmp	r3, r9
 8002988:	d31e      	bcc.n	80029c8 <__cvt+0xc2>
 800298a:	9b03      	ldr	r3, [sp, #12]
 800298c:	9a0e      	ldr	r2, [sp, #56]	@ 0x38
 800298e:	1b5b      	subs	r3, r3, r5
 8002990:	4628      	mov	r0, r5
 8002992:	6013      	str	r3, [r2, #0]
 8002994:	b004      	add	sp, #16
 8002996:	e8bd 87f0 	ldmia.w	sp!, {r4, r5, r6, r7, r8, r9, sl, pc}
 800299a:	f1b8 0f46 	cmp.w	r8, #70	@ 0x46
 800299e:	eb00 0904 	add.w	r9, r0, r4
 80029a2:	d1e5      	bne.n	8002970 <__cvt+0x6a>
 80029a4:	7803      	ldrb	r3, [r0, #0]
 80029a6:	2b30      	cmp	r3, #48	@ 0x30
 80029a8:	d10a      	bne.n	80029c0 <__cvt+0xba>
 80029aa:	2200      	movs	r2, #0
 80029ac:	2300      	movs	r3, #0
 80029ae:	4630      	mov	r0, r6
 80029b0:	4639      	mov	r1, r7
 80029b2:	f7fe f8b9 	bl	8000b28 <__aeabi_dcmpeq>
 80029b6:	b918      	cbnz	r0, 80029c0 <__cvt+0xba>
 80029b8:	f1c4 0401 	rsb	r4, r4, #1
 80029bc:	f8ca 4000 	str.w	r4, [sl]
 80029c0:	f8da 3000 	ldr.w	r3, [sl]
 80029c4:	4499      	add	r9, r3
 80029c6:	e7d3      	b.n	8002970 <__cvt+0x6a>
 80029c8:	1c59      	adds	r1, r3, #1
 80029ca:	9103      	str	r1, [sp, #12]
 80029cc:	701a      	strb	r2, [r3, #0]
 80029ce:	e7d9      	b.n	8002984 <__cvt+0x7e>

080029d0 <__exponent>:
 80029d0:	b5f7      	push	{r0, r1, r2, r4, r5, r6, r7, lr}
 80029d2:	2900      	cmp	r1, #0
 80029d4:	bfba      	itte	lt
 80029d6:	4249      	neglt	r1, r1
 80029d8:	232d      	movlt	r3, #45	@ 0x2d
 80029da:	232b      	movge	r3, #43	@ 0x2b
 80029dc:	2909      	cmp	r1, #9
 80029de:	7002      	strb	r2, [r0, #0]
 80029e0:	7043      	strb	r3, [r0, #1]
 80029e2:	dd29      	ble.n	8002a38 <__exponent+0x68>
 80029e4:	f10d 0307 	add.w	r3, sp, #7
 80029e8:	461d      	mov	r5, r3
 80029ea:	270a      	movs	r7, #10
 80029ec:	461a      	mov	r2, r3
 80029ee:	fbb1 f6f7 	udiv	r6, r1, r7
 80029f2:	fb07 1416 	mls	r4, r7, r6, r1
 80029f6:	3430      	adds	r4, #48	@ 0x30
 80029f8:	f802 4c01 	strb.w	r4, [r2, #-1]
 80029fc:	460c      	mov	r4, r1
 80029fe:	2c63      	cmp	r4, #99	@ 0x63
 8002a00:	f103 33ff 	add.w	r3, r3, #4294967295	@ 0xffffffff
 8002a04:	4631      	mov	r1, r6
 8002a06:	dcf1      	bgt.n	80029ec <__exponent+0x1c>
 8002a08:	3130      	adds	r1, #48	@ 0x30
 8002a0a:	1e94      	subs	r4, r2, #2
 8002a0c:	f803 1c01 	strb.w	r1, [r3, #-1]
 8002a10:	1c41      	adds	r1, r0, #1
 8002a12:	4623      	mov	r3, r4
 8002a14:	42ab      	cmp	r3, r5
 8002a16:	d30a      	bcc.n	8002a2e <__exponent+0x5e>
 8002a18:	f10d 0309 	add.w	r3, sp, #9
 8002a1c:	1a9b      	subs	r3, r3, r2
 8002a1e:	42ac      	cmp	r4, r5
 8002a20:	bf88      	it	hi
 8002a22:	2300      	movhi	r3, #0
 8002a24:	3302      	adds	r3, #2
 8002a26:	4403      	add	r3, r0
 8002a28:	1a18      	subs	r0, r3, r0
 8002a2a:	b003      	add	sp, #12
 8002a2c:	bdf0      	pop	{r4, r5, r6, r7, pc}
 8002a2e:	f813 6b01 	ldrb.w	r6, [r3], #1
 8002a32:	f801 6f01 	strb.w	r6, [r1, #1]!
 8002a36:	e7ed      	b.n	8002a14 <__exponent+0x44>
 8002a38:	2330      	movs	r3, #48	@ 0x30
 8002a3a:	3130      	adds	r1, #48	@ 0x30
 8002a3c:	7083      	strb	r3, [r0, #2]
 8002a3e:	70c1      	strb	r1, [r0, #3]
 8002a40:	1d03      	adds	r3, r0, #4
 8002a42:	e7f1      	b.n	8002a28 <__exponent+0x58>

08002a44 <_printf_float>:
 8002a44:	e92d 4ff0 	stmdb	sp!, {r4, r5, r6, r7, r8, r9, sl, fp, lr}
 8002a48:	b08d      	sub	sp, #52	@ 0x34
 8002a4a:	460c      	mov	r4, r1
 8002a4c:	f8dd 8058 	ldr.w	r8, [sp, #88]	@ 0x58
 8002a50:	4616      	mov	r6, r2
 8002a52:	461f      	mov	r7, r3
 8002a54:	4605      	mov	r5, r0
 8002a56:	f001 fe49 	bl	80046ec <_localeconv_r>
 8002a5a:	6803      	ldr	r3, [r0, #0]
 8002a5c:	9304      	str	r3, [sp, #16]
 8002a5e:	4618      	mov	r0, r3
 8002a60:	f7fd fc36 	bl	80002d0 <strlen>
 8002a64:	2300      	movs	r3, #0
 8002a66:	930a      	str	r3, [sp, #40]	@ 0x28
 8002a68:	f8d8 3000 	ldr.w	r3, [r8]
 8002a6c:	9005      	str	r0, [sp, #20]
 8002a6e:	3307      	adds	r3, #7
 8002a70:	f023 0307 	bic.w	r3, r3, #7
 8002a74:	f103 0208 	add.w	r2, r3, #8
 8002a78:	f894 a018 	ldrb.w	sl, [r4, #24]
 8002a7c:	f8d4 b000 	ldr.w	fp, [r4]
 8002a80:	f8c8 2000 	str.w	r2, [r8]
 8002a84:	e9d3 8900 	ldrd	r8, r9, [r3]
 8002a88:	f029 4300 	bic.w	r3, r9, #2147483648	@ 0x80000000
 8002a8c:	9307      	str	r3, [sp, #28]
 8002a8e:	f8cd 8018 	str.w	r8, [sp, #24]
 8002a92:	e9c4 8912 	strd	r8, r9, [r4, #72]	@ 0x48
 8002a96:	e9dd 0106 	ldrd	r0, r1, [sp, #24]
 8002a9a:	4b9c      	ldr	r3, [pc, #624]	@ (8002d0c <_printf_float+0x2c8>)
 8002a9c:	f04f 32ff 	mov.w	r2, #4294967295	@ 0xffffffff
 8002aa0:	f7fe f874 	bl	8000b8c <__aeabi_dcmpun>
 8002aa4:	bb70      	cbnz	r0, 8002b04 <_printf_float+0xc0>
 8002aa6:	e9dd 0106 	ldrd	r0, r1, [sp, #24]
 8002aaa:	4b98      	ldr	r3, [pc, #608]	@ (8002d0c <_printf_float+0x2c8>)
 8002aac:	f04f 32ff 	mov.w	r2, #4294967295	@ 0xffffffff
 8002ab0:	f7fe f84e 	bl	8000b50 <__aeabi_dcmple>
 8002ab4:	bb30      	cbnz	r0, 8002b04 <_printf_float+0xc0>
 8002ab6:	2200      	movs	r2, #0
 8002ab8:	2300      	movs	r3, #0
 8002aba:	4640      	mov	r0, r8
 8002abc:	4649      	mov	r1, r9
 8002abe:	f7fe f83d 	bl	8000b3c <__aeabi_dcmplt>
 8002ac2:	b110      	cbz	r0, 8002aca <_printf_float+0x86>
 8002ac4:	232d      	movs	r3, #45	@ 0x2d
 8002ac6:	f884 3043 	strb.w	r3, [r4, #67]	@ 0x43
 8002aca:	4a91      	ldr	r2, [pc, #580]	@ (8002d10 <_printf_float+0x2cc>)
 8002acc:	4b91      	ldr	r3, [pc, #580]	@ (8002d14 <_printf_float+0x2d0>)
 8002ace:	f1ba 0f47 	cmp.w	sl, #71	@ 0x47
 8002ad2:	bf8c      	ite	hi
 8002ad4:	4690      	movhi	r8, r2
 8002ad6:	4698      	movls	r8, r3
 8002ad8:	2303      	movs	r3, #3
 8002ada:	6123      	str	r3, [r4, #16]
 8002adc:	f02b 0304 	bic.w	r3, fp, #4
 8002ae0:	6023      	str	r3, [r4, #0]
 8002ae2:	f04f 0900 	mov.w	r9, #0
 8002ae6:	9700      	str	r7, [sp, #0]
 8002ae8:	4633      	mov	r3, r6
 8002aea:	aa0b      	add	r2, sp, #44	@ 0x2c
 8002aec:	4621      	mov	r1, r4
 8002aee:	4628      	mov	r0, r5
 8002af0:	f000 f9d2 	bl	8002e98 <_printf_common>
 8002af4:	3001      	adds	r0, #1
 8002af6:	f040 808d 	bne.w	8002c14 <_printf_float+0x1d0>
 8002afa:	f04f 30ff 	mov.w	r0, #4294967295	@ 0xffffffff
 8002afe:	b00d      	add	sp, #52	@ 0x34
 8002b00:	e8bd 8ff0 	ldmia.w	sp!, {r4, r5, r6, r7, r8, r9, sl, fp, pc}
 8002b04:	4642      	mov	r2, r8
 8002b06:	464b      	mov	r3, r9
 8002b08:	4640      	mov	r0, r8
 8002b0a:	4649      	mov	r1, r9
 8002b0c:	f7fe f83e 	bl	8000b8c <__aeabi_dcmpun>
 8002b10:	b140      	cbz	r0, 8002b24 <_printf_float+0xe0>
 8002b12:	464b      	mov	r3, r9
 8002b14:	2b00      	cmp	r3, #0
 8002b16:	bfbc      	itt	lt
 8002b18:	232d      	movlt	r3, #45	@ 0x2d
 8002b1a:	f884 3043 	strblt.w	r3, [r4, #67]	@ 0x43
 8002b1e:	4a7e      	ldr	r2, [pc, #504]	@ (8002d18 <_printf_float+0x2d4>)
 8002b20:	4b7e      	ldr	r3, [pc, #504]	@ (8002d1c <_printf_float+0x2d8>)
 8002b22:	e7d4      	b.n	8002ace <_printf_float+0x8a>
 8002b24:	6863      	ldr	r3, [r4, #4]
 8002b26:	f00a 02df 	and.w	r2, sl, #223	@ 0xdf
 8002b2a:	9206      	str	r2, [sp, #24]
 8002b2c:	1c5a      	adds	r2, r3, #1
 8002b2e:	d13b      	bne.n	8002ba8 <_printf_float+0x164>
 8002b30:	2306      	movs	r3, #6
 8002b32:	6063      	str	r3, [r4, #4]
 8002b34:	f44b 6280 	orr.w	r2, fp, #1024	@ 0x400
 8002b38:	2300      	movs	r3, #0
 8002b3a:	6022      	str	r2, [r4, #0]
 8002b3c:	9303      	str	r3, [sp, #12]
 8002b3e:	ab0a      	add	r3, sp, #40	@ 0x28
 8002b40:	e9cd a301 	strd	sl, r3, [sp, #4]
 8002b44:	ab09      	add	r3, sp, #36	@ 0x24
 8002b46:	9300      	str	r3, [sp, #0]
 8002b48:	6861      	ldr	r1, [r4, #4]
 8002b4a:	ec49 8b10 	vmov	d0, r8, r9
 8002b4e:	f10d 0323 	add.w	r3, sp, #35	@ 0x23
 8002b52:	4628      	mov	r0, r5
 8002b54:	f7ff fed7 	bl	8002906 <__cvt>
 8002b58:	9b06      	ldr	r3, [sp, #24]
 8002b5a:	9909      	ldr	r1, [sp, #36]	@ 0x24
 8002b5c:	2b47      	cmp	r3, #71	@ 0x47
 8002b5e:	4680      	mov	r8, r0
 8002b60:	d129      	bne.n	8002bb6 <_printf_float+0x172>
 8002b62:	1cc8      	adds	r0, r1, #3
 8002b64:	db02      	blt.n	8002b6c <_printf_float+0x128>
 8002b66:	6863      	ldr	r3, [r4, #4]
 8002b68:	4299      	cmp	r1, r3
 8002b6a:	dd41      	ble.n	8002bf0 <_printf_float+0x1ac>
 8002b6c:	f1aa 0a02 	sub.w	sl, sl, #2
 8002b70:	fa5f fa8a 	uxtb.w	sl, sl
 8002b74:	3901      	subs	r1, #1
 8002b76:	4652      	mov	r2, sl
 8002b78:	f104 0050 	add.w	r0, r4, #80	@ 0x50
 8002b7c:	9109      	str	r1, [sp, #36]	@ 0x24
 8002b7e:	f7ff ff27 	bl	80029d0 <__exponent>
 8002b82:	9a0a      	ldr	r2, [sp, #40]	@ 0x28
 8002b84:	1813      	adds	r3, r2, r0
 8002b86:	2a01      	cmp	r2, #1
 8002b88:	4681      	mov	r9, r0
 8002b8a:	6123      	str	r3, [r4, #16]
 8002b8c:	dc02      	bgt.n	8002b94 <_printf_float+0x150>
 8002b8e:	6822      	ldr	r2, [r4, #0]
 8002b90:	07d2      	lsls	r2, r2, #31
 8002b92:	d501      	bpl.n	8002b98 <_printf_float+0x154>
 8002b94:	3301      	adds	r3, #1
 8002b96:	6123      	str	r3, [r4, #16]
 8002b98:	f89d 3023 	ldrb.w	r3, [sp, #35]	@ 0x23
 8002b9c:	2b00      	cmp	r3, #0
 8002b9e:	d0a2      	beq.n	8002ae6 <_printf_float+0xa2>
 8002ba0:	232d      	movs	r3, #45	@ 0x2d
 8002ba2:	f884 3043 	strb.w	r3, [r4, #67]	@ 0x43
 8002ba6:	e79e      	b.n	8002ae6 <_printf_float+0xa2>
 8002ba8:	9a06      	ldr	r2, [sp, #24]
 8002baa:	2a47      	cmp	r2, #71	@ 0x47
 8002bac:	d1c2      	bne.n	8002b34 <_printf_float+0xf0>
 8002bae:	2b00      	cmp	r3, #0
 8002bb0:	d1c0      	bne.n	8002b34 <_printf_float+0xf0>
 8002bb2:	2301      	movs	r3, #1
 8002bb4:	e7bd      	b.n	8002b32 <_printf_float+0xee>
 8002bb6:	f1ba 0f65 	cmp.w	sl, #101	@ 0x65
 8002bba:	d9db      	bls.n	8002b74 <_printf_float+0x130>
 8002bbc:	f1ba 0f66 	cmp.w	sl, #102	@ 0x66
 8002bc0:	d118      	bne.n	8002bf4 <_printf_float+0x1b0>
 8002bc2:	2900      	cmp	r1, #0
 8002bc4:	6863      	ldr	r3, [r4, #4]
 8002bc6:	dd0b      	ble.n	8002be0 <_printf_float+0x19c>
 8002bc8:	6121      	str	r1, [r4, #16]
 8002bca:	b913      	cbnz	r3, 8002bd2 <_printf_float+0x18e>
 8002bcc:	6822      	ldr	r2, [r4, #0]
 8002bce:	07d0      	lsls	r0, r2, #31
 8002bd0:	d502      	bpl.n	8002bd8 <_printf_float+0x194>
 8002bd2:	3301      	adds	r3, #1
 8002bd4:	440b      	add	r3, r1
 8002bd6:	6123      	str	r3, [r4, #16]
 8002bd8:	65a1      	str	r1, [r4, #88]	@ 0x58
 8002bda:	f04f 0900 	mov.w	r9, #0
 8002bde:	e7db      	b.n	8002b98 <_printf_float+0x154>
 8002be0:	b913      	cbnz	r3, 8002be8 <_printf_float+0x1a4>
 8002be2:	6822      	ldr	r2, [r4, #0]
 8002be4:	07d2      	lsls	r2, r2, #31
 8002be6:	d501      	bpl.n	8002bec <_printf_float+0x1a8>
 8002be8:	3302      	adds	r3, #2
 8002bea:	e7f4      	b.n	8002bd6 <_printf_float+0x192>
 8002bec:	2301      	movs	r3, #1
 8002bee:	e7f2      	b.n	8002bd6 <_printf_float+0x192>
 8002bf0:	f04f 0a67 	mov.w	sl, #103	@ 0x67
 8002bf4:	9b0a      	ldr	r3, [sp, #40]	@ 0x28
 8002bf6:	4299      	cmp	r1, r3
 8002bf8:	db05      	blt.n	8002c06 <_printf_float+0x1c2>
 8002bfa:	6823      	ldr	r3, [r4, #0]
 8002bfc:	6121      	str	r1, [r4, #16]
 8002bfe:	07d8      	lsls	r0, r3, #31
 8002c00:	d5ea      	bpl.n	8002bd8 <_printf_float+0x194>
 8002c02:	1c4b      	adds	r3, r1, #1
 8002c04:	e7e7      	b.n	8002bd6 <_printf_float+0x192>
 8002c06:	2900      	cmp	r1, #0
 8002c08:	bfd4      	ite	le
 8002c0a:	f1c1 0202 	rsble	r2, r1, #2
 8002c0e:	2201      	movgt	r2, #1
 8002c10:	4413      	add	r3, r2
 8002c12:	e7e0      	b.n	8002bd6 <_printf_float+0x192>
 8002c14:	6823      	ldr	r3, [r4, #0]
 8002c16:	055a      	lsls	r2, r3, #21
 8002c18:	d407      	bmi.n	8002c2a <_printf_float+0x1e6>
 8002c1a:	6923      	ldr	r3, [r4, #16]
 8002c1c:	4642      	mov	r2, r8
 8002c1e:	4631      	mov	r1, r6
 8002c20:	4628      	mov	r0, r5
 8002c22:	47b8      	blx	r7
 8002c24:	3001      	adds	r0, #1
 8002c26:	d12b      	bne.n	8002c80 <_printf_float+0x23c>
 8002c28:	e767      	b.n	8002afa <_printf_float+0xb6>
 8002c2a:	f1ba 0f65 	cmp.w	sl, #101	@ 0x65
 8002c2e:	f240 80dd 	bls.w	8002dec <_printf_float+0x3a8>
 8002c32:	e9d4 0112 	ldrd	r0, r1, [r4, #72]	@ 0x48
 8002c36:	2200      	movs	r2, #0
 8002c38:	2300      	movs	r3, #0
 8002c3a:	f7fd ff75 	bl	8000b28 <__aeabi_dcmpeq>
 8002c3e:	2800      	cmp	r0, #0
 8002c40:	d033      	beq.n	8002caa <_printf_float+0x266>
 8002c42:	4a37      	ldr	r2, [pc, #220]	@ (8002d20 <_printf_float+0x2dc>)
 8002c44:	2301      	movs	r3, #1
 8002c46:	4631      	mov	r1, r6
 8002c48:	4628      	mov	r0, r5
 8002c4a:	47b8      	blx	r7
 8002c4c:	3001      	adds	r0, #1
 8002c4e:	f43f af54 	beq.w	8002afa <_printf_float+0xb6>
 8002c52:	e9dd 3809 	ldrd	r3, r8, [sp, #36]	@ 0x24
 8002c56:	4543      	cmp	r3, r8
 8002c58:	db02      	blt.n	8002c60 <_printf_float+0x21c>
 8002c5a:	6823      	ldr	r3, [r4, #0]
 8002c5c:	07d8      	lsls	r0, r3, #31
 8002c5e:	d50f      	bpl.n	8002c80 <_printf_float+0x23c>
 8002c60:	e9dd 2304 	ldrd	r2, r3, [sp, #16]
 8002c64:	4631      	mov	r1, r6
 8002c66:	4628      	mov	r0, r5
 8002c68:	47b8      	blx	r7
 8002c6a:	3001      	adds	r0, #1
 8002c6c:	f43f af45 	beq.w	8002afa <_printf_float+0xb6>
 8002c70:	f04f 0900 	mov.w	r9, #0
 8002c74:	f108 38ff 	add.w	r8, r8, #4294967295	@ 0xffffffff
 8002c78:	f104 0a1a 	add.w	sl, r4, #26
 8002c7c:	45c8      	cmp	r8, r9
 8002c7e:	dc09      	bgt.n	8002c94 <_printf_float+0x250>
 8002c80:	6823      	ldr	r3, [r4, #0]
 8002c82:	079b      	lsls	r3, r3, #30
 8002c84:	f100 8103 	bmi.w	8002e8e <_printf_float+0x44a>
 8002c88:	68e0      	ldr	r0, [r4, #12]
 8002c8a:	9b0b      	ldr	r3, [sp, #44]	@ 0x2c
 8002c8c:	4298      	cmp	r0, r3
 8002c8e:	bfb8      	it	lt
 8002c90:	4618      	movlt	r0, r3
 8002c92:	e734      	b.n	8002afe <_printf_float+0xba>
 8002c94:	2301      	movs	r3, #1
 8002c96:	4652      	mov	r2, sl
 8002c98:	4631      	mov	r1, r6
 8002c9a:	4628      	mov	r0, r5
 8002c9c:	47b8      	blx	r7
 8002c9e:	3001      	adds	r0, #1
 8002ca0:	f43f af2b 	beq.w	8002afa <_printf_float+0xb6>
 8002ca4:	f109 0901 	add.w	r9, r9, #1
 8002ca8:	e7e8      	b.n	8002c7c <_printf_float+0x238>
 8002caa:	9b09      	ldr	r3, [sp, #36]	@ 0x24
 8002cac:	2b00      	cmp	r3, #0
 8002cae:	dc39      	bgt.n	8002d24 <_printf_float+0x2e0>
 8002cb0:	4a1b      	ldr	r2, [pc, #108]	@ (8002d20 <_printf_float+0x2dc>)
 8002cb2:	2301      	movs	r3, #1
 8002cb4:	4631      	mov	r1, r6
 8002cb6:	4628      	mov	r0, r5
 8002cb8:	47b8      	blx	r7
 8002cba:	3001      	adds	r0, #1
 8002cbc:	f43f af1d 	beq.w	8002afa <_printf_float+0xb6>
 8002cc0:	e9dd 3909 	ldrd	r3, r9, [sp, #36]	@ 0x24
 8002cc4:	ea59 0303 	orrs.w	r3, r9, r3
 8002cc8:	d102      	bne.n	8002cd0 <_printf_float+0x28c>
 8002cca:	6823      	ldr	r3, [r4, #0]
 8002ccc:	07d9      	lsls	r1, r3, #31
 8002cce:	d5d7      	bpl.n	8002c80 <_printf_float+0x23c>
 8002cd0:	e9dd 2304 	ldrd	r2, r3, [sp, #16]
 8002cd4:	4631      	mov	r1, r6
 8002cd6:	4628      	mov	r0, r5
 8002cd8:	47b8      	blx	r7
 8002cda:	3001      	adds	r0, #1
 8002cdc:	f43f af0d 	beq.w	8002afa <_printf_float+0xb6>
 8002ce0:	f04f 0a00 	mov.w	sl, #0
 8002ce4:	f104 0b1a 	add.w	fp, r4, #26
 8002ce8:	9b09      	ldr	r3, [sp, #36]	@ 0x24
 8002cea:	425b      	negs	r3, r3
 8002cec:	4553      	cmp	r3, sl
 8002cee:	dc01      	bgt.n	8002cf4 <_printf_float+0x2b0>
 8002cf0:	464b      	mov	r3, r9
 8002cf2:	e793      	b.n	8002c1c <_printf_float+0x1d8>
 8002cf4:	2301      	movs	r3, #1
 8002cf6:	465a      	mov	r2, fp
 8002cf8:	4631      	mov	r1, r6
 8002cfa:	4628      	mov	r0, r5
 8002cfc:	47b8      	blx	r7
 8002cfe:	3001      	adds	r0, #1
 8002d00:	f43f aefb 	beq.w	8002afa <_printf_float+0xb6>
 8002d04:	f10a 0a01 	add.w	sl, sl, #1
 8002d08:	e7ee      	b.n	8002ce8 <_printf_float+0x2a4>
 8002d0a:	bf00      	nop
 8002d0c:	7fefffff 	.word	0x7fefffff
 8002d10:	08007d1e 	.word	0x08007d1e
 8002d14:	08007d1a 	.word	0x08007d1a
 8002d18:	08007d26 	.word	0x08007d26
 8002d1c:	08007d22 	.word	0x08007d22
 8002d20:	08007e6f 	.word	0x08007e6f
 8002d24:	6da3      	ldr	r3, [r4, #88]	@ 0x58
 8002d26:	f8dd a028 	ldr.w	sl, [sp, #40]	@ 0x28
 8002d2a:	4553      	cmp	r3, sl
 8002d2c:	bfa8      	it	ge
 8002d2e:	4653      	movge	r3, sl
 8002d30:	2b00      	cmp	r3, #0
 8002d32:	4699      	mov	r9, r3
 8002d34:	dc36      	bgt.n	8002da4 <_printf_float+0x360>
 8002d36:	f04f 0b00 	mov.w	fp, #0
 8002d3a:	ea29 79e9 	bic.w	r9, r9, r9, asr #31
 8002d3e:	f104 021a 	add.w	r2, r4, #26
 8002d42:	6da3      	ldr	r3, [r4, #88]	@ 0x58
 8002d44:	9306      	str	r3, [sp, #24]
 8002d46:	eba3 0309 	sub.w	r3, r3, r9
 8002d4a:	455b      	cmp	r3, fp
 8002d4c:	dc31      	bgt.n	8002db2 <_printf_float+0x36e>
 8002d4e:	9b09      	ldr	r3, [sp, #36]	@ 0x24
 8002d50:	459a      	cmp	sl, r3
 8002d52:	dc3a      	bgt.n	8002dca <_printf_float+0x386>
 8002d54:	6823      	ldr	r3, [r4, #0]
 8002d56:	07da      	lsls	r2, r3, #31
 8002d58:	d437      	bmi.n	8002dca <_printf_float+0x386>
 8002d5a:	9b09      	ldr	r3, [sp, #36]	@ 0x24
 8002d5c:	ebaa 0903 	sub.w	r9, sl, r3
 8002d60:	9b06      	ldr	r3, [sp, #24]
 8002d62:	ebaa 0303 	sub.w	r3, sl, r3
 8002d66:	4599      	cmp	r9, r3
 8002d68:	bfa8      	it	ge
 8002d6a:	4699      	movge	r9, r3
 8002d6c:	f1b9 0f00 	cmp.w	r9, #0
 8002d70:	dc33      	bgt.n	8002dda <_printf_float+0x396>
 8002d72:	f04f 0800 	mov.w	r8, #0
 8002d76:	ea29 79e9 	bic.w	r9, r9, r9, asr #31
 8002d7a:	f104 0b1a 	add.w	fp, r4, #26
 8002d7e:	9b09      	ldr	r3, [sp, #36]	@ 0x24
 8002d80:	ebaa 0303 	sub.w	r3, sl, r3
 8002d84:	eba3 0309 	sub.w	r3, r3, r9
 8002d88:	4543      	cmp	r3, r8
 8002d8a:	f77f af79 	ble.w	8002c80 <_printf_float+0x23c>
 8002d8e:	2301      	movs	r3, #1
 8002d90:	465a      	mov	r2, fp
 8002d92:	4631      	mov	r1, r6
 8002d94:	4628      	mov	r0, r5
 8002d96:	47b8      	blx	r7
 8002d98:	3001      	adds	r0, #1
 8002d9a:	f43f aeae 	beq.w	8002afa <_printf_float+0xb6>
 8002d9e:	f108 0801 	add.w	r8, r8, #1
 8002da2:	e7ec      	b.n	8002d7e <_printf_float+0x33a>
 8002da4:	4642      	mov	r2, r8
 8002da6:	4631      	mov	r1, r6
 8002da8:	4628      	mov	r0, r5
 8002daa:	47b8      	blx	r7
 8002dac:	3001      	adds	r0, #1
 8002dae:	d1c2      	bne.n	8002d36 <_printf_float+0x2f2>
 8002db0:	e6a3      	b.n	8002afa <_printf_float+0xb6>
 8002db2:	2301      	movs	r3, #1
 8002db4:	4631      	mov	r1, r6
 8002db6:	4628      	mov	r0, r5
 8002db8:	9206      	str	r2, [sp, #24]
 8002dba:	47b8      	blx	r7
 8002dbc:	3001      	adds	r0, #1
 8002dbe:	f43f ae9c 	beq.w	8002afa <_printf_float+0xb6>
 8002dc2:	9a06      	ldr	r2, [sp, #24]
 8002dc4:	f10b 0b01 	add.w	fp, fp, #1
 8002dc8:	e7bb      	b.n	8002d42 <_printf_float+0x2fe>
 8002dca:	e9dd 2304 	ldrd	r2, r3, [sp, #16]
 8002dce:	4631      	mov	r1, r6
 8002dd0:	4628      	mov	r0, r5
 8002dd2:	47b8      	blx	r7
 8002dd4:	3001      	adds	r0, #1
 8002dd6:	d1c0      	bne.n	8002d5a <_printf_float+0x316>
 8002dd8:	e68f      	b.n	8002afa <_printf_float+0xb6>
 8002dda:	9a06      	ldr	r2, [sp, #24]
 8002ddc:	464b      	mov	r3, r9
 8002dde:	4442      	add	r2, r8
 8002de0:	4631      	mov	r1, r6
 8002de2:	4628      	mov	r0, r5
 8002de4:	47b8      	blx	r7
 8002de6:	3001      	adds	r0, #1
 8002de8:	d1c3      	bne.n	8002d72 <_printf_float+0x32e>
 8002dea:	e686      	b.n	8002afa <_printf_float+0xb6>
 8002dec:	f8dd a028 	ldr.w	sl, [sp, #40]	@ 0x28
 8002df0:	f1ba 0f01 	cmp.w	sl, #1
 8002df4:	dc01      	bgt.n	8002dfa <_printf_float+0x3b6>
 8002df6:	07db      	lsls	r3, r3, #31
 8002df8:	d536      	bpl.n	8002e68 <_printf_float+0x424>
 8002dfa:	2301      	movs	r3, #1
 8002dfc:	4642      	mov	r2, r8
 8002dfe:	4631      	mov	r1, r6
 8002e00:	4628      	mov	r0, r5
 8002e02:	47b8      	blx	r7
 8002e04:	3001      	adds	r0, #1
 8002e06:	f43f ae78 	beq.w	8002afa <_printf_float+0xb6>
 8002e0a:	e9dd 2304 	ldrd	r2, r3, [sp, #16]
 8002e0e:	4631      	mov	r1, r6
 8002e10:	4628      	mov	r0, r5
 8002e12:	47b8      	blx	r7
 8002e14:	3001      	adds	r0, #1
 8002e16:	f43f ae70 	beq.w	8002afa <_printf_float+0xb6>
 8002e1a:	e9d4 0112 	ldrd	r0, r1, [r4, #72]	@ 0x48
 8002e1e:	2200      	movs	r2, #0
 8002e20:	2300      	movs	r3, #0
 8002e22:	f10a 3aff 	add.w	sl, sl, #4294967295	@ 0xffffffff
 8002e26:	f7fd fe7f 	bl	8000b28 <__aeabi_dcmpeq>
 8002e2a:	b9c0      	cbnz	r0, 8002e5e <_printf_float+0x41a>
 8002e2c:	4653      	mov	r3, sl
 8002e2e:	f108 0201 	add.w	r2, r8, #1
 8002e32:	4631      	mov	r1, r6
 8002e34:	4628      	mov	r0, r5
 8002e36:	47b8      	blx	r7
 8002e38:	3001      	adds	r0, #1
 8002e3a:	d10c      	bne.n	8002e56 <_printf_float+0x412>
 8002e3c:	e65d      	b.n	8002afa <_printf_float+0xb6>
 8002e3e:	2301      	movs	r3, #1
 8002e40:	465a      	mov	r2, fp
 8002e42:	4631      	mov	r1, r6
 8002e44:	4628      	mov	r0, r5
 8002e46:	47b8      	blx	r7
 8002e48:	3001      	adds	r0, #1
 8002e4a:	f43f ae56 	beq.w	8002afa <_printf_float+0xb6>
 8002e4e:	f108 0801 	add.w	r8, r8, #1
 8002e52:	45d0      	cmp	r8, sl
 8002e54:	dbf3      	blt.n	8002e3e <_printf_float+0x3fa>
 8002e56:	464b      	mov	r3, r9
 8002e58:	f104 0250 	add.w	r2, r4, #80	@ 0x50
 8002e5c:	e6df      	b.n	8002c1e <_printf_float+0x1da>
 8002e5e:	f04f 0800 	mov.w	r8, #0
 8002e62:	f104 0b1a 	add.w	fp, r4, #26
 8002e66:	e7f4      	b.n	8002e52 <_printf_float+0x40e>
 8002e68:	2301      	movs	r3, #1
 8002e6a:	4642      	mov	r2, r8
 8002e6c:	e7e1      	b.n	8002e32 <_printf_float+0x3ee>
 8002e6e:	2301      	movs	r3, #1
 8002e70:	464a      	mov	r2, r9
 8002e72:	4631      	mov	r1, r6
 8002e74:	4628      	mov	r0, r5
 8002e76:	47b8      	blx	r7
 8002e78:	3001      	adds	r0, #1
 8002e7a:	f43f ae3e 	beq.w	8002afa <_printf_float+0xb6>
 8002e7e:	f108 0801 	add.w	r8, r8, #1
 8002e82:	68e3      	ldr	r3, [r4, #12]
 8002e84:	990b      	ldr	r1, [sp, #44]	@ 0x2c
 8002e86:	1a5b      	subs	r3, r3, r1
 8002e88:	4543      	cmp	r3, r8
 8002e8a:	dcf0      	bgt.n	8002e6e <_printf_float+0x42a>
 8002e8c:	e6fc      	b.n	8002c88 <_printf_float+0x244>
 8002e8e:	f04f 0800 	mov.w	r8, #0
 8002e92:	f104 0919 	add.w	r9, r4, #25
 8002e96:	e7f4      	b.n	8002e82 <_printf_float+0x43e>

08002e98 <_printf_common>:
 8002e98:	e92d 47f0 	stmdb	sp!, {r4, r5, r6, r7, r8, r9, sl, lr}
 8002e9c:	4616      	mov	r6, r2
 8002e9e:	4698      	mov	r8, r3
 8002ea0:	688a      	ldr	r2, [r1, #8]
 8002ea2:	690b      	ldr	r3, [r1, #16]
 8002ea4:	f8dd 9020 	ldr.w	r9, [sp, #32]
 8002ea8:	4293      	cmp	r3, r2
 8002eaa:	bfb8      	it	lt
 8002eac:	4613      	movlt	r3, r2
 8002eae:	6033      	str	r3, [r6, #0]
 8002eb0:	f891 2043 	ldrb.w	r2, [r1, #67]	@ 0x43
 8002eb4:	4607      	mov	r7, r0
 8002eb6:	460c      	mov	r4, r1
 8002eb8:	b10a      	cbz	r2, 8002ebe <_printf_common+0x26>
 8002eba:	3301      	adds	r3, #1
 8002ebc:	6033      	str	r3, [r6, #0]
 8002ebe:	6823      	ldr	r3, [r4, #0]
 8002ec0:	0699      	lsls	r1, r3, #26
 8002ec2:	bf42      	ittt	mi
 8002ec4:	6833      	ldrmi	r3, [r6, #0]
 8002ec6:	3302      	addmi	r3, #2
 8002ec8:	6033      	strmi	r3, [r6, #0]
 8002eca:	6825      	ldr	r5, [r4, #0]
 8002ecc:	f015 0506 	ands.w	r5, r5, #6
 8002ed0:	d106      	bne.n	8002ee0 <_printf_common+0x48>
 8002ed2:	f104 0a19 	add.w	sl, r4, #25
 8002ed6:	68e3      	ldr	r3, [r4, #12]
 8002ed8:	6832      	ldr	r2, [r6, #0]
 8002eda:	1a9b      	subs	r3, r3, r2
 8002edc:	42ab      	cmp	r3, r5
 8002ede:	dc26      	bgt.n	8002f2e <_printf_common+0x96>
 8002ee0:	f894 3043 	ldrb.w	r3, [r4, #67]	@ 0x43
 8002ee4:	6822      	ldr	r2, [r4, #0]
 8002ee6:	3b00      	subs	r3, #0
 8002ee8:	bf18      	it	ne
 8002eea:	2301      	movne	r3, #1
 8002eec:	0692      	lsls	r2, r2, #26
 8002eee:	d42b      	bmi.n	8002f48 <_printf_common+0xb0>
 8002ef0:	f104 0243 	add.w	r2, r4, #67	@ 0x43
 8002ef4:	4641      	mov	r1, r8
 8002ef6:	4638      	mov	r0, r7
 8002ef8:	47c8      	blx	r9
 8002efa:	3001      	adds	r0, #1
 8002efc:	d01e      	beq.n	8002f3c <_printf_common+0xa4>
 8002efe:	6823      	ldr	r3, [r4, #0]
 8002f00:	6922      	ldr	r2, [r4, #16]
 8002f02:	f003 0306 	and.w	r3, r3, #6
 8002f06:	2b04      	cmp	r3, #4
 8002f08:	bf02      	ittt	eq
 8002f0a:	68e5      	ldreq	r5, [r4, #12]
 8002f0c:	6833      	ldreq	r3, [r6, #0]
 8002f0e:	1aed      	subeq	r5, r5, r3
 8002f10:	68a3      	ldr	r3, [r4, #8]
 8002f12:	bf0c      	ite	eq
 8002f14:	ea25 75e5 	biceq.w	r5, r5, r5, asr #31
 8002f18:	2500      	movne	r5, #0
 8002f1a:	4293      	cmp	r3, r2
 8002f1c:	bfc4      	itt	gt
 8002f1e:	1a9b      	subgt	r3, r3, r2
 8002f20:	18ed      	addgt	r5, r5, r3
 8002f22:	2600      	movs	r6, #0
 8002f24:	341a      	adds	r4, #26
 8002f26:	42b5      	cmp	r5, r6
 8002f28:	d11a      	bne.n	8002f60 <_printf_common+0xc8>
 8002f2a:	2000      	movs	r0, #0
 8002f2c:	e008      	b.n	8002f40 <_printf_common+0xa8>
 8002f2e:	2301      	movs	r3, #1
 8002f30:	4652      	mov	r2, sl
 8002f32:	4641      	mov	r1, r8
 8002f34:	4638      	mov	r0, r7
 8002f36:	47c8      	blx	r9
 8002f38:	3001      	adds	r0, #1
 8002f3a:	d103      	bne.n	8002f44 <_printf_common+0xac>
 8002f3c:	f04f 30ff 	mov.w	r0, #4294967295	@ 0xffffffff
 8002f40:	e8bd 87f0 	ldmia.w	sp!, {r4, r5, r6, r7, r8, r9, sl, pc}
 8002f44:	3501      	adds	r5, #1
 8002f46:	e7c6      	b.n	8002ed6 <_printf_common+0x3e>
 8002f48:	18e1      	adds	r1, r4, r3
 8002f4a:	1c5a      	adds	r2, r3, #1
 8002f4c:	2030      	movs	r0, #48	@ 0x30
 8002f4e:	f881 0043 	strb.w	r0, [r1, #67]	@ 0x43
 8002f52:	4422      	add	r2, r4
 8002f54:	f894 1045 	ldrb.w	r1, [r4, #69]	@ 0x45
 8002f58:	f882 1043 	strb.w	r1, [r2, #67]	@ 0x43
 8002f5c:	3302      	adds	r3, #2
 8002f5e:	e7c7      	b.n	8002ef0 <_printf_common+0x58>
 8002f60:	2301      	movs	r3, #1
 8002f62:	4622      	mov	r2, r4
 8002f64:	4641      	mov	r1, r8
 8002f66:	4638      	mov	r0, r7
 8002f68:	47c8      	blx	r9
 8002f6a:	3001      	adds	r0, #1
 8002f6c:	d0e6      	beq.n	8002f3c <_printf_common+0xa4>
 8002f6e:	3601      	adds	r6, #1
 8002f70:	e7d9      	b.n	8002f26 <_printf_common+0x8e>
	...

08002f74 <_printf_i>:
 8002f74:	e92d 47ff 	stmdb	sp!, {r0, r1, r2, r3, r4, r5, r6, r7, r8, r9, sl, lr}
 8002f78:	7e0f      	ldrb	r7, [r1, #24]
 8002f7a:	9e0c      	ldr	r6, [sp, #48]	@ 0x30
 8002f7c:	2f78      	cmp	r7, #120	@ 0x78
 8002f7e:	4691      	mov	r9, r2
 8002f80:	4680      	mov	r8, r0
 8002f82:	460c      	mov	r4, r1
 8002f84:	469a      	mov	sl, r3
 8002f86:	f101 0243 	add.w	r2, r1, #67	@ 0x43
 8002f8a:	d807      	bhi.n	8002f9c <_printf_i+0x28>
 8002f8c:	2f62      	cmp	r7, #98	@ 0x62
 8002f8e:	d80a      	bhi.n	8002fa6 <_printf_i+0x32>
 8002f90:	2f00      	cmp	r7, #0
 8002f92:	f000 80d1 	beq.w	8003138 <_printf_i+0x1c4>
 8002f96:	2f58      	cmp	r7, #88	@ 0x58
 8002f98:	f000 80b8 	beq.w	800310c <_printf_i+0x198>
 8002f9c:	f104 0642 	add.w	r6, r4, #66	@ 0x42
 8002fa0:	f884 7042 	strb.w	r7, [r4, #66]	@ 0x42
 8002fa4:	e03a      	b.n	800301c <_printf_i+0xa8>
 8002fa6:	f1a7 0363 	sub.w	r3, r7, #99	@ 0x63
 8002faa:	2b15      	cmp	r3, #21
 8002fac:	d8f6      	bhi.n	8002f9c <_printf_i+0x28>
 8002fae:	a101      	add	r1, pc, #4	@ (adr r1, 8002fb4 <_printf_i+0x40>)
 8002fb0:	f851 f023 	ldr.w	pc, [r1, r3, lsl #2]
 8002fb4:	0800300d 	.word	0x0800300d
 8002fb8:	08003021 	.word	0x08003021
 8002fbc:	08002f9d 	.word	0x08002f9d
 8002fc0:	08002f9d 	.word	0x08002f9d
 8002fc4:	08002f9d 	.word	0x08002f9d
 8002fc8:	08002f9d 	.word	0x08002f9d
 8002fcc:	08003021 	.word	0x08003021
 8002fd0:	08002f9d 	.word	0x08002f9d
 8002fd4:	08002f9d 	.word	0x08002f9d
 8002fd8:	08002f9d 	.word	0x08002f9d
 8002fdc:	08002f9d 	.word	0x08002f9d
 8002fe0:	0800311f 	.word	0x0800311f
 8002fe4:	0800304b 	.word	0x0800304b
 8002fe8:	080030d9 	.word	0x080030d9
 8002fec:	08002f9d 	.word	0x08002f9d
 8002ff0:	08002f9d 	.word	0x08002f9d
 8002ff4:	08003141 	.word	0x08003141
 8002ff8:	08002f9d 	.word	0x08002f9d
 8002ffc:	0800304b 	.word	0x0800304b
 8003000:	08002f9d 	.word	0x08002f9d
 8003004:	08002f9d 	.word	0x08002f9d
 8003008:	080030e1 	.word	0x080030e1
 800300c:	6833      	ldr	r3, [r6, #0]
 800300e:	1d1a      	adds	r2, r3, #4
 8003010:	681b      	ldr	r3, [r3, #0]
 8003012:	6032      	str	r2, [r6, #0]
 8003014:	f104 0642 	add.w	r6, r4, #66	@ 0x42
 8003018:	f884 3042 	strb.w	r3, [r4, #66]	@ 0x42
 800301c:	2301      	movs	r3, #1
 800301e:	e09c      	b.n	800315a <_printf_i+0x1e6>
 8003020:	6833      	ldr	r3, [r6, #0]
 8003022:	6820      	ldr	r0, [r4, #0]
 8003024:	1d19      	adds	r1, r3, #4
 8003026:	6031      	str	r1, [r6, #0]
 8003028:	0606      	lsls	r6, r0, #24
 800302a:	d501      	bpl.n	8003030 <_printf_i+0xbc>
 800302c:	681d      	ldr	r5, [r3, #0]
 800302e:	e003      	b.n	8003038 <_printf_i+0xc4>
 8003030:	0645      	lsls	r5, r0, #25
 8003032:	d5fb      	bpl.n	800302c <_printf_i+0xb8>
 8003034:	f9b3 5000 	ldrsh.w	r5, [r3]
 8003038:	2d00      	cmp	r5, #0
 800303a:	da03      	bge.n	8003044 <_printf_i+0xd0>
 800303c:	232d      	movs	r3, #45	@ 0x2d
 800303e:	426d      	negs	r5, r5
 8003040:	f884 3043 	strb.w	r3, [r4, #67]	@ 0x43
 8003044:	4858      	ldr	r0, [pc, #352]	@ (80031a8 <_printf_i+0x234>)
 8003046:	230a      	movs	r3, #10
 8003048:	e011      	b.n	800306e <_printf_i+0xfa>
 800304a:	6821      	ldr	r1, [r4, #0]
 800304c:	6833      	ldr	r3, [r6, #0]
 800304e:	0608      	lsls	r0, r1, #24
 8003050:	f853 5b04 	ldr.w	r5, [r3], #4
 8003054:	d402      	bmi.n	800305c <_printf_i+0xe8>
 8003056:	0649      	lsls	r1, r1, #25
 8003058:	bf48      	it	mi
 800305a:	b2ad      	uxthmi	r5, r5
 800305c:	2f6f      	cmp	r7, #111	@ 0x6f
 800305e:	4852      	ldr	r0, [pc, #328]	@ (80031a8 <_printf_i+0x234>)
 8003060:	6033      	str	r3, [r6, #0]
 8003062:	bf14      	ite	ne
 8003064:	230a      	movne	r3, #10
 8003066:	2308      	moveq	r3, #8
 8003068:	2100      	movs	r1, #0
 800306a:	f884 1043 	strb.w	r1, [r4, #67]	@ 0x43
 800306e:	6866      	ldr	r6, [r4, #4]
 8003070:	60a6      	str	r6, [r4, #8]
 8003072:	2e00      	cmp	r6, #0
 8003074:	db05      	blt.n	8003082 <_printf_i+0x10e>
 8003076:	6821      	ldr	r1, [r4, #0]
 8003078:	432e      	orrs	r6, r5
 800307a:	f021 0104 	bic.w	r1, r1, #4
 800307e:	6021      	str	r1, [r4, #0]
 8003080:	d04b      	beq.n	800311a <_printf_i+0x1a6>
 8003082:	4616      	mov	r6, r2
 8003084:	fbb5 f1f3 	udiv	r1, r5, r3
 8003088:	fb03 5711 	mls	r7, r3, r1, r5
 800308c:	5dc7      	ldrb	r7, [r0, r7]
 800308e:	f806 7d01 	strb.w	r7, [r6, #-1]!
 8003092:	462f      	mov	r7, r5
 8003094:	42bb      	cmp	r3, r7
 8003096:	460d      	mov	r5, r1
 8003098:	d9f4      	bls.n	8003084 <_printf_i+0x110>
 800309a:	2b08      	cmp	r3, #8
 800309c:	d10b      	bne.n	80030b6 <_printf_i+0x142>
 800309e:	6823      	ldr	r3, [r4, #0]
 80030a0:	07df      	lsls	r7, r3, #31
 80030a2:	d508      	bpl.n	80030b6 <_printf_i+0x142>
 80030a4:	6923      	ldr	r3, [r4, #16]
 80030a6:	6861      	ldr	r1, [r4, #4]
 80030a8:	4299      	cmp	r1, r3
 80030aa:	bfde      	ittt	le
 80030ac:	2330      	movle	r3, #48	@ 0x30
 80030ae:	f806 3c01 	strble.w	r3, [r6, #-1]
 80030b2:	f106 36ff 	addle.w	r6, r6, #4294967295	@ 0xffffffff
 80030b6:	1b92      	subs	r2, r2, r6
 80030b8:	6122      	str	r2, [r4, #16]
 80030ba:	f8cd a000 	str.w	sl, [sp]
 80030be:	464b      	mov	r3, r9
 80030c0:	aa03      	add	r2, sp, #12
 80030c2:	4621      	mov	r1, r4
 80030c4:	4640      	mov	r0, r8
 80030c6:	f7ff fee7 	bl	8002e98 <_printf_common>
 80030ca:	3001      	adds	r0, #1
 80030cc:	d14a      	bne.n	8003164 <_printf_i+0x1f0>
 80030ce:	f04f 30ff 	mov.w	r0, #4294967295	@ 0xffffffff
 80030d2:	b004      	add	sp, #16
 80030d4:	e8bd 87f0 	ldmia.w	sp!, {r4, r5, r6, r7, r8, r9, sl, pc}
 80030d8:	6823      	ldr	r3, [r4, #0]
 80030da:	f043 0320 	orr.w	r3, r3, #32
 80030de:	6023      	str	r3, [r4, #0]
 80030e0:	4832      	ldr	r0, [pc, #200]	@ (80031ac <_printf_i+0x238>)
 80030e2:	2778      	movs	r7, #120	@ 0x78
 80030e4:	f884 7045 	strb.w	r7, [r4, #69]	@ 0x45
 80030e8:	6823      	ldr	r3, [r4, #0]
 80030ea:	6831      	ldr	r1, [r6, #0]
 80030ec:	061f      	lsls	r7, r3, #24
 80030ee:	f851 5b04 	ldr.w	r5, [r1], #4
 80030f2:	d402      	bmi.n	80030fa <_printf_i+0x186>
 80030f4:	065f      	lsls	r7, r3, #25
 80030f6:	bf48      	it	mi
 80030f8:	b2ad      	uxthmi	r5, r5
 80030fa:	6031      	str	r1, [r6, #0]
 80030fc:	07d9      	lsls	r1, r3, #31
 80030fe:	bf44      	itt	mi
 8003100:	f043 0320 	orrmi.w	r3, r3, #32
 8003104:	6023      	strmi	r3, [r4, #0]
 8003106:	b11d      	cbz	r5, 8003110 <_printf_i+0x19c>
 8003108:	2310      	movs	r3, #16
 800310a:	e7ad      	b.n	8003068 <_printf_i+0xf4>
 800310c:	4826      	ldr	r0, [pc, #152]	@ (80031a8 <_printf_i+0x234>)
 800310e:	e7e9      	b.n	80030e4 <_printf_i+0x170>
 8003110:	6823      	ldr	r3, [r4, #0]
 8003112:	f023 0320 	bic.w	r3, r3, #32
 8003116:	6023      	str	r3, [r4, #0]
 8003118:	e7f6      	b.n	8003108 <_printf_i+0x194>
 800311a:	4616      	mov	r6, r2
 800311c:	e7bd      	b.n	800309a <_printf_i+0x126>
 800311e:	6833      	ldr	r3, [r6, #0]
 8003120:	6825      	ldr	r5, [r4, #0]
 8003122:	6961      	ldr	r1, [r4, #20]
 8003124:	1d18      	adds	r0, r3, #4
 8003126:	6030      	str	r0, [r6, #0]
 8003128:	062e      	lsls	r6, r5, #24
 800312a:	681b      	ldr	r3, [r3, #0]
 800312c:	d501      	bpl.n	8003132 <_printf_i+0x1be>
 800312e:	6019      	str	r1, [r3, #0]
 8003130:	e002      	b.n	8003138 <_printf_i+0x1c4>
 8003132:	0668      	lsls	r0, r5, #25
 8003134:	d5fb      	bpl.n	800312e <_printf_i+0x1ba>
 8003136:	8019      	strh	r1, [r3, #0]
 8003138:	2300      	movs	r3, #0
 800313a:	6123      	str	r3, [r4, #16]
 800313c:	4616      	mov	r6, r2
 800313e:	e7bc      	b.n	80030ba <_printf_i+0x146>
 8003140:	6833      	ldr	r3, [r6, #0]
 8003142:	1d1a      	adds	r2, r3, #4
 8003144:	6032      	str	r2, [r6, #0]
 8003146:	681e      	ldr	r6, [r3, #0]
 8003148:	6862      	ldr	r2, [r4, #4]
 800314a:	2100      	movs	r1, #0
 800314c:	4630      	mov	r0, r6
 800314e:	f7fd f86f 	bl	8000230 <memchr>
 8003152:	b108      	cbz	r0, 8003158 <_printf_i+0x1e4>
 8003154:	1b80      	subs	r0, r0, r6
 8003156:	6060      	str	r0, [r4, #4]
 8003158:	6863      	ldr	r3, [r4, #4]
 800315a:	6123      	str	r3, [r4, #16]
 800315c:	2300      	movs	r3, #0
 800315e:	f884 3043 	strb.w	r3, [r4, #67]	@ 0x43
 8003162:	e7aa      	b.n	80030ba <_printf_i+0x146>
 8003164:	6923      	ldr	r3, [r4, #16]
 8003166:	4632      	mov	r2, r6
 8003168:	4649      	mov	r1, r9
 800316a:	4640      	mov	r0, r8
 800316c:	47d0      	blx	sl
 800316e:	3001      	adds	r0, #1
 8003170:	d0ad      	beq.n	80030ce <_printf_i+0x15a>
 8003172:	6823      	ldr	r3, [r4, #0]
 8003174:	079b      	lsls	r3, r3, #30
 8003176:	d413      	bmi.n	80031a0 <_printf_i+0x22c>
 8003178:	68e0      	ldr	r0, [r4, #12]
 800317a:	9b03      	ldr	r3, [sp, #12]
 800317c:	4298      	cmp	r0, r3
 800317e:	bfb8      	it	lt
 8003180:	4618      	movlt	r0, r3
 8003182:	e7a6      	b.n	80030d2 <_printf_i+0x15e>
 8003184:	2301      	movs	r3, #1
 8003186:	4632      	mov	r2, r6
 8003188:	4649      	mov	r1, r9
 800318a:	4640      	mov	r0, r8
 800318c:	47d0      	blx	sl
 800318e:	3001      	adds	r0, #1
 8003190:	d09d      	beq.n	80030ce <_printf_i+0x15a>
 8003192:	3501      	adds	r5, #1
 8003194:	68e3      	ldr	r3, [r4, #12]
 8003196:	9903      	ldr	r1, [sp, #12]
 8003198:	1a5b      	subs	r3, r3, r1
 800319a:	42ab      	cmp	r3, r5
 800319c:	dcf2      	bgt.n	8003184 <_printf_i+0x210>
 800319e:	e7eb      	b.n	8003178 <_printf_i+0x204>
 80031a0:	2500      	movs	r5, #0
 80031a2:	f104 0619 	add.w	r6, r4, #25
 80031a6:	e7f5      	b.n	8003194 <_printf_i+0x220>
 80031a8:	08007d2a 	.word	0x08007d2a
 80031ac:	08007d3b 	.word	0x08007d3b

080031b0 <_scanf_float>:
 80031b0:	e92d 4ff0 	stmdb	sp!, {r4, r5, r6, r7, r8, r9, sl, fp, lr}
 80031b4:	b087      	sub	sp, #28
 80031b6:	4691      	mov	r9, r2
 80031b8:	9303      	str	r3, [sp, #12]
 80031ba:	688b      	ldr	r3, [r1, #8]
 80031bc:	1e5a      	subs	r2, r3, #1
 80031be:	f5b2 7fae 	cmp.w	r2, #348	@ 0x15c
 80031c2:	bf81      	itttt	hi
 80031c4:	f46f 75ae 	mvnhi.w	r5, #348	@ 0x15c
 80031c8:	eb03 0b05 	addhi.w	fp, r3, r5
 80031cc:	f240 135d 	movwhi	r3, #349	@ 0x15d
 80031d0:	608b      	strhi	r3, [r1, #8]
 80031d2:	680b      	ldr	r3, [r1, #0]
 80031d4:	460a      	mov	r2, r1
 80031d6:	f04f 0500 	mov.w	r5, #0
 80031da:	f443 63f0 	orr.w	r3, r3, #1920	@ 0x780
 80031de:	f842 3b1c 	str.w	r3, [r2], #28
 80031e2:	e9cd 5504 	strd	r5, r5, [sp, #16]
 80031e6:	4680      	mov	r8, r0
 80031e8:	460c      	mov	r4, r1
 80031ea:	bf98      	it	ls
 80031ec:	f04f 0b00 	movls.w	fp, #0
 80031f0:	9201      	str	r2, [sp, #4]
 80031f2:	4616      	mov	r6, r2
 80031f4:	46aa      	mov	sl, r5
 80031f6:	462f      	mov	r7, r5
 80031f8:	9502      	str	r5, [sp, #8]
 80031fa:	68a2      	ldr	r2, [r4, #8]
 80031fc:	b15a      	cbz	r2, 8003216 <_scanf_float+0x66>
 80031fe:	f8d9 3000 	ldr.w	r3, [r9]
 8003202:	781b      	ldrb	r3, [r3, #0]
 8003204:	2b4e      	cmp	r3, #78	@ 0x4e
 8003206:	d863      	bhi.n	80032d0 <_scanf_float+0x120>
 8003208:	2b40      	cmp	r3, #64	@ 0x40
 800320a:	d83b      	bhi.n	8003284 <_scanf_float+0xd4>
 800320c:	f1a3 012b 	sub.w	r1, r3, #43	@ 0x2b
 8003210:	b2c8      	uxtb	r0, r1
 8003212:	280e      	cmp	r0, #14
 8003214:	d939      	bls.n	800328a <_scanf_float+0xda>
 8003216:	b11f      	cbz	r7, 8003220 <_scanf_float+0x70>
 8003218:	6823      	ldr	r3, [r4, #0]
 800321a:	f423 7380 	bic.w	r3, r3, #256	@ 0x100
 800321e:	6023      	str	r3, [r4, #0]
 8003220:	f10a 3aff 	add.w	sl, sl, #4294967295	@ 0xffffffff
 8003224:	f1ba 0f01 	cmp.w	sl, #1
 8003228:	f200 8114 	bhi.w	8003454 <_scanf_float+0x2a4>
 800322c:	9b01      	ldr	r3, [sp, #4]
 800322e:	429e      	cmp	r6, r3
 8003230:	f200 8105 	bhi.w	800343e <_scanf_float+0x28e>
 8003234:	2001      	movs	r0, #1
 8003236:	b007      	add	sp, #28
 8003238:	e8bd 8ff0 	ldmia.w	sp!, {r4, r5, r6, r7, r8, r9, sl, fp, pc}
 800323c:	f1a3 0261 	sub.w	r2, r3, #97	@ 0x61
 8003240:	2a0d      	cmp	r2, #13
 8003242:	d8e8      	bhi.n	8003216 <_scanf_float+0x66>
 8003244:	a101      	add	r1, pc, #4	@ (adr r1, 800324c <_scanf_float+0x9c>)
 8003246:	f851 f022 	ldr.w	pc, [r1, r2, lsl #2]
 800324a:	bf00      	nop
 800324c:	08003395 	.word	0x08003395
 8003250:	08003217 	.word	0x08003217
 8003254:	08003217 	.word	0x08003217
 8003258:	08003217 	.word	0x08003217
 800325c:	080033f1 	.word	0x080033f1
 8003260:	080033cb 	.word	0x080033cb
 8003264:	08003217 	.word	0x08003217
 8003268:	08003217 	.word	0x08003217
 800326c:	080033a3 	.word	0x080033a3
 8003270:	08003217 	.word	0x08003217
 8003274:	08003217 	.word	0x08003217
 8003278:	08003217 	.word	0x08003217
 800327c:	08003217 	.word	0x08003217
 8003280:	0800335f 	.word	0x0800335f
 8003284:	f1a3 0241 	sub.w	r2, r3, #65	@ 0x41
 8003288:	e7da      	b.n	8003240 <_scanf_float+0x90>
 800328a:	290e      	cmp	r1, #14
 800328c:	d8c3      	bhi.n	8003216 <_scanf_float+0x66>
 800328e:	a001      	add	r0, pc, #4	@ (adr r0, 8003294 <_scanf_float+0xe4>)
 8003290:	f850 f021 	ldr.w	pc, [r0, r1, lsl #2]
 8003294:	0800334f 	.word	0x0800334f
 8003298:	08003217 	.word	0x08003217
 800329c:	0800334f 	.word	0x0800334f
 80032a0:	080033df 	.word	0x080033df
 80032a4:	08003217 	.word	0x08003217
 80032a8:	080032f1 	.word	0x080032f1
 80032ac:	08003335 	.word	0x08003335
 80032b0:	08003335 	.word	0x08003335
 80032b4:	08003335 	.word	0x08003335
 80032b8:	08003335 	.word	0x08003335
 80032bc:	08003335 	.word	0x08003335
 80032c0:	08003335 	.word	0x08003335
 80032c4:	08003335 	.word	0x08003335
 80032c8:	08003335 	.word	0x08003335
 80032cc:	08003335 	.word	0x08003335
 80032d0:	2b6e      	cmp	r3, #110	@ 0x6e
 80032d2:	d809      	bhi.n	80032e8 <_scanf_float+0x138>
 80032d4:	2b60      	cmp	r3, #96	@ 0x60
 80032d6:	d8b1      	bhi.n	800323c <_scanf_float+0x8c>
 80032d8:	2b54      	cmp	r3, #84	@ 0x54
 80032da:	d07b      	beq.n	80033d4 <_scanf_float+0x224>
 80032dc:	2b59      	cmp	r3, #89	@ 0x59
 80032de:	d19a      	bne.n	8003216 <_scanf_float+0x66>
 80032e0:	2d07      	cmp	r5, #7
 80032e2:	d198      	bne.n	8003216 <_scanf_float+0x66>
 80032e4:	2508      	movs	r5, #8
 80032e6:	e02f      	b.n	8003348 <_scanf_float+0x198>
 80032e8:	2b74      	cmp	r3, #116	@ 0x74
 80032ea:	d073      	beq.n	80033d4 <_scanf_float+0x224>
 80032ec:	2b79      	cmp	r3, #121	@ 0x79
 80032ee:	e7f6      	b.n	80032de <_scanf_float+0x12e>
 80032f0:	6821      	ldr	r1, [r4, #0]
 80032f2:	05c8      	lsls	r0, r1, #23
 80032f4:	d51e      	bpl.n	8003334 <_scanf_float+0x184>
 80032f6:	f021 0180 	bic.w	r1, r1, #128	@ 0x80
 80032fa:	6021      	str	r1, [r4, #0]
 80032fc:	3701      	adds	r7, #1
 80032fe:	f1bb 0f00 	cmp.w	fp, #0
 8003302:	d003      	beq.n	800330c <_scanf_float+0x15c>
 8003304:	3201      	adds	r2, #1
 8003306:	f10b 3bff 	add.w	fp, fp, #4294967295	@ 0xffffffff
 800330a:	60a2      	str	r2, [r4, #8]
 800330c:	68a3      	ldr	r3, [r4, #8]
 800330e:	3b01      	subs	r3, #1
 8003310:	60a3      	str	r3, [r4, #8]
 8003312:	6923      	ldr	r3, [r4, #16]
 8003314:	3301      	adds	r3, #1
 8003316:	6123      	str	r3, [r4, #16]
 8003318:	f8d9 3004 	ldr.w	r3, [r9, #4]
 800331c:	3b01      	subs	r3, #1
 800331e:	2b00      	cmp	r3, #0
 8003320:	f8c9 3004 	str.w	r3, [r9, #4]
 8003324:	f340 8082 	ble.w	800342c <_scanf_float+0x27c>
 8003328:	f8d9 3000 	ldr.w	r3, [r9]
 800332c:	3301      	adds	r3, #1
 800332e:	f8c9 3000 	str.w	r3, [r9]
 8003332:	e762      	b.n	80031fa <_scanf_float+0x4a>
 8003334:	eb1a 0105 	adds.w	r1, sl, r5
 8003338:	f47f af6d 	bne.w	8003216 <_scanf_float+0x66>
 800333c:	6822      	ldr	r2, [r4, #0]
 800333e:	f422 72c0 	bic.w	r2, r2, #384	@ 0x180
 8003342:	6022      	str	r2, [r4, #0]
 8003344:	460d      	mov	r5, r1
 8003346:	468a      	mov	sl, r1
 8003348:	f806 3b01 	strb.w	r3, [r6], #1
 800334c:	e7de      	b.n	800330c <_scanf_float+0x15c>
 800334e:	6822      	ldr	r2, [r4, #0]
 8003350:	0610      	lsls	r0, r2, #24
 8003352:	f57f af60 	bpl.w	8003216 <_scanf_float+0x66>
 8003356:	f022 0280 	bic.w	r2, r2, #128	@ 0x80
 800335a:	6022      	str	r2, [r4, #0]
 800335c:	e7f4      	b.n	8003348 <_scanf_float+0x198>
 800335e:	f1ba 0f00 	cmp.w	sl, #0
 8003362:	d10c      	bne.n	800337e <_scanf_float+0x1ce>
 8003364:	b977      	cbnz	r7, 8003384 <_scanf_float+0x1d4>
 8003366:	6822      	ldr	r2, [r4, #0]
 8003368:	f402 61e0 	and.w	r1, r2, #1792	@ 0x700
 800336c:	f5b1 6fe0 	cmp.w	r1, #1792	@ 0x700
 8003370:	d108      	bne.n	8003384 <_scanf_float+0x1d4>
 8003372:	f422 62f0 	bic.w	r2, r2, #1920	@ 0x780
 8003376:	6022      	str	r2, [r4, #0]
 8003378:	f04f 0a01 	mov.w	sl, #1
 800337c:	e7e4      	b.n	8003348 <_scanf_float+0x198>
 800337e:	f1ba 0f02 	cmp.w	sl, #2
 8003382:	d050      	beq.n	8003426 <_scanf_float+0x276>
 8003384:	2d01      	cmp	r5, #1
 8003386:	d002      	beq.n	800338e <_scanf_float+0x1de>
 8003388:	2d04      	cmp	r5, #4
 800338a:	f47f af44 	bne.w	8003216 <_scanf_float+0x66>
 800338e:	3501      	adds	r5, #1
 8003390:	b2ed      	uxtb	r5, r5
 8003392:	e7d9      	b.n	8003348 <_scanf_float+0x198>
 8003394:	f1ba 0f01 	cmp.w	sl, #1
 8003398:	f47f af3d 	bne.w	8003216 <_scanf_float+0x66>
 800339c:	f04f 0a02 	mov.w	sl, #2
 80033a0:	e7d2      	b.n	8003348 <_scanf_float+0x198>
 80033a2:	b975      	cbnz	r5, 80033c2 <_scanf_float+0x212>
 80033a4:	2f00      	cmp	r7, #0
 80033a6:	f47f af37 	bne.w	8003218 <_scanf_float+0x68>
 80033aa:	6822      	ldr	r2, [r4, #0]
 80033ac:	f402 61e0 	and.w	r1, r2, #1792	@ 0x700
 80033b0:	f5b1 6fe0 	cmp.w	r1, #1792	@ 0x700
 80033b4:	f040 8103 	bne.w	80035be <_scanf_float+0x40e>
 80033b8:	f422 62f0 	bic.w	r2, r2, #1920	@ 0x780
 80033bc:	6022      	str	r2, [r4, #0]
 80033be:	2501      	movs	r5, #1
 80033c0:	e7c2      	b.n	8003348 <_scanf_float+0x198>
 80033c2:	2d03      	cmp	r5, #3
 80033c4:	d0e3      	beq.n	800338e <_scanf_float+0x1de>
 80033c6:	2d05      	cmp	r5, #5
 80033c8:	e7df      	b.n	800338a <_scanf_float+0x1da>
 80033ca:	2d02      	cmp	r5, #2
 80033cc:	f47f af23 	bne.w	8003216 <_scanf_float+0x66>
 80033d0:	2503      	movs	r5, #3
 80033d2:	e7b9      	b.n	8003348 <_scanf_float+0x198>
 80033d4:	2d06      	cmp	r5, #6
 80033d6:	f47f af1e 	bne.w	8003216 <_scanf_float+0x66>
 80033da:	2507      	movs	r5, #7
 80033dc:	e7b4      	b.n	8003348 <_scanf_float+0x198>
 80033de:	6822      	ldr	r2, [r4, #0]
 80033e0:	0591      	lsls	r1, r2, #22
 80033e2:	f57f af18 	bpl.w	8003216 <_scanf_float+0x66>
 80033e6:	f422 7220 	bic.w	r2, r2, #640	@ 0x280
 80033ea:	6022      	str	r2, [r4, #0]
 80033ec:	9702      	str	r7, [sp, #8]
 80033ee:	e7ab      	b.n	8003348 <_scanf_float+0x198>
 80033f0:	6822      	ldr	r2, [r4, #0]
 80033f2:	f402 61a0 	and.w	r1, r2, #1280	@ 0x500
 80033f6:	f5b1 6f80 	cmp.w	r1, #1024	@ 0x400
 80033fa:	d005      	beq.n	8003408 <_scanf_float+0x258>
 80033fc:	0550      	lsls	r0, r2, #21
 80033fe:	f57f af0a 	bpl.w	8003216 <_scanf_float+0x66>
 8003402:	2f00      	cmp	r7, #0
 8003404:	f000 80db 	beq.w	80035be <_scanf_float+0x40e>
 8003408:	0591      	lsls	r1, r2, #22
 800340a:	bf58      	it	pl
 800340c:	9902      	ldrpl	r1, [sp, #8]
 800340e:	f422 62f0 	bic.w	r2, r2, #1920	@ 0x780
 8003412:	bf58      	it	pl
 8003414:	1a79      	subpl	r1, r7, r1
 8003416:	f442 72c0 	orr.w	r2, r2, #384	@ 0x180
 800341a:	bf58      	it	pl
 800341c:	e9cd 1604 	strdpl	r1, r6, [sp, #16]
 8003420:	6022      	str	r2, [r4, #0]
 8003422:	2700      	movs	r7, #0
 8003424:	e790      	b.n	8003348 <_scanf_float+0x198>
 8003426:	f04f 0a03 	mov.w	sl, #3
 800342a:	e78d      	b.n	8003348 <_scanf_float+0x198>
 800342c:	f8d4 3180 	ldr.w	r3, [r4, #384]	@ 0x180
 8003430:	4649      	mov	r1, r9
 8003432:	4640      	mov	r0, r8
 8003434:	4798      	blx	r3
 8003436:	2800      	cmp	r0, #0
 8003438:	f43f aedf 	beq.w	80031fa <_scanf_float+0x4a>
 800343c:	e6eb      	b.n	8003216 <_scanf_float+0x66>
 800343e:	f8d4 317c 	ldr.w	r3, [r4, #380]	@ 0x17c
 8003442:	f816 1d01 	ldrb.w	r1, [r6, #-1]!
 8003446:	464a      	mov	r2, r9
 8003448:	4640      	mov	r0, r8
 800344a:	4798      	blx	r3
 800344c:	6923      	ldr	r3, [r4, #16]
 800344e:	3b01      	subs	r3, #1
 8003450:	6123      	str	r3, [r4, #16]
 8003452:	e6eb      	b.n	800322c <_scanf_float+0x7c>
 8003454:	1e6b      	subs	r3, r5, #1
 8003456:	2b06      	cmp	r3, #6
 8003458:	d824      	bhi.n	80034a4 <_scanf_float+0x2f4>
 800345a:	2d02      	cmp	r5, #2
 800345c:	d836      	bhi.n	80034cc <_scanf_float+0x31c>
 800345e:	9b01      	ldr	r3, [sp, #4]
 8003460:	429e      	cmp	r6, r3
 8003462:	f67f aee7 	bls.w	8003234 <_scanf_float+0x84>
 8003466:	f8d4 317c 	ldr.w	r3, [r4, #380]	@ 0x17c
 800346a:	f816 1d01 	ldrb.w	r1, [r6, #-1]!
 800346e:	464a      	mov	r2, r9
 8003470:	4640      	mov	r0, r8
 8003472:	4798      	blx	r3
 8003474:	6923      	ldr	r3, [r4, #16]
 8003476:	3b01      	subs	r3, #1
 8003478:	6123      	str	r3, [r4, #16]
 800347a:	e7f0      	b.n	800345e <_scanf_float+0x2ae>
 800347c:	f8d4 317c 	ldr.w	r3, [r4, #380]	@ 0x17c
 8003480:	f81b 1d01 	ldrb.w	r1, [fp, #-1]!
 8003484:	464a      	mov	r2, r9
 8003486:	4640      	mov	r0, r8
 8003488:	4798      	blx	r3
 800348a:	6923      	ldr	r3, [r4, #16]
 800348c:	3b01      	subs	r3, #1
 800348e:	6123      	str	r3, [r4, #16]
 8003490:	f10a 3aff 	add.w	sl, sl, #4294967295	@ 0xffffffff
 8003494:	fa5f fa8a 	uxtb.w	sl, sl
 8003498:	f1ba 0f02 	cmp.w	sl, #2
 800349c:	d1ee      	bne.n	800347c <_scanf_float+0x2cc>
 800349e:	3d03      	subs	r5, #3
 80034a0:	b2ed      	uxtb	r5, r5
 80034a2:	1b76      	subs	r6, r6, r5
 80034a4:	6823      	ldr	r3, [r4, #0]
 80034a6:	05da      	lsls	r2, r3, #23
 80034a8:	d530      	bpl.n	800350c <_scanf_float+0x35c>
 80034aa:	055b      	lsls	r3, r3, #21
 80034ac:	d511      	bpl.n	80034d2 <_scanf_float+0x322>
 80034ae:	9b01      	ldr	r3, [sp, #4]
 80034b0:	429e      	cmp	r6, r3
 80034b2:	f67f aebf 	bls.w	8003234 <_scanf_float+0x84>
 80034b6:	f8d4 317c 	ldr.w	r3, [r4, #380]	@ 0x17c
 80034ba:	f816 1d01 	ldrb.w	r1, [r6, #-1]!
 80034be:	464a      	mov	r2, r9
 80034c0:	4640      	mov	r0, r8
 80034c2:	4798      	blx	r3
 80034c4:	6923      	ldr	r3, [r4, #16]
 80034c6:	3b01      	subs	r3, #1
 80034c8:	6123      	str	r3, [r4, #16]
 80034ca:	e7f0      	b.n	80034ae <_scanf_float+0x2fe>
 80034cc:	46aa      	mov	sl, r5
 80034ce:	46b3      	mov	fp, r6
 80034d0:	e7de      	b.n	8003490 <_scanf_float+0x2e0>
 80034d2:	f816 1c01 	ldrb.w	r1, [r6, #-1]
 80034d6:	6923      	ldr	r3, [r4, #16]
 80034d8:	2965      	cmp	r1, #101	@ 0x65
 80034da:	f103 33ff 	add.w	r3, r3, #4294967295	@ 0xffffffff
 80034de:	f106 35ff 	add.w	r5, r6, #4294967295	@ 0xffffffff
 80034e2:	6123      	str	r3, [r4, #16]
 80034e4:	d00c      	beq.n	8003500 <_scanf_float+0x350>
 80034e6:	2945      	cmp	r1, #69	@ 0x45
 80034e8:	d00a      	beq.n	8003500 <_scanf_float+0x350>
 80034ea:	f8d4 317c 	ldr.w	r3, [r4, #380]	@ 0x17c
 80034ee:	464a      	mov	r2, r9
 80034f0:	4640      	mov	r0, r8
 80034f2:	4798      	blx	r3
 80034f4:	6923      	ldr	r3, [r4, #16]
 80034f6:	f816 1c02 	ldrb.w	r1, [r6, #-2]
 80034fa:	3b01      	subs	r3, #1
 80034fc:	1eb5      	subs	r5, r6, #2
 80034fe:	6123      	str	r3, [r4, #16]
 8003500:	f8d4 317c 	ldr.w	r3, [r4, #380]	@ 0x17c
 8003504:	464a      	mov	r2, r9
 8003506:	4640      	mov	r0, r8
 8003508:	4798      	blx	r3
 800350a:	462e      	mov	r6, r5
 800350c:	6822      	ldr	r2, [r4, #0]
 800350e:	f012 0210 	ands.w	r2, r2, #16
 8003512:	d001      	beq.n	8003518 <_scanf_float+0x368>
 8003514:	2000      	movs	r0, #0
 8003516:	e68e      	b.n	8003236 <_scanf_float+0x86>
 8003518:	7032      	strb	r2, [r6, #0]
 800351a:	6823      	ldr	r3, [r4, #0]
 800351c:	f403 63c0 	and.w	r3, r3, #1536	@ 0x600
 8003520:	f5b3 6f80 	cmp.w	r3, #1024	@ 0x400
 8003524:	d125      	bne.n	8003572 <_scanf_float+0x3c2>
 8003526:	9b02      	ldr	r3, [sp, #8]
 8003528:	429f      	cmp	r7, r3
 800352a:	d00a      	beq.n	8003542 <_scanf_float+0x392>
 800352c:	1bda      	subs	r2, r3, r7
 800352e:	f204 136f 	addw	r3, r4, #367	@ 0x16f
 8003532:	429e      	cmp	r6, r3
 8003534:	bf28      	it	cs
 8003536:	f504 76b7 	addcs.w	r6, r4, #366	@ 0x16e
 800353a:	4922      	ldr	r1, [pc, #136]	@ (80035c4 <_scanf_float+0x414>)
 800353c:	4630      	mov	r0, r6
 800353e:	f000 f87b 	bl	8003638 <siprintf>
 8003542:	9901      	ldr	r1, [sp, #4]
 8003544:	2200      	movs	r2, #0
 8003546:	4640      	mov	r0, r8
 8003548:	f000 ffb2 	bl	80044b0 <_strtod_r>
 800354c:	9b03      	ldr	r3, [sp, #12]
 800354e:	6821      	ldr	r1, [r4, #0]
 8003550:	681b      	ldr	r3, [r3, #0]
 8003552:	f011 0f02 	tst.w	r1, #2
 8003556:	ec57 6b10 	vmov	r6, r7, d0
 800355a:	f103 0204 	add.w	r2, r3, #4
 800355e:	d015      	beq.n	800358c <_scanf_float+0x3dc>
 8003560:	9903      	ldr	r1, [sp, #12]
 8003562:	600a      	str	r2, [r1, #0]
 8003564:	681b      	ldr	r3, [r3, #0]
 8003566:	e9c3 6700 	strd	r6, r7, [r3]
 800356a:	68e3      	ldr	r3, [r4, #12]
 800356c:	3301      	adds	r3, #1
 800356e:	60e3      	str	r3, [r4, #12]
 8003570:	e7d0      	b.n	8003514 <_scanf_float+0x364>
 8003572:	9b04      	ldr	r3, [sp, #16]
 8003574:	2b00      	cmp	r3, #0
 8003576:	d0e4      	beq.n	8003542 <_scanf_float+0x392>
 8003578:	9905      	ldr	r1, [sp, #20]
 800357a:	230a      	movs	r3, #10
 800357c:	3101      	adds	r1, #1
 800357e:	4640      	mov	r0, r8
 8003580:	f001 f816 	bl	80045b0 <_strtol_r>
 8003584:	9b04      	ldr	r3, [sp, #16]
 8003586:	9e05      	ldr	r6, [sp, #20]
 8003588:	1ac2      	subs	r2, r0, r3
 800358a:	e7d0      	b.n	800352e <_scanf_float+0x37e>
 800358c:	f011 0f04 	tst.w	r1, #4
 8003590:	9903      	ldr	r1, [sp, #12]
 8003592:	600a      	str	r2, [r1, #0]
 8003594:	d1e6      	bne.n	8003564 <_scanf_float+0x3b4>
 8003596:	681d      	ldr	r5, [r3, #0]
 8003598:	4632      	mov	r2, r6
 800359a:	463b      	mov	r3, r7
 800359c:	4630      	mov	r0, r6
 800359e:	4639      	mov	r1, r7
 80035a0:	f7fd faf4 	bl	8000b8c <__aeabi_dcmpun>
 80035a4:	b128      	cbz	r0, 80035b2 <_scanf_float+0x402>
 80035a6:	4808      	ldr	r0, [pc, #32]	@ (80035c8 <_scanf_float+0x418>)
 80035a8:	f001 f8ca 	bl	8004740 <nanf>
 80035ac:	ed85 0a00 	vstr	s0, [r5]
 80035b0:	e7db      	b.n	800356a <_scanf_float+0x3ba>
 80035b2:	4630      	mov	r0, r6
 80035b4:	4639      	mov	r1, r7
 80035b6:	f7fd fb47 	bl	8000c48 <__aeabi_d2f>
 80035ba:	6028      	str	r0, [r5, #0]
 80035bc:	e7d5      	b.n	800356a <_scanf_float+0x3ba>
 80035be:	2700      	movs	r7, #0
 80035c0:	e62e      	b.n	8003220 <_scanf_float+0x70>
 80035c2:	bf00      	nop
 80035c4:	08007d4c 	.word	0x08007d4c
 80035c8:	08007f08 	.word	0x08007f08

080035cc <sniprintf>:
 80035cc:	b40c      	push	{r2, r3}
 80035ce:	b530      	push	{r4, r5, lr}
 80035d0:	4b18      	ldr	r3, [pc, #96]	@ (8003634 <sniprintf+0x68>)
 80035d2:	1e0c      	subs	r4, r1, #0
 80035d4:	681d      	ldr	r5, [r3, #0]
 80035d6:	b09d      	sub	sp, #116	@ 0x74
 80035d8:	da08      	bge.n	80035ec <sniprintf+0x20>
 80035da:	238b      	movs	r3, #139	@ 0x8b
 80035dc:	602b      	str	r3, [r5, #0]
 80035de:	f04f 30ff 	mov.w	r0, #4294967295	@ 0xffffffff
 80035e2:	b01d      	add	sp, #116	@ 0x74
 80035e4:	e8bd 4030 	ldmia.w	sp!, {r4, r5, lr}
 80035e8:	b002      	add	sp, #8
 80035ea:	4770      	bx	lr
 80035ec:	f44f 7302 	mov.w	r3, #520	@ 0x208
 80035f0:	f8ad 3014 	strh.w	r3, [sp, #20]
 80035f4:	f04f 0300 	mov.w	r3, #0
 80035f8:	931b      	str	r3, [sp, #108]	@ 0x6c
 80035fa:	bf14      	ite	ne
 80035fc:	f104 33ff 	addne.w	r3, r4, #4294967295	@ 0xffffffff
 8003600:	4623      	moveq	r3, r4
 8003602:	9304      	str	r3, [sp, #16]
 8003604:	9307      	str	r3, [sp, #28]
 8003606:	f64f 73ff 	movw	r3, #65535	@ 0xffff
 800360a:	9002      	str	r0, [sp, #8]
 800360c:	9006      	str	r0, [sp, #24]
 800360e:	f8ad 3016 	strh.w	r3, [sp, #22]
 8003612:	9a20      	ldr	r2, [sp, #128]	@ 0x80
 8003614:	ab21      	add	r3, sp, #132	@ 0x84
 8003616:	a902      	add	r1, sp, #8
 8003618:	4628      	mov	r0, r5
 800361a:	9301      	str	r3, [sp, #4]
 800361c:	f002 face 	bl	8005bbc <_svfiprintf_r>
 8003620:	1c43      	adds	r3, r0, #1
 8003622:	bfbc      	itt	lt
 8003624:	238b      	movlt	r3, #139	@ 0x8b
 8003626:	602b      	strlt	r3, [r5, #0]
 8003628:	2c00      	cmp	r4, #0
 800362a:	d0da      	beq.n	80035e2 <sniprintf+0x16>
 800362c:	9b02      	ldr	r3, [sp, #8]
 800362e:	2200      	movs	r2, #0
 8003630:	701a      	strb	r2, [r3, #0]
 8003632:	e7d6      	b.n	80035e2 <sniprintf+0x16>
 8003634:	20000194 	.word	0x20000194

08003638 <siprintf>:
 8003638:	b40e      	push	{r1, r2, r3}
 800363a:	b510      	push	{r4, lr}
 800363c:	b09d      	sub	sp, #116	@ 0x74
 800363e:	ab1f      	add	r3, sp, #124	@ 0x7c
 8003640:	9002      	str	r0, [sp, #8]
 8003642:	9006      	str	r0, [sp, #24]
 8003644:	f06f 4100 	mvn.w	r1, #2147483648	@ 0x80000000
 8003648:	480a      	ldr	r0, [pc, #40]	@ (8003674 <siprintf+0x3c>)
 800364a:	9107      	str	r1, [sp, #28]
 800364c:	9104      	str	r1, [sp, #16]
 800364e:	490a      	ldr	r1, [pc, #40]	@ (8003678 <siprintf+0x40>)
 8003650:	f853 2b04 	ldr.w	r2, [r3], #4
 8003654:	9105      	str	r1, [sp, #20]
 8003656:	2400      	movs	r4, #0
 8003658:	a902      	add	r1, sp, #8
 800365a:	6800      	ldr	r0, [r0, #0]
 800365c:	9301      	str	r3, [sp, #4]
 800365e:	941b      	str	r4, [sp, #108]	@ 0x6c
 8003660:	f002 faac 	bl	8005bbc <_svfiprintf_r>
 8003664:	9b02      	ldr	r3, [sp, #8]
 8003666:	701c      	strb	r4, [r3, #0]
 8003668:	b01d      	add	sp, #116	@ 0x74
 800366a:	e8bd 4010 	ldmia.w	sp!, {r4, lr}
 800366e:	b003      	add	sp, #12
 8003670:	4770      	bx	lr
 8003672:	bf00      	nop
 8003674:	20000194 	.word	0x20000194
 8003678:	ffff0208 	.word	0xffff0208

0800367c <siscanf>:
 800367c:	b40e      	push	{r1, r2, r3}
 800367e:	b570      	push	{r4, r5, r6, lr}
 8003680:	b09d      	sub	sp, #116	@ 0x74
 8003682:	ac21      	add	r4, sp, #132	@ 0x84
 8003684:	2500      	movs	r5, #0
 8003686:	f44f 7201 	mov.w	r2, #516	@ 0x204
 800368a:	f854 6b04 	ldr.w	r6, [r4], #4
 800368e:	f8ad 2014 	strh.w	r2, [sp, #20]
 8003692:	951b      	str	r5, [sp, #108]	@ 0x6c
 8003694:	9002      	str	r0, [sp, #8]
 8003696:	9006      	str	r0, [sp, #24]
 8003698:	f7fc fe1a 	bl	80002d0 <strlen>
 800369c:	4b0b      	ldr	r3, [pc, #44]	@ (80036cc <siscanf+0x50>)
 800369e:	9003      	str	r0, [sp, #12]
 80036a0:	9007      	str	r0, [sp, #28]
 80036a2:	480b      	ldr	r0, [pc, #44]	@ (80036d0 <siscanf+0x54>)
 80036a4:	930b      	str	r3, [sp, #44]	@ 0x2c
 80036a6:	f64f 73ff 	movw	r3, #65535	@ 0xffff
 80036aa:	f8ad 3016 	strh.w	r3, [sp, #22]
 80036ae:	4632      	mov	r2, r6
 80036b0:	4623      	mov	r3, r4
 80036b2:	a902      	add	r1, sp, #8
 80036b4:	6800      	ldr	r0, [r0, #0]
 80036b6:	950f      	str	r5, [sp, #60]	@ 0x3c
 80036b8:	9514      	str	r5, [sp, #80]	@ 0x50
 80036ba:	9401      	str	r4, [sp, #4]
 80036bc:	f002 fbd4 	bl	8005e68 <__ssvfiscanf_r>
 80036c0:	b01d      	add	sp, #116	@ 0x74
 80036c2:	e8bd 4070 	ldmia.w	sp!, {r4, r5, r6, lr}
 80036c6:	b003      	add	sp, #12
 80036c8:	4770      	bx	lr
 80036ca:	bf00      	nop
 80036cc:	080036f7 	.word	0x080036f7
 80036d0:	20000194 	.word	0x20000194

080036d4 <__sread>:
 80036d4:	b510      	push	{r4, lr}
 80036d6:	460c      	mov	r4, r1
 80036d8:	f9b1 100e 	ldrsh.w	r1, [r1, #14]
 80036dc:	f000 ffb4 	bl	8004648 <_read_r>
 80036e0:	2800      	cmp	r0, #0
 80036e2:	bfab      	itete	ge
 80036e4:	6d63      	ldrge	r3, [r4, #84]	@ 0x54
 80036e6:	89a3      	ldrhlt	r3, [r4, #12]
 80036e8:	181b      	addge	r3, r3, r0
 80036ea:	f423 5380 	biclt.w	r3, r3, #4096	@ 0x1000
 80036ee:	bfac      	ite	ge
 80036f0:	6563      	strge	r3, [r4, #84]	@ 0x54
 80036f2:	81a3      	strhlt	r3, [r4, #12]
 80036f4:	bd10      	pop	{r4, pc}

080036f6 <__seofread>:
 80036f6:	2000      	movs	r0, #0
 80036f8:	4770      	bx	lr

080036fa <__swrite>:
 80036fa:	e92d 41f0 	stmdb	sp!, {r4, r5, r6, r7, r8, lr}
 80036fe:	461f      	mov	r7, r3
 8003700:	898b      	ldrh	r3, [r1, #12]
 8003702:	05db      	lsls	r3, r3, #23
 8003704:	4605      	mov	r5, r0
 8003706:	460c      	mov	r4, r1
 8003708:	4616      	mov	r6, r2
 800370a:	d505      	bpl.n	8003718 <__swrite+0x1e>
 800370c:	f9b1 100e 	ldrsh.w	r1, [r1, #14]
 8003710:	2302      	movs	r3, #2
 8003712:	2200      	movs	r2, #0
 8003714:	f000 ff86 	bl	8004624 <_lseek_r>
 8003718:	89a3      	ldrh	r3, [r4, #12]
 800371a:	f9b4 100e 	ldrsh.w	r1, [r4, #14]
 800371e:	f423 5380 	bic.w	r3, r3, #4096	@ 0x1000
 8003722:	81a3      	strh	r3, [r4, #12]
 8003724:	4632      	mov	r2, r6
 8003726:	463b      	mov	r3, r7
 8003728:	4628      	mov	r0, r5
 800372a:	e8bd 41f0 	ldmia.w	sp!, {r4, r5, r6, r7, r8, lr}
 800372e:	f000 bf9d 	b.w	800466c <_write_r>

08003732 <__sseek>:
 8003732:	b510      	push	{r4, lr}
 8003734:	460c      	mov	r4, r1
 8003736:	f9b1 100e 	ldrsh.w	r1, [r1, #14]
 800373a:	f000 ff73 	bl	8004624 <_lseek_r>
 800373e:	1c43      	adds	r3, r0, #1
 8003740:	89a3      	ldrh	r3, [r4, #12]
 8003742:	bf15      	itete	ne
 8003744:	6560      	strne	r0, [r4, #84]	@ 0x54
 8003746:	f423 5380 	biceq.w	r3, r3, #4096	@ 0x1000
 800374a:	f443 5380 	orrne.w	r3, r3, #4096	@ 0x1000
 800374e:	81a3      	strheq	r3, [r4, #12]
 8003750:	bf18      	it	ne
 8003752:	81a3      	strhne	r3, [r4, #12]
 8003754:	bd10      	pop	{r4, pc}

08003756 <__sclose>:
 8003756:	f9b1 100e 	ldrsh.w	r1, [r1, #14]
 800375a:	f000 bfcb 	b.w	80046f4 <_close_r>
	...

08003760 <std>:
 8003760:	2300      	movs	r3, #0
 8003762:	b510      	push	{r4, lr}
 8003764:	4604      	mov	r4, r0
 8003766:	e9c0 3300 	strd	r3, r3, [r0]
 800376a:	e9c0 3304 	strd	r3, r3, [r0, #16]
 800376e:	6083      	str	r3, [r0, #8]
 8003770:	8181      	strh	r1, [r0, #12]
 8003772:	6643      	str	r3, [r0, #100]	@ 0x64
 8003774:	81c2      	strh	r2, [r0, #14]
 8003776:	6183      	str	r3, [r0, #24]
 8003778:	4619      	mov	r1, r3
 800377a:	2208      	movs	r2, #8
 800377c:	305c      	adds	r0, #92	@ 0x5c
 800377e:	f000 ff37 	bl	80045f0 <memset>
 8003782:	4b0d      	ldr	r3, [pc, #52]	@ (80037b8 <std+0x58>)
 8003784:	6263      	str	r3, [r4, #36]	@ 0x24
 8003786:	4b0d      	ldr	r3, [pc, #52]	@ (80037bc <std+0x5c>)
 8003788:	62a3      	str	r3, [r4, #40]	@ 0x28
 800378a:	4b0d      	ldr	r3, [pc, #52]	@ (80037c0 <std+0x60>)
 800378c:	62e3      	str	r3, [r4, #44]	@ 0x2c
 800378e:	4b0d      	ldr	r3, [pc, #52]	@ (80037c4 <std+0x64>)
 8003790:	6323      	str	r3, [r4, #48]	@ 0x30
 8003792:	4b0d      	ldr	r3, [pc, #52]	@ (80037c8 <std+0x68>)
 8003794:	6224      	str	r4, [r4, #32]
 8003796:	429c      	cmp	r4, r3
 8003798:	d006      	beq.n	80037a8 <std+0x48>
 800379a:	f103 0268 	add.w	r2, r3, #104	@ 0x68
 800379e:	4294      	cmp	r4, r2
 80037a0:	d002      	beq.n	80037a8 <std+0x48>
 80037a2:	33d0      	adds	r3, #208	@ 0xd0
 80037a4:	429c      	cmp	r4, r3
 80037a6:	d105      	bne.n	80037b4 <std+0x54>
 80037a8:	f104 0058 	add.w	r0, r4, #88	@ 0x58
 80037ac:	e8bd 4010 	ldmia.w	sp!, {r4, lr}
 80037b0:	f000 bf98 	b.w	80046e4 <__retarget_lock_init_recursive>
 80037b4:	bd10      	pop	{r4, pc}
 80037b6:	bf00      	nop
 80037b8:	080036d5 	.word	0x080036d5
 80037bc:	080036fb 	.word	0x080036fb
 80037c0:	08003733 	.word	0x08003733
 80037c4:	08003757 	.word	0x08003757
 80037c8:	2000033c 	.word	0x2000033c

080037cc <stdio_exit_handler>:
 80037cc:	4a02      	ldr	r2, [pc, #8]	@ (80037d8 <stdio_exit_handler+0xc>)
 80037ce:	4903      	ldr	r1, [pc, #12]	@ (80037dc <stdio_exit_handler+0x10>)
 80037d0:	4803      	ldr	r0, [pc, #12]	@ (80037e0 <stdio_exit_handler+0x14>)
 80037d2:	f000 beef 	b.w	80045b4 <_fwalk_sglue>
 80037d6:	bf00      	nop
 80037d8:	2000001c 	.word	0x2000001c
 80037dc:	080066e5 	.word	0x080066e5
 80037e0:	20000198 	.word	0x20000198

080037e4 <cleanup_stdio>:
 80037e4:	6841      	ldr	r1, [r0, #4]
 80037e6:	4b0c      	ldr	r3, [pc, #48]	@ (8003818 <cleanup_stdio+0x34>)
 80037e8:	4299      	cmp	r1, r3
 80037ea:	b510      	push	{r4, lr}
 80037ec:	4604      	mov	r4, r0
 80037ee:	d001      	beq.n	80037f4 <cleanup_stdio+0x10>
 80037f0:	f002 ff78 	bl	80066e4 <_fflush_r>
 80037f4:	68a1      	ldr	r1, [r4, #8]
 80037f6:	4b09      	ldr	r3, [pc, #36]	@ (800381c <cleanup_stdio+0x38>)
 80037f8:	4299      	cmp	r1, r3
 80037fa:	d002      	beq.n	8003802 <cleanup_stdio+0x1e>
 80037fc:	4620      	mov	r0, r4
 80037fe:	f002 ff71 	bl	80066e4 <_fflush_r>
 8003802:	68e1      	ldr	r1, [r4, #12]
 8003804:	4b06      	ldr	r3, [pc, #24]	@ (8003820 <cleanup_stdio+0x3c>)
 8003806:	4299      	cmp	r1, r3
 8003808:	d004      	beq.n	8003814 <cleanup_stdio+0x30>
 800380a:	4620      	mov	r0, r4
 800380c:	e8bd 4010 	ldmia.w	sp!, {r4, lr}
 8003810:	f002 bf68 	b.w	80066e4 <_fflush_r>
 8003814:	bd10      	pop	{r4, pc}
 8003816:	bf00      	nop
 8003818:	2000033c 	.word	0x2000033c
 800381c:	200003a4 	.word	0x200003a4
 8003820:	2000040c 	.word	0x2000040c

08003824 <global_stdio_init.part.0>:
 8003824:	b510      	push	{r4, lr}
 8003826:	4b0b      	ldr	r3, [pc, #44]	@ (8003854 <global_stdio_init.part.0+0x30>)
 8003828:	4c0b      	ldr	r4, [pc, #44]	@ (8003858 <global_stdio_init.part.0+0x34>)
 800382a:	4a0c      	ldr	r2, [pc, #48]	@ (800385c <global_stdio_init.part.0+0x38>)
 800382c:	601a      	str	r2, [r3, #0]
 800382e:	4620      	mov	r0, r4
 8003830:	2200      	movs	r2, #0
 8003832:	2104      	movs	r1, #4
 8003834:	f7ff ff94 	bl	8003760 <std>
 8003838:	f104 0068 	add.w	r0, r4, #104	@ 0x68
 800383c:	2201      	movs	r2, #1
 800383e:	2109      	movs	r1, #9
 8003840:	f7ff ff8e 	bl	8003760 <std>
 8003844:	f104 00d0 	add.w	r0, r4, #208	@ 0xd0
 8003848:	2202      	movs	r2, #2
 800384a:	e8bd 4010 	ldmia.w	sp!, {r4, lr}
 800384e:	2112      	movs	r1, #18
 8003850:	f7ff bf86 	b.w	8003760 <std>
 8003854:	20000474 	.word	0x20000474
 8003858:	2000033c 	.word	0x2000033c
 800385c:	080037cd 	.word	0x080037cd

08003860 <__sfp_lock_acquire>:
 8003860:	4801      	ldr	r0, [pc, #4]	@ (8003868 <__sfp_lock_acquire+0x8>)
 8003862:	f000 bf40 	b.w	80046e6 <__retarget_lock_acquire_recursive>
 8003866:	bf00      	nop
 8003868:	20000479 	.word	0x20000479

0800386c <__sfp_lock_release>:
 800386c:	4801      	ldr	r0, [pc, #4]	@ (8003874 <__sfp_lock_release+0x8>)
 800386e:	f000 bf3b 	b.w	80046e8 <__retarget_lock_release_recursive>
 8003872:	bf00      	nop
 8003874:	20000479 	.word	0x20000479

08003878 <__sinit>:
 8003878:	b510      	push	{r4, lr}
 800387a:	4604      	mov	r4, r0
 800387c:	f7ff fff0 	bl	8003860 <__sfp_lock_acquire>
 8003880:	6a23      	ldr	r3, [r4, #32]
 8003882:	b11b      	cbz	r3, 800388c <__sinit+0x14>
 8003884:	e8bd 4010 	ldmia.w	sp!, {r4, lr}
 8003888:	f7ff bff0 	b.w	800386c <__sfp_lock_release>
 800388c:	4b04      	ldr	r3, [pc, #16]	@ (80038a0 <__sinit+0x28>)
 800388e:	6223      	str	r3, [r4, #32]
 8003890:	4b04      	ldr	r3, [pc, #16]	@ (80038a4 <__sinit+0x2c>)
 8003892:	681b      	ldr	r3, [r3, #0]
 8003894:	2b00      	cmp	r3, #0
 8003896:	d1f5      	bne.n	8003884 <__sinit+0xc>
 8003898:	f7ff ffc4 	bl	8003824 <global_stdio_init.part.0>
 800389c:	e7f2      	b.n	8003884 <__sinit+0xc>
 800389e:	bf00      	nop
 80038a0:	080037e5 	.word	0x080037e5
 80038a4:	20000474 	.word	0x20000474

080038a8 <sulp>:
 80038a8:	b570      	push	{r4, r5, r6, lr}
 80038aa:	4604      	mov	r4, r0
 80038ac:	460d      	mov	r5, r1
 80038ae:	ec45 4b10 	vmov	d0, r4, r5
 80038b2:	4616      	mov	r6, r2
 80038b4:	f003 fab6 	bl	8006e24 <__ulp>
 80038b8:	ec51 0b10 	vmov	r0, r1, d0
 80038bc:	b17e      	cbz	r6, 80038de <sulp+0x36>
 80038be:	f3c5 530a 	ubfx	r3, r5, #20, #11
 80038c2:	f1c3 036b 	rsb	r3, r3, #107	@ 0x6b
 80038c6:	2b00      	cmp	r3, #0
 80038c8:	dd09      	ble.n	80038de <sulp+0x36>
 80038ca:	051b      	lsls	r3, r3, #20
 80038cc:	f103 557f 	add.w	r5, r3, #1069547520	@ 0x3fc00000
 80038d0:	2400      	movs	r4, #0
 80038d2:	f505 1540 	add.w	r5, r5, #3145728	@ 0x300000
 80038d6:	4622      	mov	r2, r4
 80038d8:	462b      	mov	r3, r5
 80038da:	f7fc febd 	bl	8000658 <__aeabi_dmul>
 80038de:	ec41 0b10 	vmov	d0, r0, r1
 80038e2:	bd70      	pop	{r4, r5, r6, pc}
 80038e4:	0000      	movs	r0, r0
	...

080038e8 <_strtod_l>:
 80038e8:	e92d 4ff0 	stmdb	sp!, {r4, r5, r6, r7, r8, r9, sl, fp, lr}
 80038ec:	b09f      	sub	sp, #124	@ 0x7c
 80038ee:	460c      	mov	r4, r1
 80038f0:	9217      	str	r2, [sp, #92]	@ 0x5c
 80038f2:	2200      	movs	r2, #0
 80038f4:	921a      	str	r2, [sp, #104]	@ 0x68
 80038f6:	9005      	str	r0, [sp, #20]
 80038f8:	f04f 0a00 	mov.w	sl, #0
 80038fc:	f04f 0b00 	mov.w	fp, #0
 8003900:	460a      	mov	r2, r1
 8003902:	9219      	str	r2, [sp, #100]	@ 0x64
 8003904:	7811      	ldrb	r1, [r2, #0]
 8003906:	292b      	cmp	r1, #43	@ 0x2b
 8003908:	d04a      	beq.n	80039a0 <_strtod_l+0xb8>
 800390a:	d838      	bhi.n	800397e <_strtod_l+0x96>
 800390c:	290d      	cmp	r1, #13
 800390e:	d832      	bhi.n	8003976 <_strtod_l+0x8e>
 8003910:	2908      	cmp	r1, #8
 8003912:	d832      	bhi.n	800397a <_strtod_l+0x92>
 8003914:	2900      	cmp	r1, #0
 8003916:	d03b      	beq.n	8003990 <_strtod_l+0xa8>
 8003918:	2200      	movs	r2, #0
 800391a:	920e      	str	r2, [sp, #56]	@ 0x38
 800391c:	9d19      	ldr	r5, [sp, #100]	@ 0x64
 800391e:	782a      	ldrb	r2, [r5, #0]
 8003920:	2a30      	cmp	r2, #48	@ 0x30
 8003922:	f040 80b2 	bne.w	8003a8a <_strtod_l+0x1a2>
 8003926:	786a      	ldrb	r2, [r5, #1]
 8003928:	f002 02df 	and.w	r2, r2, #223	@ 0xdf
 800392c:	2a58      	cmp	r2, #88	@ 0x58
 800392e:	d16e      	bne.n	8003a0e <_strtod_l+0x126>
 8003930:	9302      	str	r3, [sp, #8]
 8003932:	9b0e      	ldr	r3, [sp, #56]	@ 0x38
 8003934:	9301      	str	r3, [sp, #4]
 8003936:	ab1a      	add	r3, sp, #104	@ 0x68
 8003938:	9300      	str	r3, [sp, #0]
 800393a:	4a8f      	ldr	r2, [pc, #572]	@ (8003b78 <_strtod_l+0x290>)
 800393c:	9805      	ldr	r0, [sp, #20]
 800393e:	ab1b      	add	r3, sp, #108	@ 0x6c
 8003940:	a919      	add	r1, sp, #100	@ 0x64
 8003942:	f001 fe0f 	bl	8005564 <__gethex>
 8003946:	f010 060f 	ands.w	r6, r0, #15
 800394a:	4604      	mov	r4, r0
 800394c:	d005      	beq.n	800395a <_strtod_l+0x72>
 800394e:	2e06      	cmp	r6, #6
 8003950:	d128      	bne.n	80039a4 <_strtod_l+0xbc>
 8003952:	3501      	adds	r5, #1
 8003954:	2300      	movs	r3, #0
 8003956:	9519      	str	r5, [sp, #100]	@ 0x64
 8003958:	930e      	str	r3, [sp, #56]	@ 0x38
 800395a:	9b17      	ldr	r3, [sp, #92]	@ 0x5c
 800395c:	2b00      	cmp	r3, #0
 800395e:	f040 858e 	bne.w	800447e <_strtod_l+0xb96>
 8003962:	9b0e      	ldr	r3, [sp, #56]	@ 0x38
 8003964:	b1cb      	cbz	r3, 800399a <_strtod_l+0xb2>
 8003966:	4652      	mov	r2, sl
 8003968:	f10b 4300 	add.w	r3, fp, #2147483648	@ 0x80000000
 800396c:	ec43 2b10 	vmov	d0, r2, r3
 8003970:	b01f      	add	sp, #124	@ 0x7c
 8003972:	e8bd 8ff0 	ldmia.w	sp!, {r4, r5, r6, r7, r8, r9, sl, fp, pc}
 8003976:	2920      	cmp	r1, #32
 8003978:	d1ce      	bne.n	8003918 <_strtod_l+0x30>
 800397a:	3201      	adds	r2, #1
 800397c:	e7c1      	b.n	8003902 <_strtod_l+0x1a>
 800397e:	292d      	cmp	r1, #45	@ 0x2d
 8003980:	d1ca      	bne.n	8003918 <_strtod_l+0x30>
 8003982:	2101      	movs	r1, #1
 8003984:	910e      	str	r1, [sp, #56]	@ 0x38
 8003986:	1c51      	adds	r1, r2, #1
 8003988:	9119      	str	r1, [sp, #100]	@ 0x64
 800398a:	7852      	ldrb	r2, [r2, #1]
 800398c:	2a00      	cmp	r2, #0
 800398e:	d1c5      	bne.n	800391c <_strtod_l+0x34>
 8003990:	9b17      	ldr	r3, [sp, #92]	@ 0x5c
 8003992:	9419      	str	r4, [sp, #100]	@ 0x64
 8003994:	2b00      	cmp	r3, #0
 8003996:	f040 8570 	bne.w	800447a <_strtod_l+0xb92>
 800399a:	4652      	mov	r2, sl
 800399c:	465b      	mov	r3, fp
 800399e:	e7e5      	b.n	800396c <_strtod_l+0x84>
 80039a0:	2100      	movs	r1, #0
 80039a2:	e7ef      	b.n	8003984 <_strtod_l+0x9c>
 80039a4:	9a1a      	ldr	r2, [sp, #104]	@ 0x68
 80039a6:	b13a      	cbz	r2, 80039b8 <_strtod_l+0xd0>
 80039a8:	2135      	movs	r1, #53	@ 0x35
 80039aa:	a81c      	add	r0, sp, #112	@ 0x70
 80039ac:	f003 fb34 	bl	8007018 <__copybits>
 80039b0:	991a      	ldr	r1, [sp, #104]	@ 0x68
 80039b2:	9805      	ldr	r0, [sp, #20]
 80039b4:	f002 ff0a 	bl	80067cc <_Bfree>
 80039b8:	3e01      	subs	r6, #1
 80039ba:	9a1b      	ldr	r2, [sp, #108]	@ 0x6c
 80039bc:	2e04      	cmp	r6, #4
 80039be:	d806      	bhi.n	80039ce <_strtod_l+0xe6>
 80039c0:	e8df f006 	tbb	[pc, r6]
 80039c4:	201d0314 	.word	0x201d0314
 80039c8:	14          	.byte	0x14
 80039c9:	00          	.byte	0x00
 80039ca:	e9dd ab1c 	ldrd	sl, fp, [sp, #112]	@ 0x70
 80039ce:	05e1      	lsls	r1, r4, #23
 80039d0:	bf48      	it	mi
 80039d2:	f04b 4b00 	orrmi.w	fp, fp, #2147483648	@ 0x80000000
 80039d6:	f02b 4300 	bic.w	r3, fp, #2147483648	@ 0x80000000
 80039da:	0d1b      	lsrs	r3, r3, #20
 80039dc:	051b      	lsls	r3, r3, #20
 80039de:	2b00      	cmp	r3, #0
 80039e0:	d1bb      	bne.n	800395a <_strtod_l+0x72>
 80039e2:	f000 fe55 	bl	8004690 <__errno>
 80039e6:	2322      	movs	r3, #34	@ 0x22
 80039e8:	6003      	str	r3, [r0, #0]
 80039ea:	e7b6      	b.n	800395a <_strtod_l+0x72>
 80039ec:	e9dd a31c 	ldrd	sl, r3, [sp, #112]	@ 0x70
 80039f0:	f202 4233 	addw	r2, r2, #1075	@ 0x433
 80039f4:	f423 1380 	bic.w	r3, r3, #1048576	@ 0x100000
 80039f8:	ea43 5b02 	orr.w	fp, r3, r2, lsl #20
 80039fc:	e7e7      	b.n	80039ce <_strtod_l+0xe6>
 80039fe:	f8df b180 	ldr.w	fp, [pc, #384]	@ 8003b80 <_strtod_l+0x298>
 8003a02:	e7e4      	b.n	80039ce <_strtod_l+0xe6>
 8003a04:	f06f 4b00 	mvn.w	fp, #2147483648	@ 0x80000000
 8003a08:	f04f 3aff 	mov.w	sl, #4294967295	@ 0xffffffff
 8003a0c:	e7df      	b.n	80039ce <_strtod_l+0xe6>
 8003a0e:	9b19      	ldr	r3, [sp, #100]	@ 0x64
 8003a10:	1c5a      	adds	r2, r3, #1
 8003a12:	9219      	str	r2, [sp, #100]	@ 0x64
 8003a14:	785b      	ldrb	r3, [r3, #1]
 8003a16:	2b30      	cmp	r3, #48	@ 0x30
 8003a18:	d0f9      	beq.n	8003a0e <_strtod_l+0x126>
 8003a1a:	2b00      	cmp	r3, #0
 8003a1c:	d09d      	beq.n	800395a <_strtod_l+0x72>
 8003a1e:	2301      	movs	r3, #1
 8003a20:	2700      	movs	r7, #0
 8003a22:	9308      	str	r3, [sp, #32]
 8003a24:	9b19      	ldr	r3, [sp, #100]	@ 0x64
 8003a26:	930c      	str	r3, [sp, #48]	@ 0x30
 8003a28:	970b      	str	r7, [sp, #44]	@ 0x2c
 8003a2a:	46b9      	mov	r9, r7
 8003a2c:	220a      	movs	r2, #10
 8003a2e:	9819      	ldr	r0, [sp, #100]	@ 0x64
 8003a30:	7805      	ldrb	r5, [r0, #0]
 8003a32:	f1a5 0330 	sub.w	r3, r5, #48	@ 0x30
 8003a36:	b2d9      	uxtb	r1, r3
 8003a38:	2909      	cmp	r1, #9
 8003a3a:	d928      	bls.n	8003a8e <_strtod_l+0x1a6>
 8003a3c:	494f      	ldr	r1, [pc, #316]	@ (8003b7c <_strtod_l+0x294>)
 8003a3e:	2201      	movs	r2, #1
 8003a40:	f000 fdde 	bl	8004600 <strncmp>
 8003a44:	2800      	cmp	r0, #0
 8003a46:	d032      	beq.n	8003aae <_strtod_l+0x1c6>
 8003a48:	2000      	movs	r0, #0
 8003a4a:	462a      	mov	r2, r5
 8003a4c:	900a      	str	r0, [sp, #40]	@ 0x28
 8003a4e:	464d      	mov	r5, r9
 8003a50:	4603      	mov	r3, r0
 8003a52:	2a65      	cmp	r2, #101	@ 0x65
 8003a54:	d001      	beq.n	8003a5a <_strtod_l+0x172>
 8003a56:	2a45      	cmp	r2, #69	@ 0x45
 8003a58:	d114      	bne.n	8003a84 <_strtod_l+0x19c>
 8003a5a:	b91d      	cbnz	r5, 8003a64 <_strtod_l+0x17c>
 8003a5c:	9a08      	ldr	r2, [sp, #32]
 8003a5e:	4302      	orrs	r2, r0
 8003a60:	d096      	beq.n	8003990 <_strtod_l+0xa8>
 8003a62:	2500      	movs	r5, #0
 8003a64:	9c19      	ldr	r4, [sp, #100]	@ 0x64
 8003a66:	1c62      	adds	r2, r4, #1
 8003a68:	9219      	str	r2, [sp, #100]	@ 0x64
 8003a6a:	7862      	ldrb	r2, [r4, #1]
 8003a6c:	2a2b      	cmp	r2, #43	@ 0x2b
 8003a6e:	d07a      	beq.n	8003b66 <_strtod_l+0x27e>
 8003a70:	2a2d      	cmp	r2, #45	@ 0x2d
 8003a72:	d07e      	beq.n	8003b72 <_strtod_l+0x28a>
 8003a74:	f04f 0c00 	mov.w	ip, #0
 8003a78:	f1a2 0130 	sub.w	r1, r2, #48	@ 0x30
 8003a7c:	2909      	cmp	r1, #9
 8003a7e:	f240 8085 	bls.w	8003b8c <_strtod_l+0x2a4>
 8003a82:	9419      	str	r4, [sp, #100]	@ 0x64
 8003a84:	f04f 0800 	mov.w	r8, #0
 8003a88:	e0a5      	b.n	8003bd6 <_strtod_l+0x2ee>
 8003a8a:	2300      	movs	r3, #0
 8003a8c:	e7c8      	b.n	8003a20 <_strtod_l+0x138>
 8003a8e:	f1b9 0f08 	cmp.w	r9, #8
 8003a92:	bfd8      	it	le
 8003a94:	990b      	ldrle	r1, [sp, #44]	@ 0x2c
 8003a96:	f100 0001 	add.w	r0, r0, #1
 8003a9a:	bfda      	itte	le
 8003a9c:	fb02 3301 	mlale	r3, r2, r1, r3
 8003aa0:	930b      	strle	r3, [sp, #44]	@ 0x2c
 8003aa2:	fb02 3707 	mlagt	r7, r2, r7, r3
 8003aa6:	f109 0901 	add.w	r9, r9, #1
 8003aaa:	9019      	str	r0, [sp, #100]	@ 0x64
 8003aac:	e7bf      	b.n	8003a2e <_strtod_l+0x146>
 8003aae:	9b19      	ldr	r3, [sp, #100]	@ 0x64
 8003ab0:	1c5a      	adds	r2, r3, #1
 8003ab2:	9219      	str	r2, [sp, #100]	@ 0x64
 8003ab4:	785a      	ldrb	r2, [r3, #1]
 8003ab6:	f1b9 0f00 	cmp.w	r9, #0
 8003aba:	d03b      	beq.n	8003b34 <_strtod_l+0x24c>
 8003abc:	900a      	str	r0, [sp, #40]	@ 0x28
 8003abe:	464d      	mov	r5, r9
 8003ac0:	f1a2 0330 	sub.w	r3, r2, #48	@ 0x30
 8003ac4:	2b09      	cmp	r3, #9
 8003ac6:	d912      	bls.n	8003aee <_strtod_l+0x206>
 8003ac8:	2301      	movs	r3, #1
 8003aca:	e7c2      	b.n	8003a52 <_strtod_l+0x16a>
 8003acc:	9b19      	ldr	r3, [sp, #100]	@ 0x64
 8003ace:	1c5a      	adds	r2, r3, #1
 8003ad0:	9219      	str	r2, [sp, #100]	@ 0x64
 8003ad2:	785a      	ldrb	r2, [r3, #1]
 8003ad4:	3001      	adds	r0, #1
 8003ad6:	2a30      	cmp	r2, #48	@ 0x30
 8003ad8:	d0f8      	beq.n	8003acc <_strtod_l+0x1e4>
 8003ada:	f1a2 0331 	sub.w	r3, r2, #49	@ 0x31
 8003ade:	2b08      	cmp	r3, #8
 8003ae0:	f200 84d2 	bhi.w	8004488 <_strtod_l+0xba0>
 8003ae4:	9b19      	ldr	r3, [sp, #100]	@ 0x64
 8003ae6:	900a      	str	r0, [sp, #40]	@ 0x28
 8003ae8:	2000      	movs	r0, #0
 8003aea:	930c      	str	r3, [sp, #48]	@ 0x30
 8003aec:	4605      	mov	r5, r0
 8003aee:	3a30      	subs	r2, #48	@ 0x30
 8003af0:	f100 0301 	add.w	r3, r0, #1
 8003af4:	d018      	beq.n	8003b28 <_strtod_l+0x240>
 8003af6:	990a      	ldr	r1, [sp, #40]	@ 0x28
 8003af8:	4419      	add	r1, r3
 8003afa:	910a      	str	r1, [sp, #40]	@ 0x28
 8003afc:	462e      	mov	r6, r5
 8003afe:	f04f 0e0a 	mov.w	lr, #10
 8003b02:	1c71      	adds	r1, r6, #1
 8003b04:	eba1 0c05 	sub.w	ip, r1, r5
 8003b08:	4563      	cmp	r3, ip
 8003b0a:	dc15      	bgt.n	8003b38 <_strtod_l+0x250>
 8003b0c:	ea20 70e0 	bic.w	r0, r0, r0, asr #31
 8003b10:	182b      	adds	r3, r5, r0
 8003b12:	2b08      	cmp	r3, #8
 8003b14:	f105 0501 	add.w	r5, r5, #1
 8003b18:	4405      	add	r5, r0
 8003b1a:	dc1a      	bgt.n	8003b52 <_strtod_l+0x26a>
 8003b1c:	990b      	ldr	r1, [sp, #44]	@ 0x2c
 8003b1e:	230a      	movs	r3, #10
 8003b20:	fb03 2301 	mla	r3, r3, r1, r2
 8003b24:	930b      	str	r3, [sp, #44]	@ 0x2c
 8003b26:	2300      	movs	r3, #0
 8003b28:	9a19      	ldr	r2, [sp, #100]	@ 0x64
 8003b2a:	1c51      	adds	r1, r2, #1
 8003b2c:	9119      	str	r1, [sp, #100]	@ 0x64
 8003b2e:	7852      	ldrb	r2, [r2, #1]
 8003b30:	4618      	mov	r0, r3
 8003b32:	e7c5      	b.n	8003ac0 <_strtod_l+0x1d8>
 8003b34:	4648      	mov	r0, r9
 8003b36:	e7ce      	b.n	8003ad6 <_strtod_l+0x1ee>
 8003b38:	2e08      	cmp	r6, #8
 8003b3a:	dc05      	bgt.n	8003b48 <_strtod_l+0x260>
 8003b3c:	9e0b      	ldr	r6, [sp, #44]	@ 0x2c
 8003b3e:	fb0e f606 	mul.w	r6, lr, r6
 8003b42:	960b      	str	r6, [sp, #44]	@ 0x2c
 8003b44:	460e      	mov	r6, r1
 8003b46:	e7dc      	b.n	8003b02 <_strtod_l+0x21a>
 8003b48:	2910      	cmp	r1, #16
 8003b4a:	bfd8      	it	le
 8003b4c:	fb0e f707 	mulle.w	r7, lr, r7
 8003b50:	e7f8      	b.n	8003b44 <_strtod_l+0x25c>
 8003b52:	2b0f      	cmp	r3, #15
 8003b54:	bfdc      	itt	le
 8003b56:	230a      	movle	r3, #10
 8003b58:	fb03 2707 	mlale	r7, r3, r7, r2
 8003b5c:	e7e3      	b.n	8003b26 <_strtod_l+0x23e>
 8003b5e:	2300      	movs	r3, #0
 8003b60:	930a      	str	r3, [sp, #40]	@ 0x28
 8003b62:	2301      	movs	r3, #1
 8003b64:	e77a      	b.n	8003a5c <_strtod_l+0x174>
 8003b66:	f04f 0c00 	mov.w	ip, #0
 8003b6a:	1ca2      	adds	r2, r4, #2
 8003b6c:	9219      	str	r2, [sp, #100]	@ 0x64
 8003b6e:	78a2      	ldrb	r2, [r4, #2]
 8003b70:	e782      	b.n	8003a78 <_strtod_l+0x190>
 8003b72:	f04f 0c01 	mov.w	ip, #1
 8003b76:	e7f8      	b.n	8003b6a <_strtod_l+0x282>
 8003b78:	08007f20 	.word	0x08007f20
 8003b7c:	08007d51 	.word	0x08007d51
 8003b80:	7ff00000 	.word	0x7ff00000
 8003b84:	9a19      	ldr	r2, [sp, #100]	@ 0x64
 8003b86:	1c51      	adds	r1, r2, #1
 8003b88:	9119      	str	r1, [sp, #100]	@ 0x64
 8003b8a:	7852      	ldrb	r2, [r2, #1]
 8003b8c:	2a30      	cmp	r2, #48	@ 0x30
 8003b8e:	d0f9      	beq.n	8003b84 <_strtod_l+0x29c>
 8003b90:	f1a2 0131 	sub.w	r1, r2, #49	@ 0x31
 8003b94:	2908      	cmp	r1, #8
 8003b96:	f63f af75 	bhi.w	8003a84 <_strtod_l+0x19c>
 8003b9a:	3a30      	subs	r2, #48	@ 0x30
 8003b9c:	9209      	str	r2, [sp, #36]	@ 0x24
 8003b9e:	9a19      	ldr	r2, [sp, #100]	@ 0x64
 8003ba0:	920f      	str	r2, [sp, #60]	@ 0x3c
 8003ba2:	f04f 080a 	mov.w	r8, #10
 8003ba6:	9a19      	ldr	r2, [sp, #100]	@ 0x64
 8003ba8:	1c56      	adds	r6, r2, #1
 8003baa:	9619      	str	r6, [sp, #100]	@ 0x64
 8003bac:	7852      	ldrb	r2, [r2, #1]
 8003bae:	f1a2 0e30 	sub.w	lr, r2, #48	@ 0x30
 8003bb2:	f1be 0f09 	cmp.w	lr, #9
 8003bb6:	d939      	bls.n	8003c2c <_strtod_l+0x344>
 8003bb8:	990f      	ldr	r1, [sp, #60]	@ 0x3c
 8003bba:	1a76      	subs	r6, r6, r1
 8003bbc:	2e08      	cmp	r6, #8
 8003bbe:	f644 681f 	movw	r8, #19999	@ 0x4e1f
 8003bc2:	dc03      	bgt.n	8003bcc <_strtod_l+0x2e4>
 8003bc4:	9909      	ldr	r1, [sp, #36]	@ 0x24
 8003bc6:	4588      	cmp	r8, r1
 8003bc8:	bfa8      	it	ge
 8003bca:	4688      	movge	r8, r1
 8003bcc:	f1bc 0f00 	cmp.w	ip, #0
 8003bd0:	d001      	beq.n	8003bd6 <_strtod_l+0x2ee>
 8003bd2:	f1c8 0800 	rsb	r8, r8, #0
 8003bd6:	2d00      	cmp	r5, #0
 8003bd8:	d14e      	bne.n	8003c78 <_strtod_l+0x390>
 8003bda:	9908      	ldr	r1, [sp, #32]
 8003bdc:	4308      	orrs	r0, r1
 8003bde:	f47f aebc 	bne.w	800395a <_strtod_l+0x72>
 8003be2:	2b00      	cmp	r3, #0
 8003be4:	f47f aed4 	bne.w	8003990 <_strtod_l+0xa8>
 8003be8:	2a69      	cmp	r2, #105	@ 0x69
 8003bea:	d028      	beq.n	8003c3e <_strtod_l+0x356>
 8003bec:	dc25      	bgt.n	8003c3a <_strtod_l+0x352>
 8003bee:	2a49      	cmp	r2, #73	@ 0x49
 8003bf0:	d025      	beq.n	8003c3e <_strtod_l+0x356>
 8003bf2:	2a4e      	cmp	r2, #78	@ 0x4e
 8003bf4:	f47f aecc 	bne.w	8003990 <_strtod_l+0xa8>
 8003bf8:	499a      	ldr	r1, [pc, #616]	@ (8003e64 <_strtod_l+0x57c>)
 8003bfa:	a819      	add	r0, sp, #100	@ 0x64
 8003bfc:	f001 fed4 	bl	80059a8 <__match>
 8003c00:	2800      	cmp	r0, #0
 8003c02:	f43f aec5 	beq.w	8003990 <_strtod_l+0xa8>
 8003c06:	9b19      	ldr	r3, [sp, #100]	@ 0x64
 8003c08:	781b      	ldrb	r3, [r3, #0]
 8003c0a:	2b28      	cmp	r3, #40	@ 0x28
 8003c0c:	d12e      	bne.n	8003c6c <_strtod_l+0x384>
 8003c0e:	4996      	ldr	r1, [pc, #600]	@ (8003e68 <_strtod_l+0x580>)
 8003c10:	aa1c      	add	r2, sp, #112	@ 0x70
 8003c12:	a819      	add	r0, sp, #100	@ 0x64
 8003c14:	f001 fedc 	bl	80059d0 <__hexnan>
 8003c18:	2805      	cmp	r0, #5
 8003c1a:	d127      	bne.n	8003c6c <_strtod_l+0x384>
 8003c1c:	9b1d      	ldr	r3, [sp, #116]	@ 0x74
 8003c1e:	f8dd a070 	ldr.w	sl, [sp, #112]	@ 0x70
 8003c22:	f043 4bff 	orr.w	fp, r3, #2139095040	@ 0x7f800000
 8003c26:	f44b 0be0 	orr.w	fp, fp, #7340032	@ 0x700000
 8003c2a:	e696      	b.n	800395a <_strtod_l+0x72>
 8003c2c:	9909      	ldr	r1, [sp, #36]	@ 0x24
 8003c2e:	fb08 2101 	mla	r1, r8, r1, r2
 8003c32:	f1a1 0230 	sub.w	r2, r1, #48	@ 0x30
 8003c36:	9209      	str	r2, [sp, #36]	@ 0x24
 8003c38:	e7b5      	b.n	8003ba6 <_strtod_l+0x2be>
 8003c3a:	2a6e      	cmp	r2, #110	@ 0x6e
 8003c3c:	e7da      	b.n	8003bf4 <_strtod_l+0x30c>
 8003c3e:	498b      	ldr	r1, [pc, #556]	@ (8003e6c <_strtod_l+0x584>)
 8003c40:	a819      	add	r0, sp, #100	@ 0x64
 8003c42:	f001 feb1 	bl	80059a8 <__match>
 8003c46:	2800      	cmp	r0, #0
 8003c48:	f43f aea2 	beq.w	8003990 <_strtod_l+0xa8>
 8003c4c:	9b19      	ldr	r3, [sp, #100]	@ 0x64
 8003c4e:	4988      	ldr	r1, [pc, #544]	@ (8003e70 <_strtod_l+0x588>)
 8003c50:	3b01      	subs	r3, #1
 8003c52:	a819      	add	r0, sp, #100	@ 0x64
 8003c54:	9319      	str	r3, [sp, #100]	@ 0x64
 8003c56:	f001 fea7 	bl	80059a8 <__match>
 8003c5a:	b910      	cbnz	r0, 8003c62 <_strtod_l+0x37a>
 8003c5c:	9b19      	ldr	r3, [sp, #100]	@ 0x64
 8003c5e:	3301      	adds	r3, #1
 8003c60:	9319      	str	r3, [sp, #100]	@ 0x64
 8003c62:	f8df b21c 	ldr.w	fp, [pc, #540]	@ 8003e80 <_strtod_l+0x598>
 8003c66:	f04f 0a00 	mov.w	sl, #0
 8003c6a:	e676      	b.n	800395a <_strtod_l+0x72>
 8003c6c:	4881      	ldr	r0, [pc, #516]	@ (8003e74 <_strtod_l+0x58c>)
 8003c6e:	f000 fd5f 	bl	8004730 <nan>
 8003c72:	ec5b ab10 	vmov	sl, fp, d0
 8003c76:	e670      	b.n	800395a <_strtod_l+0x72>
 8003c78:	9b0a      	ldr	r3, [sp, #40]	@ 0x28
 8003c7a:	980b      	ldr	r0, [sp, #44]	@ 0x2c
 8003c7c:	eba8 0303 	sub.w	r3, r8, r3
 8003c80:	f1b9 0f00 	cmp.w	r9, #0
 8003c84:	bf08      	it	eq
 8003c86:	46a9      	moveq	r9, r5
 8003c88:	2d10      	cmp	r5, #16
 8003c8a:	9309      	str	r3, [sp, #36]	@ 0x24
 8003c8c:	462c      	mov	r4, r5
 8003c8e:	bfa8      	it	ge
 8003c90:	2410      	movge	r4, #16
 8003c92:	f7fc fc67 	bl	8000564 <__aeabi_ui2d>
 8003c96:	2d09      	cmp	r5, #9
 8003c98:	4682      	mov	sl, r0
 8003c9a:	468b      	mov	fp, r1
 8003c9c:	dc13      	bgt.n	8003cc6 <_strtod_l+0x3de>
 8003c9e:	9b09      	ldr	r3, [sp, #36]	@ 0x24
 8003ca0:	2b00      	cmp	r3, #0
 8003ca2:	f43f ae5a 	beq.w	800395a <_strtod_l+0x72>
 8003ca6:	9b09      	ldr	r3, [sp, #36]	@ 0x24
 8003ca8:	dd78      	ble.n	8003d9c <_strtod_l+0x4b4>
 8003caa:	2b16      	cmp	r3, #22
 8003cac:	dc5f      	bgt.n	8003d6e <_strtod_l+0x486>
 8003cae:	4972      	ldr	r1, [pc, #456]	@ (8003e78 <_strtod_l+0x590>)
 8003cb0:	eb01 01c3 	add.w	r1, r1, r3, lsl #3
 8003cb4:	e9d1 0100 	ldrd	r0, r1, [r1]
 8003cb8:	4652      	mov	r2, sl
 8003cba:	465b      	mov	r3, fp
 8003cbc:	f7fc fccc 	bl	8000658 <__aeabi_dmul>
 8003cc0:	4682      	mov	sl, r0
 8003cc2:	468b      	mov	fp, r1
 8003cc4:	e649      	b.n	800395a <_strtod_l+0x72>
 8003cc6:	4b6c      	ldr	r3, [pc, #432]	@ (8003e78 <_strtod_l+0x590>)
 8003cc8:	eb03 03c4 	add.w	r3, r3, r4, lsl #3
 8003ccc:	e953 2312 	ldrd	r2, r3, [r3, #-72]	@ 0x48
 8003cd0:	f7fc fcc2 	bl	8000658 <__aeabi_dmul>
 8003cd4:	4682      	mov	sl, r0
 8003cd6:	4638      	mov	r0, r7
 8003cd8:	468b      	mov	fp, r1
 8003cda:	f7fc fc43 	bl	8000564 <__aeabi_ui2d>
 8003cde:	4602      	mov	r2, r0
 8003ce0:	460b      	mov	r3, r1
 8003ce2:	4650      	mov	r0, sl
 8003ce4:	4659      	mov	r1, fp
 8003ce6:	f7fc fb01 	bl	80002ec <__adddf3>
 8003cea:	2d0f      	cmp	r5, #15
 8003cec:	4682      	mov	sl, r0
 8003cee:	468b      	mov	fp, r1
 8003cf0:	ddd5      	ble.n	8003c9e <_strtod_l+0x3b6>
 8003cf2:	9b09      	ldr	r3, [sp, #36]	@ 0x24
 8003cf4:	1b2c      	subs	r4, r5, r4
 8003cf6:	441c      	add	r4, r3
 8003cf8:	2c00      	cmp	r4, #0
 8003cfa:	f340 8093 	ble.w	8003e24 <_strtod_l+0x53c>
 8003cfe:	f014 030f 	ands.w	r3, r4, #15
 8003d02:	d00a      	beq.n	8003d1a <_strtod_l+0x432>
 8003d04:	495c      	ldr	r1, [pc, #368]	@ (8003e78 <_strtod_l+0x590>)
 8003d06:	eb01 01c3 	add.w	r1, r1, r3, lsl #3
 8003d0a:	4652      	mov	r2, sl
 8003d0c:	465b      	mov	r3, fp
 8003d0e:	e9d1 0100 	ldrd	r0, r1, [r1]
 8003d12:	f7fc fca1 	bl	8000658 <__aeabi_dmul>
 8003d16:	4682      	mov	sl, r0
 8003d18:	468b      	mov	fp, r1
 8003d1a:	f034 040f 	bics.w	r4, r4, #15
 8003d1e:	d073      	beq.n	8003e08 <_strtod_l+0x520>
 8003d20:	f5b4 7f9a 	cmp.w	r4, #308	@ 0x134
 8003d24:	dd49      	ble.n	8003dba <_strtod_l+0x4d2>
 8003d26:	2400      	movs	r4, #0
 8003d28:	46a0      	mov	r8, r4
 8003d2a:	940b      	str	r4, [sp, #44]	@ 0x2c
 8003d2c:	46a1      	mov	r9, r4
 8003d2e:	9a05      	ldr	r2, [sp, #20]
 8003d30:	f8df b14c 	ldr.w	fp, [pc, #332]	@ 8003e80 <_strtod_l+0x598>
 8003d34:	2322      	movs	r3, #34	@ 0x22
 8003d36:	6013      	str	r3, [r2, #0]
 8003d38:	f04f 0a00 	mov.w	sl, #0
 8003d3c:	9b0b      	ldr	r3, [sp, #44]	@ 0x2c
 8003d3e:	2b00      	cmp	r3, #0
 8003d40:	f43f ae0b 	beq.w	800395a <_strtod_l+0x72>
 8003d44:	991a      	ldr	r1, [sp, #104]	@ 0x68
 8003d46:	9805      	ldr	r0, [sp, #20]
 8003d48:	f002 fd40 	bl	80067cc <_Bfree>
 8003d4c:	9805      	ldr	r0, [sp, #20]
 8003d4e:	4649      	mov	r1, r9
 8003d50:	f002 fd3c 	bl	80067cc <_Bfree>
 8003d54:	9805      	ldr	r0, [sp, #20]
 8003d56:	4641      	mov	r1, r8
 8003d58:	f002 fd38 	bl	80067cc <_Bfree>
 8003d5c:	990b      	ldr	r1, [sp, #44]	@ 0x2c
 8003d5e:	9805      	ldr	r0, [sp, #20]
 8003d60:	f002 fd34 	bl	80067cc <_Bfree>
 8003d64:	9805      	ldr	r0, [sp, #20]
 8003d66:	4621      	mov	r1, r4
 8003d68:	f002 fd30 	bl	80067cc <_Bfree>
 8003d6c:	e5f5      	b.n	800395a <_strtod_l+0x72>
 8003d6e:	9a09      	ldr	r2, [sp, #36]	@ 0x24
 8003d70:	f1c5 0325 	rsb	r3, r5, #37	@ 0x25
 8003d74:	4293      	cmp	r3, r2
 8003d76:	dbbc      	blt.n	8003cf2 <_strtod_l+0x40a>
 8003d78:	4c3f      	ldr	r4, [pc, #252]	@ (8003e78 <_strtod_l+0x590>)
 8003d7a:	f1c5 050f 	rsb	r5, r5, #15
 8003d7e:	eb04 01c5 	add.w	r1, r4, r5, lsl #3
 8003d82:	4652      	mov	r2, sl
 8003d84:	465b      	mov	r3, fp
 8003d86:	e9d1 0100 	ldrd	r0, r1, [r1]
 8003d8a:	f7fc fc65 	bl	8000658 <__aeabi_dmul>
 8003d8e:	9b09      	ldr	r3, [sp, #36]	@ 0x24
 8003d90:	1b5d      	subs	r5, r3, r5
 8003d92:	eb04 04c5 	add.w	r4, r4, r5, lsl #3
 8003d96:	e9d4 2300 	ldrd	r2, r3, [r4]
 8003d9a:	e78f      	b.n	8003cbc <_strtod_l+0x3d4>
 8003d9c:	3316      	adds	r3, #22
 8003d9e:	dba8      	blt.n	8003cf2 <_strtod_l+0x40a>
 8003da0:	9b0a      	ldr	r3, [sp, #40]	@ 0x28
 8003da2:	eba3 0808 	sub.w	r8, r3, r8
 8003da6:	4b34      	ldr	r3, [pc, #208]	@ (8003e78 <_strtod_l+0x590>)
 8003da8:	eb03 08c8 	add.w	r8, r3, r8, lsl #3
 8003dac:	e9d8 2300 	ldrd	r2, r3, [r8]
 8003db0:	4650      	mov	r0, sl
 8003db2:	4659      	mov	r1, fp
 8003db4:	f7fc fd7a 	bl	80008ac <__aeabi_ddiv>
 8003db8:	e782      	b.n	8003cc0 <_strtod_l+0x3d8>
 8003dba:	2300      	movs	r3, #0
 8003dbc:	4f2f      	ldr	r7, [pc, #188]	@ (8003e7c <_strtod_l+0x594>)
 8003dbe:	1124      	asrs	r4, r4, #4
 8003dc0:	4650      	mov	r0, sl
 8003dc2:	4659      	mov	r1, fp
 8003dc4:	461e      	mov	r6, r3
 8003dc6:	2c01      	cmp	r4, #1
 8003dc8:	dc21      	bgt.n	8003e0e <_strtod_l+0x526>
 8003dca:	b10b      	cbz	r3, 8003dd0 <_strtod_l+0x4e8>
 8003dcc:	4682      	mov	sl, r0
 8003dce:	468b      	mov	fp, r1
 8003dd0:	492a      	ldr	r1, [pc, #168]	@ (8003e7c <_strtod_l+0x594>)
 8003dd2:	f1ab 7b54 	sub.w	fp, fp, #55574528	@ 0x3500000
 8003dd6:	eb01 01c6 	add.w	r1, r1, r6, lsl #3
 8003dda:	4652      	mov	r2, sl
 8003ddc:	465b      	mov	r3, fp
 8003dde:	e9d1 0100 	ldrd	r0, r1, [r1]
 8003de2:	f7fc fc39 	bl	8000658 <__aeabi_dmul>
 8003de6:	4b26      	ldr	r3, [pc, #152]	@ (8003e80 <_strtod_l+0x598>)
 8003de8:	460a      	mov	r2, r1
 8003dea:	400b      	ands	r3, r1
 8003dec:	4925      	ldr	r1, [pc, #148]	@ (8003e84 <_strtod_l+0x59c>)
 8003dee:	428b      	cmp	r3, r1
 8003df0:	4682      	mov	sl, r0
 8003df2:	d898      	bhi.n	8003d26 <_strtod_l+0x43e>
 8003df4:	f5a1 1180 	sub.w	r1, r1, #1048576	@ 0x100000
 8003df8:	428b      	cmp	r3, r1
 8003dfa:	bf86      	itte	hi
 8003dfc:	f8df b088 	ldrhi.w	fp, [pc, #136]	@ 8003e88 <_strtod_l+0x5a0>
 8003e00:	f04f 3aff 	movhi.w	sl, #4294967295	@ 0xffffffff
 8003e04:	f102 7b54 	addls.w	fp, r2, #55574528	@ 0x3500000
 8003e08:	2300      	movs	r3, #0
 8003e0a:	9308      	str	r3, [sp, #32]
 8003e0c:	e076      	b.n	8003efc <_strtod_l+0x614>
 8003e0e:	07e2      	lsls	r2, r4, #31
 8003e10:	d504      	bpl.n	8003e1c <_strtod_l+0x534>
 8003e12:	e9d7 2300 	ldrd	r2, r3, [r7]
 8003e16:	f7fc fc1f 	bl	8000658 <__aeabi_dmul>
 8003e1a:	2301      	movs	r3, #1
 8003e1c:	3601      	adds	r6, #1
 8003e1e:	1064      	asrs	r4, r4, #1
 8003e20:	3708      	adds	r7, #8
 8003e22:	e7d0      	b.n	8003dc6 <_strtod_l+0x4de>
 8003e24:	d0f0      	beq.n	8003e08 <_strtod_l+0x520>
 8003e26:	4264      	negs	r4, r4
 8003e28:	f014 020f 	ands.w	r2, r4, #15
 8003e2c:	d00a      	beq.n	8003e44 <_strtod_l+0x55c>
 8003e2e:	4b12      	ldr	r3, [pc, #72]	@ (8003e78 <_strtod_l+0x590>)
 8003e30:	eb03 03c2 	add.w	r3, r3, r2, lsl #3
 8003e34:	4650      	mov	r0, sl
 8003e36:	4659      	mov	r1, fp
 8003e38:	e9d3 2300 	ldrd	r2, r3, [r3]
 8003e3c:	f7fc fd36 	bl	80008ac <__aeabi_ddiv>
 8003e40:	4682      	mov	sl, r0
 8003e42:	468b      	mov	fp, r1
 8003e44:	1124      	asrs	r4, r4, #4
 8003e46:	d0df      	beq.n	8003e08 <_strtod_l+0x520>
 8003e48:	2c1f      	cmp	r4, #31
 8003e4a:	dd1f      	ble.n	8003e8c <_strtod_l+0x5a4>
 8003e4c:	2400      	movs	r4, #0
 8003e4e:	46a0      	mov	r8, r4
 8003e50:	940b      	str	r4, [sp, #44]	@ 0x2c
 8003e52:	46a1      	mov	r9, r4
 8003e54:	9a05      	ldr	r2, [sp, #20]
 8003e56:	2322      	movs	r3, #34	@ 0x22
 8003e58:	f04f 0a00 	mov.w	sl, #0
 8003e5c:	f04f 0b00 	mov.w	fp, #0
 8003e60:	6013      	str	r3, [r2, #0]
 8003e62:	e76b      	b.n	8003d3c <_strtod_l+0x454>
 8003e64:	08007d27 	.word	0x08007d27
 8003e68:	08007f0c 	.word	0x08007f0c
 8003e6c:	08007d1f 	.word	0x08007d1f
 8003e70:	08007d5e 	.word	0x08007d5e
 8003e74:	08007f08 	.word	0x08007f08
 8003e78:	08008098 	.word	0x08008098
 8003e7c:	08008070 	.word	0x08008070
 8003e80:	7ff00000 	.word	0x7ff00000
 8003e84:	7ca00000 	.word	0x7ca00000
 8003e88:	7fefffff 	.word	0x7fefffff
 8003e8c:	f014 0310 	ands.w	r3, r4, #16
 8003e90:	bf18      	it	ne
 8003e92:	236a      	movne	r3, #106	@ 0x6a
 8003e94:	4ea9      	ldr	r6, [pc, #676]	@ (800413c <_strtod_l+0x854>)
 8003e96:	9308      	str	r3, [sp, #32]
 8003e98:	4650      	mov	r0, sl
 8003e9a:	4659      	mov	r1, fp
 8003e9c:	2300      	movs	r3, #0
 8003e9e:	07e7      	lsls	r7, r4, #31
 8003ea0:	d504      	bpl.n	8003eac <_strtod_l+0x5c4>
 8003ea2:	e9d6 2300 	ldrd	r2, r3, [r6]
 8003ea6:	f7fc fbd7 	bl	8000658 <__aeabi_dmul>
 8003eaa:	2301      	movs	r3, #1
 8003eac:	1064      	asrs	r4, r4, #1
 8003eae:	f106 0608 	add.w	r6, r6, #8
 8003eb2:	d1f4      	bne.n	8003e9e <_strtod_l+0x5b6>
 8003eb4:	b10b      	cbz	r3, 8003eba <_strtod_l+0x5d2>
 8003eb6:	4682      	mov	sl, r0
 8003eb8:	468b      	mov	fp, r1
 8003eba:	9b08      	ldr	r3, [sp, #32]
 8003ebc:	b1b3      	cbz	r3, 8003eec <_strtod_l+0x604>
 8003ebe:	f3cb 520a 	ubfx	r2, fp, #20, #11
 8003ec2:	f1c2 036b 	rsb	r3, r2, #107	@ 0x6b
 8003ec6:	2b00      	cmp	r3, #0
 8003ec8:	4659      	mov	r1, fp
 8003eca:	dd0f      	ble.n	8003eec <_strtod_l+0x604>
 8003ecc:	2b1f      	cmp	r3, #31
 8003ece:	dd56      	ble.n	8003f7e <_strtod_l+0x696>
 8003ed0:	2b34      	cmp	r3, #52	@ 0x34
 8003ed2:	bfde      	ittt	le
 8003ed4:	f04f 33ff 	movle.w	r3, #4294967295	@ 0xffffffff
 8003ed8:	f1c2 024b 	rsble	r2, r2, #75	@ 0x4b
 8003edc:	4093      	lslle	r3, r2
 8003ede:	f04f 0a00 	mov.w	sl, #0
 8003ee2:	bfcc      	ite	gt
 8003ee4:	f04f 7b5c 	movgt.w	fp, #57671680	@ 0x3700000
 8003ee8:	ea03 0b01 	andle.w	fp, r3, r1
 8003eec:	2200      	movs	r2, #0
 8003eee:	2300      	movs	r3, #0
 8003ef0:	4650      	mov	r0, sl
 8003ef2:	4659      	mov	r1, fp
 8003ef4:	f7fc fe18 	bl	8000b28 <__aeabi_dcmpeq>
 8003ef8:	2800      	cmp	r0, #0
 8003efa:	d1a7      	bne.n	8003e4c <_strtod_l+0x564>
 8003efc:	9b0b      	ldr	r3, [sp, #44]	@ 0x2c
 8003efe:	9300      	str	r3, [sp, #0]
 8003f00:	990c      	ldr	r1, [sp, #48]	@ 0x30
 8003f02:	9805      	ldr	r0, [sp, #20]
 8003f04:	462b      	mov	r3, r5
 8003f06:	464a      	mov	r2, r9
 8003f08:	f002 fcc8 	bl	800689c <__s2b>
 8003f0c:	900b      	str	r0, [sp, #44]	@ 0x2c
 8003f0e:	2800      	cmp	r0, #0
 8003f10:	f43f af09 	beq.w	8003d26 <_strtod_l+0x43e>
 8003f14:	9a09      	ldr	r2, [sp, #36]	@ 0x24
 8003f16:	9b0a      	ldr	r3, [sp, #40]	@ 0x28
 8003f18:	2a00      	cmp	r2, #0
 8003f1a:	eba3 0308 	sub.w	r3, r3, r8
 8003f1e:	bfa8      	it	ge
 8003f20:	2300      	movge	r3, #0
 8003f22:	9312      	str	r3, [sp, #72]	@ 0x48
 8003f24:	2400      	movs	r4, #0
 8003f26:	ea22 73e2 	bic.w	r3, r2, r2, asr #31
 8003f2a:	9316      	str	r3, [sp, #88]	@ 0x58
 8003f2c:	46a0      	mov	r8, r4
 8003f2e:	9b0b      	ldr	r3, [sp, #44]	@ 0x2c
 8003f30:	9805      	ldr	r0, [sp, #20]
 8003f32:	6859      	ldr	r1, [r3, #4]
 8003f34:	f002 fc0a 	bl	800674c <_Balloc>
 8003f38:	4681      	mov	r9, r0
 8003f3a:	2800      	cmp	r0, #0
 8003f3c:	f43f aef7 	beq.w	8003d2e <_strtod_l+0x446>
 8003f40:	9b0b      	ldr	r3, [sp, #44]	@ 0x2c
 8003f42:	691a      	ldr	r2, [r3, #16]
 8003f44:	3202      	adds	r2, #2
 8003f46:	f103 010c 	add.w	r1, r3, #12
 8003f4a:	0092      	lsls	r2, r2, #2
 8003f4c:	300c      	adds	r0, #12
 8003f4e:	f000 fbe1 	bl	8004714 <memcpy>
 8003f52:	ec4b ab10 	vmov	d0, sl, fp
 8003f56:	9805      	ldr	r0, [sp, #20]
 8003f58:	aa1c      	add	r2, sp, #112	@ 0x70
 8003f5a:	a91b      	add	r1, sp, #108	@ 0x6c
 8003f5c:	e9cd ab0c 	strd	sl, fp, [sp, #48]	@ 0x30
 8003f60:	f002 ffd0 	bl	8006f04 <__d2b>
 8003f64:	901a      	str	r0, [sp, #104]	@ 0x68
 8003f66:	2800      	cmp	r0, #0
 8003f68:	f43f aee1 	beq.w	8003d2e <_strtod_l+0x446>
 8003f6c:	9805      	ldr	r0, [sp, #20]
 8003f6e:	2101      	movs	r1, #1
 8003f70:	f002 fd2a 	bl	80069c8 <__i2b>
 8003f74:	4680      	mov	r8, r0
 8003f76:	b948      	cbnz	r0, 8003f8c <_strtod_l+0x6a4>
 8003f78:	f04f 0800 	mov.w	r8, #0
 8003f7c:	e6d7      	b.n	8003d2e <_strtod_l+0x446>
 8003f7e:	f04f 32ff 	mov.w	r2, #4294967295	@ 0xffffffff
 8003f82:	fa02 f303 	lsl.w	r3, r2, r3
 8003f86:	ea03 0a0a 	and.w	sl, r3, sl
 8003f8a:	e7af      	b.n	8003eec <_strtod_l+0x604>
 8003f8c:	9d1b      	ldr	r5, [sp, #108]	@ 0x6c
 8003f8e:	9a1c      	ldr	r2, [sp, #112]	@ 0x70
 8003f90:	2d00      	cmp	r5, #0
 8003f92:	bfab      	itete	ge
 8003f94:	9b12      	ldrge	r3, [sp, #72]	@ 0x48
 8003f96:	9b16      	ldrlt	r3, [sp, #88]	@ 0x58
 8003f98:	9e16      	ldrge	r6, [sp, #88]	@ 0x58
 8003f9a:	9f12      	ldrlt	r7, [sp, #72]	@ 0x48
 8003f9c:	bfac      	ite	ge
 8003f9e:	18ef      	addge	r7, r5, r3
 8003fa0:	1b5e      	sublt	r6, r3, r5
 8003fa2:	9b08      	ldr	r3, [sp, #32]
 8003fa4:	1aed      	subs	r5, r5, r3
 8003fa6:	4415      	add	r5, r2
 8003fa8:	4b65      	ldr	r3, [pc, #404]	@ (8004140 <_strtod_l+0x858>)
 8003faa:	3d01      	subs	r5, #1
 8003fac:	429d      	cmp	r5, r3
 8003fae:	f1c2 0236 	rsb	r2, r2, #54	@ 0x36
 8003fb2:	da50      	bge.n	8004056 <_strtod_l+0x76e>
 8003fb4:	1b5b      	subs	r3, r3, r5
 8003fb6:	2b1f      	cmp	r3, #31
 8003fb8:	eba2 0203 	sub.w	r2, r2, r3
 8003fbc:	f04f 0101 	mov.w	r1, #1
 8003fc0:	dc3d      	bgt.n	800403e <_strtod_l+0x756>
 8003fc2:	fa01 f303 	lsl.w	r3, r1, r3
 8003fc6:	9313      	str	r3, [sp, #76]	@ 0x4c
 8003fc8:	2300      	movs	r3, #0
 8003fca:	9310      	str	r3, [sp, #64]	@ 0x40
 8003fcc:	18bd      	adds	r5, r7, r2
 8003fce:	9b08      	ldr	r3, [sp, #32]
 8003fd0:	42af      	cmp	r7, r5
 8003fd2:	4416      	add	r6, r2
 8003fd4:	441e      	add	r6, r3
 8003fd6:	463b      	mov	r3, r7
 8003fd8:	bfa8      	it	ge
 8003fda:	462b      	movge	r3, r5
 8003fdc:	42b3      	cmp	r3, r6
 8003fde:	bfa8      	it	ge
 8003fe0:	4633      	movge	r3, r6
 8003fe2:	2b00      	cmp	r3, #0
 8003fe4:	bfc2      	ittt	gt
 8003fe6:	1aed      	subgt	r5, r5, r3
 8003fe8:	1af6      	subgt	r6, r6, r3
 8003fea:	1aff      	subgt	r7, r7, r3
 8003fec:	9b12      	ldr	r3, [sp, #72]	@ 0x48
 8003fee:	2b00      	cmp	r3, #0
 8003ff0:	dd16      	ble.n	8004020 <_strtod_l+0x738>
 8003ff2:	4641      	mov	r1, r8
 8003ff4:	9805      	ldr	r0, [sp, #20]
 8003ff6:	461a      	mov	r2, r3
 8003ff8:	f002 fd9e 	bl	8006b38 <__pow5mult>
 8003ffc:	4680      	mov	r8, r0
 8003ffe:	2800      	cmp	r0, #0
 8004000:	d0ba      	beq.n	8003f78 <_strtod_l+0x690>
 8004002:	4601      	mov	r1, r0
 8004004:	9a1a      	ldr	r2, [sp, #104]	@ 0x68
 8004006:	9805      	ldr	r0, [sp, #20]
 8004008:	f002 fcf4 	bl	80069f4 <__multiply>
 800400c:	900a      	str	r0, [sp, #40]	@ 0x28
 800400e:	2800      	cmp	r0, #0
 8004010:	f43f ae8d 	beq.w	8003d2e <_strtod_l+0x446>
 8004014:	991a      	ldr	r1, [sp, #104]	@ 0x68
 8004016:	9805      	ldr	r0, [sp, #20]
 8004018:	f002 fbd8 	bl	80067cc <_Bfree>
 800401c:	9b0a      	ldr	r3, [sp, #40]	@ 0x28
 800401e:	931a      	str	r3, [sp, #104]	@ 0x68
 8004020:	2d00      	cmp	r5, #0
 8004022:	dc1d      	bgt.n	8004060 <_strtod_l+0x778>
 8004024:	9b09      	ldr	r3, [sp, #36]	@ 0x24
 8004026:	2b00      	cmp	r3, #0
 8004028:	dd23      	ble.n	8004072 <_strtod_l+0x78a>
 800402a:	4649      	mov	r1, r9
 800402c:	9a16      	ldr	r2, [sp, #88]	@ 0x58
 800402e:	9805      	ldr	r0, [sp, #20]
 8004030:	f002 fd82 	bl	8006b38 <__pow5mult>
 8004034:	4681      	mov	r9, r0
 8004036:	b9e0      	cbnz	r0, 8004072 <_strtod_l+0x78a>
 8004038:	f04f 0900 	mov.w	r9, #0
 800403c:	e677      	b.n	8003d2e <_strtod_l+0x446>
 800403e:	f1c5 457f 	rsb	r5, r5, #4278190080	@ 0xff000000
 8004042:	f505 057f 	add.w	r5, r5, #16711680	@ 0xff0000
 8004046:	f505 457b 	add.w	r5, r5, #64256	@ 0xfb00
 800404a:	35e2      	adds	r5, #226	@ 0xe2
 800404c:	fa01 f305 	lsl.w	r3, r1, r5
 8004050:	9310      	str	r3, [sp, #64]	@ 0x40
 8004052:	9113      	str	r1, [sp, #76]	@ 0x4c
 8004054:	e7ba      	b.n	8003fcc <_strtod_l+0x6e4>
 8004056:	2300      	movs	r3, #0
 8004058:	9310      	str	r3, [sp, #64]	@ 0x40
 800405a:	2301      	movs	r3, #1
 800405c:	9313      	str	r3, [sp, #76]	@ 0x4c
 800405e:	e7b5      	b.n	8003fcc <_strtod_l+0x6e4>
 8004060:	991a      	ldr	r1, [sp, #104]	@ 0x68
 8004062:	9805      	ldr	r0, [sp, #20]
 8004064:	462a      	mov	r2, r5
 8004066:	f002 fdc1 	bl	8006bec <__lshift>
 800406a:	901a      	str	r0, [sp, #104]	@ 0x68
 800406c:	2800      	cmp	r0, #0
 800406e:	d1d9      	bne.n	8004024 <_strtod_l+0x73c>
 8004070:	e65d      	b.n	8003d2e <_strtod_l+0x446>
 8004072:	2e00      	cmp	r6, #0
 8004074:	dd07      	ble.n	8004086 <_strtod_l+0x79e>
 8004076:	4649      	mov	r1, r9
 8004078:	9805      	ldr	r0, [sp, #20]
 800407a:	4632      	mov	r2, r6
 800407c:	f002 fdb6 	bl	8006bec <__lshift>
 8004080:	4681      	mov	r9, r0
 8004082:	2800      	cmp	r0, #0
 8004084:	d0d8      	beq.n	8004038 <_strtod_l+0x750>
 8004086:	2f00      	cmp	r7, #0
 8004088:	dd08      	ble.n	800409c <_strtod_l+0x7b4>
 800408a:	4641      	mov	r1, r8
 800408c:	9805      	ldr	r0, [sp, #20]
 800408e:	463a      	mov	r2, r7
 8004090:	f002 fdac 	bl	8006bec <__lshift>
 8004094:	4680      	mov	r8, r0
 8004096:	2800      	cmp	r0, #0
 8004098:	f43f ae49 	beq.w	8003d2e <_strtod_l+0x446>
 800409c:	991a      	ldr	r1, [sp, #104]	@ 0x68
 800409e:	9805      	ldr	r0, [sp, #20]
 80040a0:	464a      	mov	r2, r9
 80040a2:	f002 fe2b 	bl	8006cfc <__mdiff>
 80040a6:	4604      	mov	r4, r0
 80040a8:	2800      	cmp	r0, #0
 80040aa:	f43f ae40 	beq.w	8003d2e <_strtod_l+0x446>
 80040ae:	68c3      	ldr	r3, [r0, #12]
 80040b0:	930f      	str	r3, [sp, #60]	@ 0x3c
 80040b2:	2300      	movs	r3, #0
 80040b4:	60c3      	str	r3, [r0, #12]
 80040b6:	4641      	mov	r1, r8
 80040b8:	f002 fe04 	bl	8006cc4 <__mcmp>
 80040bc:	2800      	cmp	r0, #0
 80040be:	da45      	bge.n	800414c <_strtod_l+0x864>
 80040c0:	9b0f      	ldr	r3, [sp, #60]	@ 0x3c
 80040c2:	ea53 030a 	orrs.w	r3, r3, sl
 80040c6:	d16b      	bne.n	80041a0 <_strtod_l+0x8b8>
 80040c8:	f3cb 0313 	ubfx	r3, fp, #0, #20
 80040cc:	2b00      	cmp	r3, #0
 80040ce:	d167      	bne.n	80041a0 <_strtod_l+0x8b8>
 80040d0:	f02b 4300 	bic.w	r3, fp, #2147483648	@ 0x80000000
 80040d4:	0d1b      	lsrs	r3, r3, #20
 80040d6:	051b      	lsls	r3, r3, #20
 80040d8:	f1b3 6fd6 	cmp.w	r3, #112197632	@ 0x6b00000
 80040dc:	d960      	bls.n	80041a0 <_strtod_l+0x8b8>
 80040de:	6963      	ldr	r3, [r4, #20]
 80040e0:	b913      	cbnz	r3, 80040e8 <_strtod_l+0x800>
 80040e2:	6923      	ldr	r3, [r4, #16]
 80040e4:	2b01      	cmp	r3, #1
 80040e6:	dd5b      	ble.n	80041a0 <_strtod_l+0x8b8>
 80040e8:	4621      	mov	r1, r4
 80040ea:	2201      	movs	r2, #1
 80040ec:	9805      	ldr	r0, [sp, #20]
 80040ee:	f002 fd7d 	bl	8006bec <__lshift>
 80040f2:	4641      	mov	r1, r8
 80040f4:	4604      	mov	r4, r0
 80040f6:	f002 fde5 	bl	8006cc4 <__mcmp>
 80040fa:	2800      	cmp	r0, #0
 80040fc:	dd50      	ble.n	80041a0 <_strtod_l+0x8b8>
 80040fe:	f02b 4300 	bic.w	r3, fp, #2147483648	@ 0x80000000
 8004102:	9a08      	ldr	r2, [sp, #32]
 8004104:	0d1b      	lsrs	r3, r3, #20
 8004106:	051b      	lsls	r3, r3, #20
 8004108:	2a00      	cmp	r2, #0
 800410a:	d06a      	beq.n	80041e2 <_strtod_l+0x8fa>
 800410c:	f1b3 6fd6 	cmp.w	r3, #112197632	@ 0x6b00000
 8004110:	d867      	bhi.n	80041e2 <_strtod_l+0x8fa>
 8004112:	f1b3 7f5c 	cmp.w	r3, #57671680	@ 0x3700000
 8004116:	f67f ae9d 	bls.w	8003e54 <_strtod_l+0x56c>
 800411a:	4b0a      	ldr	r3, [pc, #40]	@ (8004144 <_strtod_l+0x85c>)
 800411c:	4650      	mov	r0, sl
 800411e:	4659      	mov	r1, fp
 8004120:	2200      	movs	r2, #0
 8004122:	f7fc fa99 	bl	8000658 <__aeabi_dmul>
 8004126:	4b08      	ldr	r3, [pc, #32]	@ (8004148 <_strtod_l+0x860>)
 8004128:	400b      	ands	r3, r1
 800412a:	4682      	mov	sl, r0
 800412c:	468b      	mov	fp, r1
 800412e:	2b00      	cmp	r3, #0
 8004130:	f47f ae08 	bne.w	8003d44 <_strtod_l+0x45c>
 8004134:	9a05      	ldr	r2, [sp, #20]
 8004136:	2322      	movs	r3, #34	@ 0x22
 8004138:	6013      	str	r3, [r2, #0]
 800413a:	e603      	b.n	8003d44 <_strtod_l+0x45c>
 800413c:	08007f38 	.word	0x08007f38
 8004140:	fffffc02 	.word	0xfffffc02
 8004144:	39500000 	.word	0x39500000
 8004148:	7ff00000 	.word	0x7ff00000
 800414c:	f8cd b028 	str.w	fp, [sp, #40]	@ 0x28
 8004150:	d165      	bne.n	800421e <_strtod_l+0x936>
 8004152:	9a0f      	ldr	r2, [sp, #60]	@ 0x3c
 8004154:	f3cb 0313 	ubfx	r3, fp, #0, #20
 8004158:	b35a      	cbz	r2, 80041b2 <_strtod_l+0x8ca>
 800415a:	4a9f      	ldr	r2, [pc, #636]	@ (80043d8 <_strtod_l+0xaf0>)
 800415c:	4293      	cmp	r3, r2
 800415e:	d12b      	bne.n	80041b8 <_strtod_l+0x8d0>
 8004160:	9b08      	ldr	r3, [sp, #32]
 8004162:	4651      	mov	r1, sl
 8004164:	b303      	cbz	r3, 80041a8 <_strtod_l+0x8c0>
 8004166:	4b9d      	ldr	r3, [pc, #628]	@ (80043dc <_strtod_l+0xaf4>)
 8004168:	465a      	mov	r2, fp
 800416a:	4013      	ands	r3, r2
 800416c:	f1b3 6fd4 	cmp.w	r3, #111149056	@ 0x6a00000
 8004170:	f04f 32ff 	mov.w	r2, #4294967295	@ 0xffffffff
 8004174:	d81b      	bhi.n	80041ae <_strtod_l+0x8c6>
 8004176:	0d1b      	lsrs	r3, r3, #20
 8004178:	f1c3 036b 	rsb	r3, r3, #107	@ 0x6b
 800417c:	fa02 f303 	lsl.w	r3, r2, r3
 8004180:	4299      	cmp	r1, r3
 8004182:	d119      	bne.n	80041b8 <_strtod_l+0x8d0>
 8004184:	4b96      	ldr	r3, [pc, #600]	@ (80043e0 <_strtod_l+0xaf8>)
 8004186:	9a0a      	ldr	r2, [sp, #40]	@ 0x28
 8004188:	429a      	cmp	r2, r3
 800418a:	d102      	bne.n	8004192 <_strtod_l+0x8aa>
 800418c:	3101      	adds	r1, #1
 800418e:	f43f adce 	beq.w	8003d2e <_strtod_l+0x446>
 8004192:	4b92      	ldr	r3, [pc, #584]	@ (80043dc <_strtod_l+0xaf4>)
 8004194:	9a0a      	ldr	r2, [sp, #40]	@ 0x28
 8004196:	401a      	ands	r2, r3
 8004198:	f502 1b80 	add.w	fp, r2, #1048576	@ 0x100000
 800419c:	f04f 0a00 	mov.w	sl, #0
 80041a0:	9b08      	ldr	r3, [sp, #32]
 80041a2:	2b00      	cmp	r3, #0
 80041a4:	d1b9      	bne.n	800411a <_strtod_l+0x832>
 80041a6:	e5cd      	b.n	8003d44 <_strtod_l+0x45c>
 80041a8:	f04f 33ff 	mov.w	r3, #4294967295	@ 0xffffffff
 80041ac:	e7e8      	b.n	8004180 <_strtod_l+0x898>
 80041ae:	4613      	mov	r3, r2
 80041b0:	e7e6      	b.n	8004180 <_strtod_l+0x898>
 80041b2:	ea53 030a 	orrs.w	r3, r3, sl
 80041b6:	d0a2      	beq.n	80040fe <_strtod_l+0x816>
 80041b8:	9b10      	ldr	r3, [sp, #64]	@ 0x40
 80041ba:	b1db      	cbz	r3, 80041f4 <_strtod_l+0x90c>
 80041bc:	9a0a      	ldr	r2, [sp, #40]	@ 0x28
 80041be:	4213      	tst	r3, r2
 80041c0:	d0ee      	beq.n	80041a0 <_strtod_l+0x8b8>
 80041c2:	9b0f      	ldr	r3, [sp, #60]	@ 0x3c
 80041c4:	9a08      	ldr	r2, [sp, #32]
 80041c6:	4650      	mov	r0, sl
 80041c8:	4659      	mov	r1, fp
 80041ca:	b1bb      	cbz	r3, 80041fc <_strtod_l+0x914>
 80041cc:	f7ff fb6c 	bl	80038a8 <sulp>
 80041d0:	e9dd 010c 	ldrd	r0, r1, [sp, #48]	@ 0x30
 80041d4:	ec53 2b10 	vmov	r2, r3, d0
 80041d8:	f7fc f888 	bl	80002ec <__adddf3>
 80041dc:	4682      	mov	sl, r0
 80041de:	468b      	mov	fp, r1
 80041e0:	e7de      	b.n	80041a0 <_strtod_l+0x8b8>
 80041e2:	f5a3 1380 	sub.w	r3, r3, #1048576	@ 0x100000
 80041e6:	ea6f 5b13 	mvn.w	fp, r3, lsr #20
 80041ea:	ea6f 5b0b 	mvn.w	fp, fp, lsl #20
 80041ee:	f04f 3aff 	mov.w	sl, #4294967295	@ 0xffffffff
 80041f2:	e7d5      	b.n	80041a0 <_strtod_l+0x8b8>
 80041f4:	9b13      	ldr	r3, [sp, #76]	@ 0x4c
 80041f6:	ea13 0f0a 	tst.w	r3, sl
 80041fa:	e7e1      	b.n	80041c0 <_strtod_l+0x8d8>
 80041fc:	f7ff fb54 	bl	80038a8 <sulp>
 8004200:	e9dd 010c 	ldrd	r0, r1, [sp, #48]	@ 0x30
 8004204:	ec53 2b10 	vmov	r2, r3, d0
 8004208:	f7fc f86e 	bl	80002e8 <__aeabi_dsub>
 800420c:	2200      	movs	r2, #0
 800420e:	2300      	movs	r3, #0
 8004210:	4682      	mov	sl, r0
 8004212:	468b      	mov	fp, r1
 8004214:	f7fc fc88 	bl	8000b28 <__aeabi_dcmpeq>
 8004218:	2800      	cmp	r0, #0
 800421a:	d0c1      	beq.n	80041a0 <_strtod_l+0x8b8>
 800421c:	e61a      	b.n	8003e54 <_strtod_l+0x56c>
 800421e:	4641      	mov	r1, r8
 8004220:	4620      	mov	r0, r4
 8004222:	f002 fec7 	bl	8006fb4 <__ratio>
 8004226:	ec57 6b10 	vmov	r6, r7, d0
 800422a:	2200      	movs	r2, #0
 800422c:	f04f 4380 	mov.w	r3, #1073741824	@ 0x40000000
 8004230:	4630      	mov	r0, r6
 8004232:	4639      	mov	r1, r7
 8004234:	f7fc fc8c 	bl	8000b50 <__aeabi_dcmple>
 8004238:	2800      	cmp	r0, #0
 800423a:	d06f      	beq.n	800431c <_strtod_l+0xa34>
 800423c:	9b0f      	ldr	r3, [sp, #60]	@ 0x3c
 800423e:	2b00      	cmp	r3, #0
 8004240:	d17a      	bne.n	8004338 <_strtod_l+0xa50>
 8004242:	f1ba 0f00 	cmp.w	sl, #0
 8004246:	d158      	bne.n	80042fa <_strtod_l+0xa12>
 8004248:	9b0a      	ldr	r3, [sp, #40]	@ 0x28
 800424a:	f3c3 0313 	ubfx	r3, r3, #0, #20
 800424e:	2b00      	cmp	r3, #0
 8004250:	d15a      	bne.n	8004308 <_strtod_l+0xa20>
 8004252:	4b64      	ldr	r3, [pc, #400]	@ (80043e4 <_strtod_l+0xafc>)
 8004254:	2200      	movs	r2, #0
 8004256:	4630      	mov	r0, r6
 8004258:	4639      	mov	r1, r7
 800425a:	f7fc fc6f 	bl	8000b3c <__aeabi_dcmplt>
 800425e:	2800      	cmp	r0, #0
 8004260:	d159      	bne.n	8004316 <_strtod_l+0xa2e>
 8004262:	4630      	mov	r0, r6
 8004264:	4639      	mov	r1, r7
 8004266:	4b60      	ldr	r3, [pc, #384]	@ (80043e8 <_strtod_l+0xb00>)
 8004268:	2200      	movs	r2, #0
 800426a:	f7fc f9f5 	bl	8000658 <__aeabi_dmul>
 800426e:	4606      	mov	r6, r0
 8004270:	460f      	mov	r7, r1
 8004272:	f107 4300 	add.w	r3, r7, #2147483648	@ 0x80000000
 8004276:	9606      	str	r6, [sp, #24]
 8004278:	9307      	str	r3, [sp, #28]
 800427a:	e9dd 2306 	ldrd	r2, r3, [sp, #24]
 800427e:	4d57      	ldr	r5, [pc, #348]	@ (80043dc <_strtod_l+0xaf4>)
 8004280:	e9cd 2310 	strd	r2, r3, [sp, #64]	@ 0x40
 8004284:	9b0a      	ldr	r3, [sp, #40]	@ 0x28
 8004286:	401d      	ands	r5, r3
 8004288:	4b58      	ldr	r3, [pc, #352]	@ (80043ec <_strtod_l+0xb04>)
 800428a:	429d      	cmp	r5, r3
 800428c:	f040 80b2 	bne.w	80043f4 <_strtod_l+0xb0c>
 8004290:	9b0a      	ldr	r3, [sp, #40]	@ 0x28
 8004292:	f1a3 7b54 	sub.w	fp, r3, #55574528	@ 0x3500000
 8004296:	ec4b ab10 	vmov	d0, sl, fp
 800429a:	f002 fdc3 	bl	8006e24 <__ulp>
 800429e:	e9dd 2306 	ldrd	r2, r3, [sp, #24]
 80042a2:	ec51 0b10 	vmov	r0, r1, d0
 80042a6:	f7fc f9d7 	bl	8000658 <__aeabi_dmul>
 80042aa:	4652      	mov	r2, sl
 80042ac:	465b      	mov	r3, fp
 80042ae:	f7fc f81d 	bl	80002ec <__adddf3>
 80042b2:	460b      	mov	r3, r1
 80042b4:	4949      	ldr	r1, [pc, #292]	@ (80043dc <_strtod_l+0xaf4>)
 80042b6:	4a4e      	ldr	r2, [pc, #312]	@ (80043f0 <_strtod_l+0xb08>)
 80042b8:	4019      	ands	r1, r3
 80042ba:	4291      	cmp	r1, r2
 80042bc:	4682      	mov	sl, r0
 80042be:	d942      	bls.n	8004346 <_strtod_l+0xa5e>
 80042c0:	9a0d      	ldr	r2, [sp, #52]	@ 0x34
 80042c2:	4b47      	ldr	r3, [pc, #284]	@ (80043e0 <_strtod_l+0xaf8>)
 80042c4:	429a      	cmp	r2, r3
 80042c6:	d103      	bne.n	80042d0 <_strtod_l+0x9e8>
 80042c8:	9b0c      	ldr	r3, [sp, #48]	@ 0x30
 80042ca:	3301      	adds	r3, #1
 80042cc:	f43f ad2f 	beq.w	8003d2e <_strtod_l+0x446>
 80042d0:	f8df b10c 	ldr.w	fp, [pc, #268]	@ 80043e0 <_strtod_l+0xaf8>
 80042d4:	f04f 3aff 	mov.w	sl, #4294967295	@ 0xffffffff
 80042d8:	991a      	ldr	r1, [sp, #104]	@ 0x68
 80042da:	9805      	ldr	r0, [sp, #20]
 80042dc:	f002 fa76 	bl	80067cc <_Bfree>
 80042e0:	9805      	ldr	r0, [sp, #20]
 80042e2:	4649      	mov	r1, r9
 80042e4:	f002 fa72 	bl	80067cc <_Bfree>
 80042e8:	9805      	ldr	r0, [sp, #20]
 80042ea:	4641      	mov	r1, r8
 80042ec:	f002 fa6e 	bl	80067cc <_Bfree>
 80042f0:	9805      	ldr	r0, [sp, #20]
 80042f2:	4621      	mov	r1, r4
 80042f4:	f002 fa6a 	bl	80067cc <_Bfree>
 80042f8:	e619      	b.n	8003f2e <_strtod_l+0x646>
 80042fa:	f1ba 0f01 	cmp.w	sl, #1
 80042fe:	d103      	bne.n	8004308 <_strtod_l+0xa20>
 8004300:	9b0a      	ldr	r3, [sp, #40]	@ 0x28
 8004302:	2b00      	cmp	r3, #0
 8004304:	f43f ada6 	beq.w	8003e54 <_strtod_l+0x56c>
 8004308:	ed9f 7b2b 	vldr	d7, [pc, #172]	@ 80043b8 <_strtod_l+0xad0>
 800430c:	4f35      	ldr	r7, [pc, #212]	@ (80043e4 <_strtod_l+0xafc>)
 800430e:	ed8d 7b06 	vstr	d7, [sp, #24]
 8004312:	2600      	movs	r6, #0
 8004314:	e7b1      	b.n	800427a <_strtod_l+0x992>
 8004316:	4f34      	ldr	r7, [pc, #208]	@ (80043e8 <_strtod_l+0xb00>)
 8004318:	2600      	movs	r6, #0
 800431a:	e7aa      	b.n	8004272 <_strtod_l+0x98a>
 800431c:	4b32      	ldr	r3, [pc, #200]	@ (80043e8 <_strtod_l+0xb00>)
 800431e:	4630      	mov	r0, r6
 8004320:	4639      	mov	r1, r7
 8004322:	2200      	movs	r2, #0
 8004324:	f7fc f998 	bl	8000658 <__aeabi_dmul>
 8004328:	9b0f      	ldr	r3, [sp, #60]	@ 0x3c
 800432a:	4606      	mov	r6, r0
 800432c:	460f      	mov	r7, r1
 800432e:	2b00      	cmp	r3, #0
 8004330:	d09f      	beq.n	8004272 <_strtod_l+0x98a>
 8004332:	e9cd 6706 	strd	r6, r7, [sp, #24]
 8004336:	e7a0      	b.n	800427a <_strtod_l+0x992>
 8004338:	ed9f 7b21 	vldr	d7, [pc, #132]	@ 80043c0 <_strtod_l+0xad8>
 800433c:	ed8d 7b06 	vstr	d7, [sp, #24]
 8004340:	ec57 6b17 	vmov	r6, r7, d7
 8004344:	e799      	b.n	800427a <_strtod_l+0x992>
 8004346:	f103 7b54 	add.w	fp, r3, #55574528	@ 0x3500000
 800434a:	9b08      	ldr	r3, [sp, #32]
 800434c:	f8cd b028 	str.w	fp, [sp, #40]	@ 0x28
 8004350:	2b00      	cmp	r3, #0
 8004352:	d1c1      	bne.n	80042d8 <_strtod_l+0x9f0>
 8004354:	f02b 4300 	bic.w	r3, fp, #2147483648	@ 0x80000000
 8004358:	0d1b      	lsrs	r3, r3, #20
 800435a:	051b      	lsls	r3, r3, #20
 800435c:	429d      	cmp	r5, r3
 800435e:	d1bb      	bne.n	80042d8 <_strtod_l+0x9f0>
 8004360:	4630      	mov	r0, r6
 8004362:	4639      	mov	r1, r7
 8004364:	f7fc fcc0 	bl	8000ce8 <__aeabi_d2lz>
 8004368:	f7fc f948 	bl	80005fc <__aeabi_l2d>
 800436c:	4602      	mov	r2, r0
 800436e:	460b      	mov	r3, r1
 8004370:	4630      	mov	r0, r6
 8004372:	4639      	mov	r1, r7
 8004374:	f7fb ffb8 	bl	80002e8 <__aeabi_dsub>
 8004378:	460b      	mov	r3, r1
 800437a:	4602      	mov	r2, r0
 800437c:	e9cd 230c 	strd	r2, r3, [sp, #48]	@ 0x30
 8004380:	f3cb 0613 	ubfx	r6, fp, #0, #20
 8004384:	9b0f      	ldr	r3, [sp, #60]	@ 0x3c
 8004386:	ea46 060a 	orr.w	r6, r6, sl
 800438a:	431e      	orrs	r6, r3
 800438c:	d06f      	beq.n	800446e <_strtod_l+0xb86>
 800438e:	a30e      	add	r3, pc, #56	@ (adr r3, 80043c8 <_strtod_l+0xae0>)
 8004390:	e9d3 2300 	ldrd	r2, r3, [r3]
 8004394:	f7fc fbd2 	bl	8000b3c <__aeabi_dcmplt>
 8004398:	2800      	cmp	r0, #0
 800439a:	f47f acd3 	bne.w	8003d44 <_strtod_l+0x45c>
 800439e:	a30c      	add	r3, pc, #48	@ (adr r3, 80043d0 <_strtod_l+0xae8>)
 80043a0:	e9d3 2300 	ldrd	r2, r3, [r3]
 80043a4:	e9dd 010c 	ldrd	r0, r1, [sp, #48]	@ 0x30
 80043a8:	f7fc fbe6 	bl	8000b78 <__aeabi_dcmpgt>
 80043ac:	2800      	cmp	r0, #0
 80043ae:	d093      	beq.n	80042d8 <_strtod_l+0x9f0>
 80043b0:	e4c8      	b.n	8003d44 <_strtod_l+0x45c>
 80043b2:	bf00      	nop
 80043b4:	f3af 8000 	nop.w
 80043b8:	00000000 	.word	0x00000000
 80043bc:	bff00000 	.word	0xbff00000
 80043c0:	00000000 	.word	0x00000000
 80043c4:	3ff00000 	.word	0x3ff00000
 80043c8:	94a03595 	.word	0x94a03595
 80043cc:	3fdfffff 	.word	0x3fdfffff
 80043d0:	35afe535 	.word	0x35afe535
 80043d4:	3fe00000 	.word	0x3fe00000
 80043d8:	000fffff 	.word	0x000fffff
 80043dc:	7ff00000 	.word	0x7ff00000
 80043e0:	7fefffff 	.word	0x7fefffff
 80043e4:	3ff00000 	.word	0x3ff00000
 80043e8:	3fe00000 	.word	0x3fe00000
 80043ec:	7fe00000 	.word	0x7fe00000
 80043f0:	7c9fffff 	.word	0x7c9fffff
 80043f4:	9b08      	ldr	r3, [sp, #32]
 80043f6:	b323      	cbz	r3, 8004442 <_strtod_l+0xb5a>
 80043f8:	f1b5 6fd4 	cmp.w	r5, #111149056	@ 0x6a00000
 80043fc:	d821      	bhi.n	8004442 <_strtod_l+0xb5a>
 80043fe:	a328      	add	r3, pc, #160	@ (adr r3, 80044a0 <_strtod_l+0xbb8>)
 8004400:	e9d3 2300 	ldrd	r2, r3, [r3]
 8004404:	4630      	mov	r0, r6
 8004406:	4639      	mov	r1, r7
 8004408:	f7fc fba2 	bl	8000b50 <__aeabi_dcmple>
 800440c:	b1a0      	cbz	r0, 8004438 <_strtod_l+0xb50>
 800440e:	4639      	mov	r1, r7
 8004410:	4630      	mov	r0, r6
 8004412:	f7fc fbf9 	bl	8000c08 <__aeabi_d2uiz>
 8004416:	2801      	cmp	r0, #1
 8004418:	bf38      	it	cc
 800441a:	2001      	movcc	r0, #1
 800441c:	f7fc f8a2 	bl	8000564 <__aeabi_ui2d>
 8004420:	9b0f      	ldr	r3, [sp, #60]	@ 0x3c
 8004422:	4606      	mov	r6, r0
 8004424:	460f      	mov	r7, r1
 8004426:	b9fb      	cbnz	r3, 8004468 <_strtod_l+0xb80>
 8004428:	f101 4300 	add.w	r3, r1, #2147483648	@ 0x80000000
 800442c:	9014      	str	r0, [sp, #80]	@ 0x50
 800442e:	9315      	str	r3, [sp, #84]	@ 0x54
 8004430:	e9dd 2314 	ldrd	r2, r3, [sp, #80]	@ 0x50
 8004434:	e9cd 2310 	strd	r2, r3, [sp, #64]	@ 0x40
 8004438:	9b11      	ldr	r3, [sp, #68]	@ 0x44
 800443a:	f103 63d6 	add.w	r3, r3, #112197632	@ 0x6b00000
 800443e:	1b5b      	subs	r3, r3, r5
 8004440:	9311      	str	r3, [sp, #68]	@ 0x44
 8004442:	ed9d 0b0c 	vldr	d0, [sp, #48]	@ 0x30
 8004446:	e9dd ab10 	ldrd	sl, fp, [sp, #64]	@ 0x40
 800444a:	f002 fceb 	bl	8006e24 <__ulp>
 800444e:	4650      	mov	r0, sl
 8004450:	ec53 2b10 	vmov	r2, r3, d0
 8004454:	4659      	mov	r1, fp
 8004456:	f7fc f8ff 	bl	8000658 <__aeabi_dmul>
 800445a:	e9dd 230c 	ldrd	r2, r3, [sp, #48]	@ 0x30
 800445e:	f7fb ff45 	bl	80002ec <__adddf3>
 8004462:	4682      	mov	sl, r0
 8004464:	468b      	mov	fp, r1
 8004466:	e770      	b.n	800434a <_strtod_l+0xa62>
 8004468:	e9cd 6714 	strd	r6, r7, [sp, #80]	@ 0x50
 800446c:	e7e0      	b.n	8004430 <_strtod_l+0xb48>
 800446e:	a30e      	add	r3, pc, #56	@ (adr r3, 80044a8 <_strtod_l+0xbc0>)
 8004470:	e9d3 2300 	ldrd	r2, r3, [r3]
 8004474:	f7fc fb62 	bl	8000b3c <__aeabi_dcmplt>
 8004478:	e798      	b.n	80043ac <_strtod_l+0xac4>
 800447a:	2300      	movs	r3, #0
 800447c:	930e      	str	r3, [sp, #56]	@ 0x38
 800447e:	9a17      	ldr	r2, [sp, #92]	@ 0x5c
 8004480:	9b19      	ldr	r3, [sp, #100]	@ 0x64
 8004482:	6013      	str	r3, [r2, #0]
 8004484:	f7ff ba6d 	b.w	8003962 <_strtod_l+0x7a>
 8004488:	2a65      	cmp	r2, #101	@ 0x65
 800448a:	f43f ab68 	beq.w	8003b5e <_strtod_l+0x276>
 800448e:	2a45      	cmp	r2, #69	@ 0x45
 8004490:	f43f ab65 	beq.w	8003b5e <_strtod_l+0x276>
 8004494:	2301      	movs	r3, #1
 8004496:	f7ff bba0 	b.w	8003bda <_strtod_l+0x2f2>
 800449a:	bf00      	nop
 800449c:	f3af 8000 	nop.w
 80044a0:	ffc00000 	.word	0xffc00000
 80044a4:	41dfffff 	.word	0x41dfffff
 80044a8:	94a03595 	.word	0x94a03595
 80044ac:	3fcfffff 	.word	0x3fcfffff

080044b0 <_strtod_r>:
 80044b0:	4b01      	ldr	r3, [pc, #4]	@ (80044b8 <_strtod_r+0x8>)
 80044b2:	f7ff ba19 	b.w	80038e8 <_strtod_l>
 80044b6:	bf00      	nop
 80044b8:	20000028 	.word	0x20000028

080044bc <_strtol_l.isra.0>:
 80044bc:	2b24      	cmp	r3, #36	@ 0x24
 80044be:	e92d 47f0 	stmdb	sp!, {r4, r5, r6, r7, r8, r9, sl, lr}
 80044c2:	4686      	mov	lr, r0
 80044c4:	4690      	mov	r8, r2
 80044c6:	d801      	bhi.n	80044cc <_strtol_l.isra.0+0x10>
 80044c8:	2b01      	cmp	r3, #1
 80044ca:	d106      	bne.n	80044da <_strtol_l.isra.0+0x1e>
 80044cc:	f000 f8e0 	bl	8004690 <__errno>
 80044d0:	2316      	movs	r3, #22
 80044d2:	6003      	str	r3, [r0, #0]
 80044d4:	2000      	movs	r0, #0
 80044d6:	e8bd 87f0 	ldmia.w	sp!, {r4, r5, r6, r7, r8, r9, sl, pc}
 80044da:	4834      	ldr	r0, [pc, #208]	@ (80045ac <_strtol_l.isra.0+0xf0>)
 80044dc:	460d      	mov	r5, r1
 80044de:	462a      	mov	r2, r5
 80044e0:	f815 4b01 	ldrb.w	r4, [r5], #1
 80044e4:	5d06      	ldrb	r6, [r0, r4]
 80044e6:	f016 0608 	ands.w	r6, r6, #8
 80044ea:	d1f8      	bne.n	80044de <_strtol_l.isra.0+0x22>
 80044ec:	2c2d      	cmp	r4, #45	@ 0x2d
 80044ee:	d110      	bne.n	8004512 <_strtol_l.isra.0+0x56>
 80044f0:	782c      	ldrb	r4, [r5, #0]
 80044f2:	2601      	movs	r6, #1
 80044f4:	1c95      	adds	r5, r2, #2
 80044f6:	f033 0210 	bics.w	r2, r3, #16
 80044fa:	d115      	bne.n	8004528 <_strtol_l.isra.0+0x6c>
 80044fc:	2c30      	cmp	r4, #48	@ 0x30
 80044fe:	d10d      	bne.n	800451c <_strtol_l.isra.0+0x60>
 8004500:	782a      	ldrb	r2, [r5, #0]
 8004502:	f002 02df 	and.w	r2, r2, #223	@ 0xdf
 8004506:	2a58      	cmp	r2, #88	@ 0x58
 8004508:	d108      	bne.n	800451c <_strtol_l.isra.0+0x60>
 800450a:	786c      	ldrb	r4, [r5, #1]
 800450c:	3502      	adds	r5, #2
 800450e:	2310      	movs	r3, #16
 8004510:	e00a      	b.n	8004528 <_strtol_l.isra.0+0x6c>
 8004512:	2c2b      	cmp	r4, #43	@ 0x2b
 8004514:	bf04      	itt	eq
 8004516:	782c      	ldrbeq	r4, [r5, #0]
 8004518:	1c95      	addeq	r5, r2, #2
 800451a:	e7ec      	b.n	80044f6 <_strtol_l.isra.0+0x3a>
 800451c:	2b00      	cmp	r3, #0
 800451e:	d1f6      	bne.n	800450e <_strtol_l.isra.0+0x52>
 8004520:	2c30      	cmp	r4, #48	@ 0x30
 8004522:	bf14      	ite	ne
 8004524:	230a      	movne	r3, #10
 8004526:	2308      	moveq	r3, #8
 8004528:	f106 4c00 	add.w	ip, r6, #2147483648	@ 0x80000000
 800452c:	f10c 3cff 	add.w	ip, ip, #4294967295	@ 0xffffffff
 8004530:	2200      	movs	r2, #0
 8004532:	fbbc f9f3 	udiv	r9, ip, r3
 8004536:	4610      	mov	r0, r2
 8004538:	fb03 ca19 	mls	sl, r3, r9, ip
 800453c:	f1a4 0730 	sub.w	r7, r4, #48	@ 0x30
 8004540:	2f09      	cmp	r7, #9
 8004542:	d80f      	bhi.n	8004564 <_strtol_l.isra.0+0xa8>
 8004544:	463c      	mov	r4, r7
 8004546:	42a3      	cmp	r3, r4
 8004548:	dd1b      	ble.n	8004582 <_strtol_l.isra.0+0xc6>
 800454a:	1c57      	adds	r7, r2, #1
 800454c:	d007      	beq.n	800455e <_strtol_l.isra.0+0xa2>
 800454e:	4581      	cmp	r9, r0
 8004550:	d314      	bcc.n	800457c <_strtol_l.isra.0+0xc0>
 8004552:	d101      	bne.n	8004558 <_strtol_l.isra.0+0x9c>
 8004554:	45a2      	cmp	sl, r4
 8004556:	db11      	blt.n	800457c <_strtol_l.isra.0+0xc0>
 8004558:	fb00 4003 	mla	r0, r0, r3, r4
 800455c:	2201      	movs	r2, #1
 800455e:	f815 4b01 	ldrb.w	r4, [r5], #1
 8004562:	e7eb      	b.n	800453c <_strtol_l.isra.0+0x80>
 8004564:	f1a4 0741 	sub.w	r7, r4, #65	@ 0x41
 8004568:	2f19      	cmp	r7, #25
 800456a:	d801      	bhi.n	8004570 <_strtol_l.isra.0+0xb4>
 800456c:	3c37      	subs	r4, #55	@ 0x37
 800456e:	e7ea      	b.n	8004546 <_strtol_l.isra.0+0x8a>
 8004570:	f1a4 0761 	sub.w	r7, r4, #97	@ 0x61
 8004574:	2f19      	cmp	r7, #25
 8004576:	d804      	bhi.n	8004582 <_strtol_l.isra.0+0xc6>
 8004578:	3c57      	subs	r4, #87	@ 0x57
 800457a:	e7e4      	b.n	8004546 <_strtol_l.isra.0+0x8a>
 800457c:	f04f 32ff 	mov.w	r2, #4294967295	@ 0xffffffff
 8004580:	e7ed      	b.n	800455e <_strtol_l.isra.0+0xa2>
 8004582:	1c53      	adds	r3, r2, #1
 8004584:	d108      	bne.n	8004598 <_strtol_l.isra.0+0xdc>
 8004586:	2322      	movs	r3, #34	@ 0x22
 8004588:	f8ce 3000 	str.w	r3, [lr]
 800458c:	4660      	mov	r0, ip
 800458e:	f1b8 0f00 	cmp.w	r8, #0
 8004592:	d0a0      	beq.n	80044d6 <_strtol_l.isra.0+0x1a>
 8004594:	1e69      	subs	r1, r5, #1
 8004596:	e006      	b.n	80045a6 <_strtol_l.isra.0+0xea>
 8004598:	b106      	cbz	r6, 800459c <_strtol_l.isra.0+0xe0>
 800459a:	4240      	negs	r0, r0
 800459c:	f1b8 0f00 	cmp.w	r8, #0
 80045a0:	d099      	beq.n	80044d6 <_strtol_l.isra.0+0x1a>
 80045a2:	2a00      	cmp	r2, #0
 80045a4:	d1f6      	bne.n	8004594 <_strtol_l.isra.0+0xd8>
 80045a6:	f8c8 1000 	str.w	r1, [r8]
 80045aa:	e794      	b.n	80044d6 <_strtol_l.isra.0+0x1a>
 80045ac:	08007f61 	.word	0x08007f61

080045b0 <_strtol_r>:
 80045b0:	f7ff bf84 	b.w	80044bc <_strtol_l.isra.0>

080045b4 <_fwalk_sglue>:
 80045b4:	e92d 43f8 	stmdb	sp!, {r3, r4, r5, r6, r7, r8, r9, lr}
 80045b8:	4607      	mov	r7, r0
 80045ba:	4688      	mov	r8, r1
 80045bc:	4614      	mov	r4, r2
 80045be:	2600      	movs	r6, #0
 80045c0:	e9d4 9501 	ldrd	r9, r5, [r4, #4]
 80045c4:	f1b9 0901 	subs.w	r9, r9, #1
 80045c8:	d505      	bpl.n	80045d6 <_fwalk_sglue+0x22>
 80045ca:	6824      	ldr	r4, [r4, #0]
 80045cc:	2c00      	cmp	r4, #0
 80045ce:	d1f7      	bne.n	80045c0 <_fwalk_sglue+0xc>
 80045d0:	4630      	mov	r0, r6
 80045d2:	e8bd 83f8 	ldmia.w	sp!, {r3, r4, r5, r6, r7, r8, r9, pc}
 80045d6:	89ab      	ldrh	r3, [r5, #12]
 80045d8:	2b01      	cmp	r3, #1
 80045da:	d907      	bls.n	80045ec <_fwalk_sglue+0x38>
 80045dc:	f9b5 300e 	ldrsh.w	r3, [r5, #14]
 80045e0:	3301      	adds	r3, #1
 80045e2:	d003      	beq.n	80045ec <_fwalk_sglue+0x38>
 80045e4:	4629      	mov	r1, r5
 80045e6:	4638      	mov	r0, r7
 80045e8:	47c0      	blx	r8
 80045ea:	4306      	orrs	r6, r0
 80045ec:	3568      	adds	r5, #104	@ 0x68
 80045ee:	e7e9      	b.n	80045c4 <_fwalk_sglue+0x10>

080045f0 <memset>:
 80045f0:	4402      	add	r2, r0
 80045f2:	4603      	mov	r3, r0
 80045f4:	4293      	cmp	r3, r2
 80045f6:	d100      	bne.n	80045fa <memset+0xa>
 80045f8:	4770      	bx	lr
 80045fa:	f803 1b01 	strb.w	r1, [r3], #1
 80045fe:	e7f9      	b.n	80045f4 <memset+0x4>

08004600 <strncmp>:
 8004600:	b510      	push	{r4, lr}
 8004602:	b16a      	cbz	r2, 8004620 <strncmp+0x20>
 8004604:	3901      	subs	r1, #1
 8004606:	1884      	adds	r4, r0, r2
 8004608:	f810 2b01 	ldrb.w	r2, [r0], #1
 800460c:	f811 3f01 	ldrb.w	r3, [r1, #1]!
 8004610:	429a      	cmp	r2, r3
 8004612:	d103      	bne.n	800461c <strncmp+0x1c>
 8004614:	42a0      	cmp	r0, r4
 8004616:	d001      	beq.n	800461c <strncmp+0x1c>
 8004618:	2a00      	cmp	r2, #0
 800461a:	d1f5      	bne.n	8004608 <strncmp+0x8>
 800461c:	1ad0      	subs	r0, r2, r3
 800461e:	bd10      	pop	{r4, pc}
 8004620:	4610      	mov	r0, r2
 8004622:	e7fc      	b.n	800461e <strncmp+0x1e>

08004624 <_lseek_r>:
 8004624:	b538      	push	{r3, r4, r5, lr}
 8004626:	4d07      	ldr	r5, [pc, #28]	@ (8004644 <_lseek_r+0x20>)
 8004628:	4604      	mov	r4, r0
 800462a:	4608      	mov	r0, r1
 800462c:	4611      	mov	r1, r2
 800462e:	2200      	movs	r2, #0
 8004630:	602a      	str	r2, [r5, #0]
 8004632:	461a      	mov	r2, r3
 8004634:	f7fd ff4e 	bl	80024d4 <_lseek>
 8004638:	1c43      	adds	r3, r0, #1
 800463a:	d102      	bne.n	8004642 <_lseek_r+0x1e>
 800463c:	682b      	ldr	r3, [r5, #0]
 800463e:	b103      	cbz	r3, 8004642 <_lseek_r+0x1e>
 8004640:	6023      	str	r3, [r4, #0]
 8004642:	bd38      	pop	{r3, r4, r5, pc}
 8004644:	2000047c 	.word	0x2000047c

08004648 <_read_r>:
 8004648:	b538      	push	{r3, r4, r5, lr}
 800464a:	4d07      	ldr	r5, [pc, #28]	@ (8004668 <_read_r+0x20>)
 800464c:	4604      	mov	r4, r0
 800464e:	4608      	mov	r0, r1
 8004650:	4611      	mov	r1, r2
 8004652:	2200      	movs	r2, #0
 8004654:	602a      	str	r2, [r5, #0]
 8004656:	461a      	mov	r2, r3
 8004658:	f7fd fedc 	bl	8002414 <_read>
 800465c:	1c43      	adds	r3, r0, #1
 800465e:	d102      	bne.n	8004666 <_read_r+0x1e>
 8004660:	682b      	ldr	r3, [r5, #0]
 8004662:	b103      	cbz	r3, 8004666 <_read_r+0x1e>
 8004664:	6023      	str	r3, [r4, #0]
 8004666:	bd38      	pop	{r3, r4, r5, pc}
 8004668:	2000047c 	.word	0x2000047c

0800466c <_write_r>:
 800466c:	b538      	push	{r3, r4, r5, lr}
 800466e:	4d07      	ldr	r5, [pc, #28]	@ (800468c <_write_r+0x20>)
 8004670:	4604      	mov	r4, r0
 8004672:	4608      	mov	r0, r1
 8004674:	4611      	mov	r1, r2
 8004676:	2200      	movs	r2, #0
 8004678:	602a      	str	r2, [r5, #0]
 800467a:	461a      	mov	r2, r3
 800467c:	f7fd fee7 	bl	800244e <_write>
 8004680:	1c43      	adds	r3, r0, #1
 8004682:	d102      	bne.n	800468a <_write_r+0x1e>
 8004684:	682b      	ldr	r3, [r5, #0]
 8004686:	b103      	cbz	r3, 800468a <_write_r+0x1e>
 8004688:	6023      	str	r3, [r4, #0]
 800468a:	bd38      	pop	{r3, r4, r5, pc}
 800468c:	2000047c 	.word	0x2000047c

08004690 <__errno>:
 8004690:	4b01      	ldr	r3, [pc, #4]	@ (8004698 <__errno+0x8>)
 8004692:	6818      	ldr	r0, [r3, #0]
 8004694:	4770      	bx	lr
 8004696:	bf00      	nop
 8004698:	20000194 	.word	0x20000194

0800469c <__libc_init_array>:
 800469c:	b570      	push	{r4, r5, r6, lr}
 800469e:	4d0d      	ldr	r5, [pc, #52]	@ (80046d4 <__libc_init_array+0x38>)
 80046a0:	4c0d      	ldr	r4, [pc, #52]	@ (80046d8 <__libc_init_array+0x3c>)
 80046a2:	1b64      	subs	r4, r4, r5
 80046a4:	10a4      	asrs	r4, r4, #2
 80046a6:	2600      	movs	r6, #0
 80046a8:	42a6      	cmp	r6, r4
 80046aa:	d109      	bne.n	80046c0 <__libc_init_array+0x24>
 80046ac:	4d0b      	ldr	r5, [pc, #44]	@ (80046dc <__libc_init_array+0x40>)
 80046ae:	4c0c      	ldr	r4, [pc, #48]	@ (80046e0 <__libc_init_array+0x44>)
 80046b0:	f003 fa16 	bl	8007ae0 <_init>
 80046b4:	1b64      	subs	r4, r4, r5
 80046b6:	10a4      	asrs	r4, r4, #2
 80046b8:	2600      	movs	r6, #0
 80046ba:	42a6      	cmp	r6, r4
 80046bc:	d105      	bne.n	80046ca <__libc_init_array+0x2e>
 80046be:	bd70      	pop	{r4, r5, r6, pc}
 80046c0:	f855 3b04 	ldr.w	r3, [r5], #4
 80046c4:	4798      	blx	r3
 80046c6:	3601      	adds	r6, #1
 80046c8:	e7ee      	b.n	80046a8 <__libc_init_array+0xc>
 80046ca:	f855 3b04 	ldr.w	r3, [r5], #4
 80046ce:	4798      	blx	r3
 80046d0:	3601      	adds	r6, #1
 80046d2:	e7f2      	b.n	80046ba <__libc_init_array+0x1e>
 80046d4:	08008168 	.word	0x08008168
 80046d8:	08008168 	.word	0x08008168
 80046dc:	08008168 	.word	0x08008168
 80046e0:	0800816c 	.word	0x0800816c

080046e4 <__retarget_lock_init_recursive>:
 80046e4:	4770      	bx	lr

080046e6 <__retarget_lock_acquire_recursive>:
 80046e6:	4770      	bx	lr

080046e8 <__retarget_lock_release_recursive>:
 80046e8:	4770      	bx	lr
	...

080046ec <_localeconv_r>:
 80046ec:	4800      	ldr	r0, [pc, #0]	@ (80046f0 <_localeconv_r+0x4>)
 80046ee:	4770      	bx	lr
 80046f0:	20000118 	.word	0x20000118

080046f4 <_close_r>:
 80046f4:	b538      	push	{r3, r4, r5, lr}
 80046f6:	4d06      	ldr	r5, [pc, #24]	@ (8004710 <_close_r+0x1c>)
 80046f8:	2300      	movs	r3, #0
 80046fa:	4604      	mov	r4, r0
 80046fc:	4608      	mov	r0, r1
 80046fe:	602b      	str	r3, [r5, #0]
 8004700:	f7fd fec1 	bl	8002486 <_close>
 8004704:	1c43      	adds	r3, r0, #1
 8004706:	d102      	bne.n	800470e <_close_r+0x1a>
 8004708:	682b      	ldr	r3, [r5, #0]
 800470a:	b103      	cbz	r3, 800470e <_close_r+0x1a>
 800470c:	6023      	str	r3, [r4, #0]
 800470e:	bd38      	pop	{r3, r4, r5, pc}
 8004710:	2000047c 	.word	0x2000047c

08004714 <memcpy>:
 8004714:	440a      	add	r2, r1
 8004716:	4291      	cmp	r1, r2
 8004718:	f100 33ff 	add.w	r3, r0, #4294967295	@ 0xffffffff
 800471c:	d100      	bne.n	8004720 <memcpy+0xc>
 800471e:	4770      	bx	lr
 8004720:	b510      	push	{r4, lr}
 8004722:	f811 4b01 	ldrb.w	r4, [r1], #1
 8004726:	f803 4f01 	strb.w	r4, [r3, #1]!
 800472a:	4291      	cmp	r1, r2
 800472c:	d1f9      	bne.n	8004722 <memcpy+0xe>
 800472e:	bd10      	pop	{r4, pc}

08004730 <nan>:
 8004730:	ed9f 0b01 	vldr	d0, [pc, #4]	@ 8004738 <nan+0x8>
 8004734:	4770      	bx	lr
 8004736:	bf00      	nop
 8004738:	00000000 	.word	0x00000000
 800473c:	7ff80000 	.word	0x7ff80000

08004740 <nanf>:
 8004740:	ed9f 0a01 	vldr	s0, [pc, #4]	@ 8004748 <nanf+0x8>
 8004744:	4770      	bx	lr
 8004746:	bf00      	nop
 8004748:	7fc00000 	.word	0x7fc00000

0800474c <quorem>:
 800474c:	e92d 4ff7 	stmdb	sp!, {r0, r1, r2, r4, r5, r6, r7, r8, r9, sl, fp, lr}
 8004750:	6903      	ldr	r3, [r0, #16]
 8004752:	690c      	ldr	r4, [r1, #16]
 8004754:	42a3      	cmp	r3, r4
 8004756:	4607      	mov	r7, r0
 8004758:	db7e      	blt.n	8004858 <quorem+0x10c>
 800475a:	3c01      	subs	r4, #1
 800475c:	f101 0814 	add.w	r8, r1, #20
 8004760:	00a3      	lsls	r3, r4, #2
 8004762:	f100 0514 	add.w	r5, r0, #20
 8004766:	9300      	str	r3, [sp, #0]
 8004768:	eb05 0384 	add.w	r3, r5, r4, lsl #2
 800476c:	9301      	str	r3, [sp, #4]
 800476e:	f858 3024 	ldr.w	r3, [r8, r4, lsl #2]
 8004772:	f855 2024 	ldr.w	r2, [r5, r4, lsl #2]
 8004776:	3301      	adds	r3, #1
 8004778:	429a      	cmp	r2, r3
 800477a:	eb08 0984 	add.w	r9, r8, r4, lsl #2
 800477e:	fbb2 f6f3 	udiv	r6, r2, r3
 8004782:	d32e      	bcc.n	80047e2 <quorem+0x96>
 8004784:	f04f 0a00 	mov.w	sl, #0
 8004788:	46c4      	mov	ip, r8
 800478a:	46ae      	mov	lr, r5
 800478c:	46d3      	mov	fp, sl
 800478e:	f85c 3b04 	ldr.w	r3, [ip], #4
 8004792:	b298      	uxth	r0, r3
 8004794:	fb06 a000 	mla	r0, r6, r0, sl
 8004798:	0c02      	lsrs	r2, r0, #16
 800479a:	0c1b      	lsrs	r3, r3, #16
 800479c:	fb06 2303 	mla	r3, r6, r3, r2
 80047a0:	f8de 2000 	ldr.w	r2, [lr]
 80047a4:	b280      	uxth	r0, r0
 80047a6:	b292      	uxth	r2, r2
 80047a8:	1a12      	subs	r2, r2, r0
 80047aa:	445a      	add	r2, fp
 80047ac:	f8de 0000 	ldr.w	r0, [lr]
 80047b0:	ea4f 4a13 	mov.w	sl, r3, lsr #16
 80047b4:	b29b      	uxth	r3, r3
 80047b6:	ebc3 4322 	rsb	r3, r3, r2, asr #16
 80047ba:	eb03 4310 	add.w	r3, r3, r0, lsr #16
 80047be:	b292      	uxth	r2, r2
 80047c0:	ea42 4203 	orr.w	r2, r2, r3, lsl #16
 80047c4:	45e1      	cmp	r9, ip
 80047c6:	f84e 2b04 	str.w	r2, [lr], #4
 80047ca:	ea4f 4b23 	mov.w	fp, r3, asr #16
 80047ce:	d2de      	bcs.n	800478e <quorem+0x42>
 80047d0:	9b00      	ldr	r3, [sp, #0]
 80047d2:	58eb      	ldr	r3, [r5, r3]
 80047d4:	b92b      	cbnz	r3, 80047e2 <quorem+0x96>
 80047d6:	9b01      	ldr	r3, [sp, #4]
 80047d8:	3b04      	subs	r3, #4
 80047da:	429d      	cmp	r5, r3
 80047dc:	461a      	mov	r2, r3
 80047de:	d32f      	bcc.n	8004840 <quorem+0xf4>
 80047e0:	613c      	str	r4, [r7, #16]
 80047e2:	4638      	mov	r0, r7
 80047e4:	f002 fa6e 	bl	8006cc4 <__mcmp>
 80047e8:	2800      	cmp	r0, #0
 80047ea:	db25      	blt.n	8004838 <quorem+0xec>
 80047ec:	4629      	mov	r1, r5
 80047ee:	2000      	movs	r0, #0
 80047f0:	f858 2b04 	ldr.w	r2, [r8], #4
 80047f4:	f8d1 c000 	ldr.w	ip, [r1]
 80047f8:	fa1f fe82 	uxth.w	lr, r2
 80047fc:	fa1f f38c 	uxth.w	r3, ip
 8004800:	eba3 030e 	sub.w	r3, r3, lr
 8004804:	4403      	add	r3, r0
 8004806:	0c12      	lsrs	r2, r2, #16
 8004808:	ebc2 4223 	rsb	r2, r2, r3, asr #16
 800480c:	eb02 421c 	add.w	r2, r2, ip, lsr #16
 8004810:	b29b      	uxth	r3, r3
 8004812:	ea43 4302 	orr.w	r3, r3, r2, lsl #16
 8004816:	45c1      	cmp	r9, r8
 8004818:	f841 3b04 	str.w	r3, [r1], #4
 800481c:	ea4f 4022 	mov.w	r0, r2, asr #16
 8004820:	d2e6      	bcs.n	80047f0 <quorem+0xa4>
 8004822:	f855 2024 	ldr.w	r2, [r5, r4, lsl #2]
 8004826:	eb05 0384 	add.w	r3, r5, r4, lsl #2
 800482a:	b922      	cbnz	r2, 8004836 <quorem+0xea>
 800482c:	3b04      	subs	r3, #4
 800482e:	429d      	cmp	r5, r3
 8004830:	461a      	mov	r2, r3
 8004832:	d30b      	bcc.n	800484c <quorem+0x100>
 8004834:	613c      	str	r4, [r7, #16]
 8004836:	3601      	adds	r6, #1
 8004838:	4630      	mov	r0, r6
 800483a:	b003      	add	sp, #12
 800483c:	e8bd 8ff0 	ldmia.w	sp!, {r4, r5, r6, r7, r8, r9, sl, fp, pc}
 8004840:	6812      	ldr	r2, [r2, #0]
 8004842:	3b04      	subs	r3, #4
 8004844:	2a00      	cmp	r2, #0
 8004846:	d1cb      	bne.n	80047e0 <quorem+0x94>
 8004848:	3c01      	subs	r4, #1
 800484a:	e7c6      	b.n	80047da <quorem+0x8e>
 800484c:	6812      	ldr	r2, [r2, #0]
 800484e:	3b04      	subs	r3, #4
 8004850:	2a00      	cmp	r2, #0
 8004852:	d1ef      	bne.n	8004834 <quorem+0xe8>
 8004854:	3c01      	subs	r4, #1
 8004856:	e7ea      	b.n	800482e <quorem+0xe2>
 8004858:	2000      	movs	r0, #0
 800485a:	e7ee      	b.n	800483a <quorem+0xee>
 800485c:	0000      	movs	r0, r0
	...

08004860 <_dtoa_r>:
 8004860:	e92d 4ff0 	stmdb	sp!, {r4, r5, r6, r7, r8, r9, sl, fp, lr}
 8004864:	69c7      	ldr	r7, [r0, #28]
 8004866:	b097      	sub	sp, #92	@ 0x5c
 8004868:	ed8d 0b04 	vstr	d0, [sp, #16]
 800486c:	ec55 4b10 	vmov	r4, r5, d0
 8004870:	9e20      	ldr	r6, [sp, #128]	@ 0x80
 8004872:	9107      	str	r1, [sp, #28]
 8004874:	4681      	mov	r9, r0
 8004876:	920c      	str	r2, [sp, #48]	@ 0x30
 8004878:	9311      	str	r3, [sp, #68]	@ 0x44
 800487a:	b97f      	cbnz	r7, 800489c <_dtoa_r+0x3c>
 800487c:	2010      	movs	r0, #16
 800487e:	f001 fc69 	bl	8006154 <malloc>
 8004882:	4602      	mov	r2, r0
 8004884:	f8c9 001c 	str.w	r0, [r9, #28]
 8004888:	b920      	cbnz	r0, 8004894 <_dtoa_r+0x34>
 800488a:	4ba9      	ldr	r3, [pc, #676]	@ (8004b30 <_dtoa_r+0x2d0>)
 800488c:	21ef      	movs	r1, #239	@ 0xef
 800488e:	48a9      	ldr	r0, [pc, #676]	@ (8004b34 <_dtoa_r+0x2d4>)
 8004890:	f002 fd16 	bl	80072c0 <__assert_func>
 8004894:	e9c0 7701 	strd	r7, r7, [r0, #4]
 8004898:	6007      	str	r7, [r0, #0]
 800489a:	60c7      	str	r7, [r0, #12]
 800489c:	f8d9 301c 	ldr.w	r3, [r9, #28]
 80048a0:	6819      	ldr	r1, [r3, #0]
 80048a2:	b159      	cbz	r1, 80048bc <_dtoa_r+0x5c>
 80048a4:	685a      	ldr	r2, [r3, #4]
 80048a6:	604a      	str	r2, [r1, #4]
 80048a8:	2301      	movs	r3, #1
 80048aa:	4093      	lsls	r3, r2
 80048ac:	608b      	str	r3, [r1, #8]
 80048ae:	4648      	mov	r0, r9
 80048b0:	f001 ff8c 	bl	80067cc <_Bfree>
 80048b4:	f8d9 301c 	ldr.w	r3, [r9, #28]
 80048b8:	2200      	movs	r2, #0
 80048ba:	601a      	str	r2, [r3, #0]
 80048bc:	1e2b      	subs	r3, r5, #0
 80048be:	bfb9      	ittee	lt
 80048c0:	f023 4300 	biclt.w	r3, r3, #2147483648	@ 0x80000000
 80048c4:	9305      	strlt	r3, [sp, #20]
 80048c6:	2300      	movge	r3, #0
 80048c8:	6033      	strge	r3, [r6, #0]
 80048ca:	9f05      	ldr	r7, [sp, #20]
 80048cc:	4b9a      	ldr	r3, [pc, #616]	@ (8004b38 <_dtoa_r+0x2d8>)
 80048ce:	bfbc      	itt	lt
 80048d0:	2201      	movlt	r2, #1
 80048d2:	6032      	strlt	r2, [r6, #0]
 80048d4:	43bb      	bics	r3, r7
 80048d6:	d112      	bne.n	80048fe <_dtoa_r+0x9e>
 80048d8:	9a11      	ldr	r2, [sp, #68]	@ 0x44
 80048da:	f242 730f 	movw	r3, #9999	@ 0x270f
 80048de:	6013      	str	r3, [r2, #0]
 80048e0:	f3c7 0313 	ubfx	r3, r7, #0, #20
 80048e4:	4323      	orrs	r3, r4
 80048e6:	f000 855a 	beq.w	800539e <_dtoa_r+0xb3e>
 80048ea:	9b21      	ldr	r3, [sp, #132]	@ 0x84
 80048ec:	f8df a25c 	ldr.w	sl, [pc, #604]	@ 8004b4c <_dtoa_r+0x2ec>
 80048f0:	2b00      	cmp	r3, #0
 80048f2:	f000 855c 	beq.w	80053ae <_dtoa_r+0xb4e>
 80048f6:	f10a 0303 	add.w	r3, sl, #3
 80048fa:	f000 bd56 	b.w	80053aa <_dtoa_r+0xb4a>
 80048fe:	ed9d 7b04 	vldr	d7, [sp, #16]
 8004902:	2200      	movs	r2, #0
 8004904:	ec51 0b17 	vmov	r0, r1, d7
 8004908:	2300      	movs	r3, #0
 800490a:	ed8d 7b0a 	vstr	d7, [sp, #40]	@ 0x28
 800490e:	f7fc f90b 	bl	8000b28 <__aeabi_dcmpeq>
 8004912:	4680      	mov	r8, r0
 8004914:	b158      	cbz	r0, 800492e <_dtoa_r+0xce>
 8004916:	9a11      	ldr	r2, [sp, #68]	@ 0x44
 8004918:	2301      	movs	r3, #1
 800491a:	6013      	str	r3, [r2, #0]
 800491c:	9b21      	ldr	r3, [sp, #132]	@ 0x84
 800491e:	b113      	cbz	r3, 8004926 <_dtoa_r+0xc6>
 8004920:	9a21      	ldr	r2, [sp, #132]	@ 0x84
 8004922:	4b86      	ldr	r3, [pc, #536]	@ (8004b3c <_dtoa_r+0x2dc>)
 8004924:	6013      	str	r3, [r2, #0]
 8004926:	f8df a228 	ldr.w	sl, [pc, #552]	@ 8004b50 <_dtoa_r+0x2f0>
 800492a:	f000 bd40 	b.w	80053ae <_dtoa_r+0xb4e>
 800492e:	ed9d 0b0a 	vldr	d0, [sp, #40]	@ 0x28
 8004932:	aa14      	add	r2, sp, #80	@ 0x50
 8004934:	a915      	add	r1, sp, #84	@ 0x54
 8004936:	4648      	mov	r0, r9
 8004938:	f002 fae4 	bl	8006f04 <__d2b>
 800493c:	f3c7 560a 	ubfx	r6, r7, #20, #11
 8004940:	9002      	str	r0, [sp, #8]
 8004942:	2e00      	cmp	r6, #0
 8004944:	d078      	beq.n	8004a38 <_dtoa_r+0x1d8>
 8004946:	9b0b      	ldr	r3, [sp, #44]	@ 0x2c
 8004948:	f8cd 8048 	str.w	r8, [sp, #72]	@ 0x48
 800494c:	f3c3 0313 	ubfx	r3, r3, #0, #20
 8004950:	e9dd 010a 	ldrd	r0, r1, [sp, #40]	@ 0x28
 8004954:	f043 537f 	orr.w	r3, r3, #1069547520	@ 0x3fc00000
 8004958:	f443 1340 	orr.w	r3, r3, #3145728	@ 0x300000
 800495c:	f2a6 36ff 	subw	r6, r6, #1023	@ 0x3ff
 8004960:	4619      	mov	r1, r3
 8004962:	2200      	movs	r2, #0
 8004964:	4b76      	ldr	r3, [pc, #472]	@ (8004b40 <_dtoa_r+0x2e0>)
 8004966:	f7fb fcbf 	bl	80002e8 <__aeabi_dsub>
 800496a:	a36b      	add	r3, pc, #428	@ (adr r3, 8004b18 <_dtoa_r+0x2b8>)
 800496c:	e9d3 2300 	ldrd	r2, r3, [r3]
 8004970:	f7fb fe72 	bl	8000658 <__aeabi_dmul>
 8004974:	a36a      	add	r3, pc, #424	@ (adr r3, 8004b20 <_dtoa_r+0x2c0>)
 8004976:	e9d3 2300 	ldrd	r2, r3, [r3]
 800497a:	f7fb fcb7 	bl	80002ec <__adddf3>
 800497e:	4604      	mov	r4, r0
 8004980:	4630      	mov	r0, r6
 8004982:	460d      	mov	r5, r1
 8004984:	f7fb fdfe 	bl	8000584 <__aeabi_i2d>
 8004988:	a367      	add	r3, pc, #412	@ (adr r3, 8004b28 <_dtoa_r+0x2c8>)
 800498a:	e9d3 2300 	ldrd	r2, r3, [r3]
 800498e:	f7fb fe63 	bl	8000658 <__aeabi_dmul>
 8004992:	4602      	mov	r2, r0
 8004994:	460b      	mov	r3, r1
 8004996:	4620      	mov	r0, r4
 8004998:	4629      	mov	r1, r5
 800499a:	f7fb fca7 	bl	80002ec <__adddf3>
 800499e:	4604      	mov	r4, r0
 80049a0:	460d      	mov	r5, r1
 80049a2:	f7fc f909 	bl	8000bb8 <__aeabi_d2iz>
 80049a6:	2200      	movs	r2, #0
 80049a8:	4607      	mov	r7, r0
 80049aa:	2300      	movs	r3, #0
 80049ac:	4620      	mov	r0, r4
 80049ae:	4629      	mov	r1, r5
 80049b0:	f7fc f8c4 	bl	8000b3c <__aeabi_dcmplt>
 80049b4:	b140      	cbz	r0, 80049c8 <_dtoa_r+0x168>
 80049b6:	4638      	mov	r0, r7
 80049b8:	f7fb fde4 	bl	8000584 <__aeabi_i2d>
 80049bc:	4622      	mov	r2, r4
 80049be:	462b      	mov	r3, r5
 80049c0:	f7fc f8b2 	bl	8000b28 <__aeabi_dcmpeq>
 80049c4:	b900      	cbnz	r0, 80049c8 <_dtoa_r+0x168>
 80049c6:	3f01      	subs	r7, #1
 80049c8:	2f16      	cmp	r7, #22
 80049ca:	d852      	bhi.n	8004a72 <_dtoa_r+0x212>
 80049cc:	4b5d      	ldr	r3, [pc, #372]	@ (8004b44 <_dtoa_r+0x2e4>)
 80049ce:	eb03 03c7 	add.w	r3, r3, r7, lsl #3
 80049d2:	e9d3 2300 	ldrd	r2, r3, [r3]
 80049d6:	e9dd 010a 	ldrd	r0, r1, [sp, #40]	@ 0x28
 80049da:	f7fc f8af 	bl	8000b3c <__aeabi_dcmplt>
 80049de:	2800      	cmp	r0, #0
 80049e0:	d049      	beq.n	8004a76 <_dtoa_r+0x216>
 80049e2:	3f01      	subs	r7, #1
 80049e4:	2300      	movs	r3, #0
 80049e6:	9310      	str	r3, [sp, #64]	@ 0x40
 80049e8:	9b14      	ldr	r3, [sp, #80]	@ 0x50
 80049ea:	1b9b      	subs	r3, r3, r6
 80049ec:	1e5a      	subs	r2, r3, #1
 80049ee:	bf45      	ittet	mi
 80049f0:	f1c3 0301 	rsbmi	r3, r3, #1
 80049f4:	9300      	strmi	r3, [sp, #0]
 80049f6:	2300      	movpl	r3, #0
 80049f8:	2300      	movmi	r3, #0
 80049fa:	9206      	str	r2, [sp, #24]
 80049fc:	bf54      	ite	pl
 80049fe:	9300      	strpl	r3, [sp, #0]
 8004a00:	9306      	strmi	r3, [sp, #24]
 8004a02:	2f00      	cmp	r7, #0
 8004a04:	db39      	blt.n	8004a7a <_dtoa_r+0x21a>
 8004a06:	9b06      	ldr	r3, [sp, #24]
 8004a08:	970d      	str	r7, [sp, #52]	@ 0x34
 8004a0a:	443b      	add	r3, r7
 8004a0c:	9306      	str	r3, [sp, #24]
 8004a0e:	2300      	movs	r3, #0
 8004a10:	9308      	str	r3, [sp, #32]
 8004a12:	9b07      	ldr	r3, [sp, #28]
 8004a14:	2b09      	cmp	r3, #9
 8004a16:	d863      	bhi.n	8004ae0 <_dtoa_r+0x280>
 8004a18:	2b05      	cmp	r3, #5
 8004a1a:	bfc4      	itt	gt
 8004a1c:	3b04      	subgt	r3, #4
 8004a1e:	9307      	strgt	r3, [sp, #28]
 8004a20:	9b07      	ldr	r3, [sp, #28]
 8004a22:	f1a3 0302 	sub.w	r3, r3, #2
 8004a26:	bfcc      	ite	gt
 8004a28:	2400      	movgt	r4, #0
 8004a2a:	2401      	movle	r4, #1
 8004a2c:	2b03      	cmp	r3, #3
 8004a2e:	d863      	bhi.n	8004af8 <_dtoa_r+0x298>
 8004a30:	e8df f003 	tbb	[pc, r3]
 8004a34:	2b375452 	.word	0x2b375452
 8004a38:	e9dd 6314 	ldrd	r6, r3, [sp, #80]	@ 0x50
 8004a3c:	441e      	add	r6, r3
 8004a3e:	f206 4332 	addw	r3, r6, #1074	@ 0x432
 8004a42:	2b20      	cmp	r3, #32
 8004a44:	bfc1      	itttt	gt
 8004a46:	f1c3 0340 	rsbgt	r3, r3, #64	@ 0x40
 8004a4a:	409f      	lslgt	r7, r3
 8004a4c:	f206 4312 	addwgt	r3, r6, #1042	@ 0x412
 8004a50:	fa24 f303 	lsrgt.w	r3, r4, r3
 8004a54:	bfd6      	itet	le
 8004a56:	f1c3 0320 	rsble	r3, r3, #32
 8004a5a:	ea47 0003 	orrgt.w	r0, r7, r3
 8004a5e:	fa04 f003 	lslle.w	r0, r4, r3
 8004a62:	f7fb fd7f 	bl	8000564 <__aeabi_ui2d>
 8004a66:	2201      	movs	r2, #1
 8004a68:	f1a1 73f8 	sub.w	r3, r1, #32505856	@ 0x1f00000
 8004a6c:	3e01      	subs	r6, #1
 8004a6e:	9212      	str	r2, [sp, #72]	@ 0x48
 8004a70:	e776      	b.n	8004960 <_dtoa_r+0x100>
 8004a72:	2301      	movs	r3, #1
 8004a74:	e7b7      	b.n	80049e6 <_dtoa_r+0x186>
 8004a76:	9010      	str	r0, [sp, #64]	@ 0x40
 8004a78:	e7b6      	b.n	80049e8 <_dtoa_r+0x188>
 8004a7a:	9b00      	ldr	r3, [sp, #0]
 8004a7c:	1bdb      	subs	r3, r3, r7
 8004a7e:	9300      	str	r3, [sp, #0]
 8004a80:	427b      	negs	r3, r7
 8004a82:	9308      	str	r3, [sp, #32]
 8004a84:	2300      	movs	r3, #0
 8004a86:	930d      	str	r3, [sp, #52]	@ 0x34
 8004a88:	e7c3      	b.n	8004a12 <_dtoa_r+0x1b2>
 8004a8a:	2301      	movs	r3, #1
 8004a8c:	9309      	str	r3, [sp, #36]	@ 0x24
 8004a8e:	9b0c      	ldr	r3, [sp, #48]	@ 0x30
 8004a90:	eb07 0b03 	add.w	fp, r7, r3
 8004a94:	f10b 0301 	add.w	r3, fp, #1
 8004a98:	2b01      	cmp	r3, #1
 8004a9a:	9303      	str	r3, [sp, #12]
 8004a9c:	bfb8      	it	lt
 8004a9e:	2301      	movlt	r3, #1
 8004aa0:	e006      	b.n	8004ab0 <_dtoa_r+0x250>
 8004aa2:	2301      	movs	r3, #1
 8004aa4:	9309      	str	r3, [sp, #36]	@ 0x24
 8004aa6:	9b0c      	ldr	r3, [sp, #48]	@ 0x30
 8004aa8:	2b00      	cmp	r3, #0
 8004aaa:	dd28      	ble.n	8004afe <_dtoa_r+0x29e>
 8004aac:	469b      	mov	fp, r3
 8004aae:	9303      	str	r3, [sp, #12]
 8004ab0:	f8d9 001c 	ldr.w	r0, [r9, #28]
 8004ab4:	2100      	movs	r1, #0
 8004ab6:	2204      	movs	r2, #4
 8004ab8:	f102 0514 	add.w	r5, r2, #20
 8004abc:	429d      	cmp	r5, r3
 8004abe:	d926      	bls.n	8004b0e <_dtoa_r+0x2ae>
 8004ac0:	6041      	str	r1, [r0, #4]
 8004ac2:	4648      	mov	r0, r9
 8004ac4:	f001 fe42 	bl	800674c <_Balloc>
 8004ac8:	4682      	mov	sl, r0
 8004aca:	2800      	cmp	r0, #0
 8004acc:	d142      	bne.n	8004b54 <_dtoa_r+0x2f4>
 8004ace:	4b1e      	ldr	r3, [pc, #120]	@ (8004b48 <_dtoa_r+0x2e8>)
 8004ad0:	4602      	mov	r2, r0
 8004ad2:	f240 11af 	movw	r1, #431	@ 0x1af
 8004ad6:	e6da      	b.n	800488e <_dtoa_r+0x2e>
 8004ad8:	2300      	movs	r3, #0
 8004ada:	e7e3      	b.n	8004aa4 <_dtoa_r+0x244>
 8004adc:	2300      	movs	r3, #0
 8004ade:	e7d5      	b.n	8004a8c <_dtoa_r+0x22c>
 8004ae0:	2401      	movs	r4, #1
 8004ae2:	2300      	movs	r3, #0
 8004ae4:	9307      	str	r3, [sp, #28]
 8004ae6:	9409      	str	r4, [sp, #36]	@ 0x24
 8004ae8:	f04f 3bff 	mov.w	fp, #4294967295	@ 0xffffffff
 8004aec:	2200      	movs	r2, #0
 8004aee:	f8cd b00c 	str.w	fp, [sp, #12]
 8004af2:	2312      	movs	r3, #18
 8004af4:	920c      	str	r2, [sp, #48]	@ 0x30
 8004af6:	e7db      	b.n	8004ab0 <_dtoa_r+0x250>
 8004af8:	2301      	movs	r3, #1
 8004afa:	9309      	str	r3, [sp, #36]	@ 0x24
 8004afc:	e7f4      	b.n	8004ae8 <_dtoa_r+0x288>
 8004afe:	f04f 0b01 	mov.w	fp, #1
 8004b02:	f8cd b00c 	str.w	fp, [sp, #12]
 8004b06:	465b      	mov	r3, fp
 8004b08:	f8cd b030 	str.w	fp, [sp, #48]	@ 0x30
 8004b0c:	e7d0      	b.n	8004ab0 <_dtoa_r+0x250>
 8004b0e:	3101      	adds	r1, #1
 8004b10:	0052      	lsls	r2, r2, #1
 8004b12:	e7d1      	b.n	8004ab8 <_dtoa_r+0x258>
 8004b14:	f3af 8000 	nop.w
 8004b18:	636f4361 	.word	0x636f4361
 8004b1c:	3fd287a7 	.word	0x3fd287a7
 8004b20:	8b60c8b3 	.word	0x8b60c8b3
 8004b24:	3fc68a28 	.word	0x3fc68a28
 8004b28:	509f79fb 	.word	0x509f79fb
 8004b2c:	3fd34413 	.word	0x3fd34413
 8004b30:	08007d68 	.word	0x08007d68
 8004b34:	08007d7f 	.word	0x08007d7f
 8004b38:	7ff00000 	.word	0x7ff00000
 8004b3c:	08007e70 	.word	0x08007e70
 8004b40:	3ff80000 	.word	0x3ff80000
 8004b44:	08008098 	.word	0x08008098
 8004b48:	08007dd7 	.word	0x08007dd7
 8004b4c:	08007d64 	.word	0x08007d64
 8004b50:	08007e6f 	.word	0x08007e6f
 8004b54:	f8d9 301c 	ldr.w	r3, [r9, #28]
 8004b58:	6018      	str	r0, [r3, #0]
 8004b5a:	9b03      	ldr	r3, [sp, #12]
 8004b5c:	2b0e      	cmp	r3, #14
 8004b5e:	f200 80a1 	bhi.w	8004ca4 <_dtoa_r+0x444>
 8004b62:	2c00      	cmp	r4, #0
 8004b64:	f000 809e 	beq.w	8004ca4 <_dtoa_r+0x444>
 8004b68:	2f00      	cmp	r7, #0
 8004b6a:	dd33      	ble.n	8004bd4 <_dtoa_r+0x374>
 8004b6c:	4b9c      	ldr	r3, [pc, #624]	@ (8004de0 <_dtoa_r+0x580>)
 8004b6e:	f007 020f 	and.w	r2, r7, #15
 8004b72:	eb03 03c2 	add.w	r3, r3, r2, lsl #3
 8004b76:	ed93 7b00 	vldr	d7, [r3]
 8004b7a:	05f8      	lsls	r0, r7, #23
 8004b7c:	ed8d 7b0e 	vstr	d7, [sp, #56]	@ 0x38
 8004b80:	ea4f 1427 	mov.w	r4, r7, asr #4
 8004b84:	d516      	bpl.n	8004bb4 <_dtoa_r+0x354>
 8004b86:	4b97      	ldr	r3, [pc, #604]	@ (8004de4 <_dtoa_r+0x584>)
 8004b88:	e9dd 010a 	ldrd	r0, r1, [sp, #40]	@ 0x28
 8004b8c:	e9d3 2308 	ldrd	r2, r3, [r3, #32]
 8004b90:	f7fb fe8c 	bl	80008ac <__aeabi_ddiv>
 8004b94:	e9cd 0104 	strd	r0, r1, [sp, #16]
 8004b98:	f004 040f 	and.w	r4, r4, #15
 8004b9c:	2603      	movs	r6, #3
 8004b9e:	4d91      	ldr	r5, [pc, #580]	@ (8004de4 <_dtoa_r+0x584>)
 8004ba0:	b954      	cbnz	r4, 8004bb8 <_dtoa_r+0x358>
 8004ba2:	e9dd 230e 	ldrd	r2, r3, [sp, #56]	@ 0x38
 8004ba6:	e9dd 0104 	ldrd	r0, r1, [sp, #16]
 8004baa:	f7fb fe7f 	bl	80008ac <__aeabi_ddiv>
 8004bae:	e9cd 0104 	strd	r0, r1, [sp, #16]
 8004bb2:	e028      	b.n	8004c06 <_dtoa_r+0x3a6>
 8004bb4:	2602      	movs	r6, #2
 8004bb6:	e7f2      	b.n	8004b9e <_dtoa_r+0x33e>
 8004bb8:	07e1      	lsls	r1, r4, #31
 8004bba:	d508      	bpl.n	8004bce <_dtoa_r+0x36e>
 8004bbc:	e9dd 010e 	ldrd	r0, r1, [sp, #56]	@ 0x38
 8004bc0:	e9d5 2300 	ldrd	r2, r3, [r5]
 8004bc4:	f7fb fd48 	bl	8000658 <__aeabi_dmul>
 8004bc8:	e9cd 010e 	strd	r0, r1, [sp, #56]	@ 0x38
 8004bcc:	3601      	adds	r6, #1
 8004bce:	1064      	asrs	r4, r4, #1
 8004bd0:	3508      	adds	r5, #8
 8004bd2:	e7e5      	b.n	8004ba0 <_dtoa_r+0x340>
 8004bd4:	f000 80af 	beq.w	8004d36 <_dtoa_r+0x4d6>
 8004bd8:	427c      	negs	r4, r7
 8004bda:	4b81      	ldr	r3, [pc, #516]	@ (8004de0 <_dtoa_r+0x580>)
 8004bdc:	4d81      	ldr	r5, [pc, #516]	@ (8004de4 <_dtoa_r+0x584>)
 8004bde:	f004 020f 	and.w	r2, r4, #15
 8004be2:	eb03 03c2 	add.w	r3, r3, r2, lsl #3
 8004be6:	e9d3 2300 	ldrd	r2, r3, [r3]
 8004bea:	e9dd 010a 	ldrd	r0, r1, [sp, #40]	@ 0x28
 8004bee:	f7fb fd33 	bl	8000658 <__aeabi_dmul>
 8004bf2:	e9cd 0104 	strd	r0, r1, [sp, #16]
 8004bf6:	1124      	asrs	r4, r4, #4
 8004bf8:	2300      	movs	r3, #0
 8004bfa:	2602      	movs	r6, #2
 8004bfc:	2c00      	cmp	r4, #0
 8004bfe:	f040 808f 	bne.w	8004d20 <_dtoa_r+0x4c0>
 8004c02:	2b00      	cmp	r3, #0
 8004c04:	d1d3      	bne.n	8004bae <_dtoa_r+0x34e>
 8004c06:	9b10      	ldr	r3, [sp, #64]	@ 0x40
 8004c08:	e9dd 4504 	ldrd	r4, r5, [sp, #16]
 8004c0c:	2b00      	cmp	r3, #0
 8004c0e:	f000 8094 	beq.w	8004d3a <_dtoa_r+0x4da>
 8004c12:	4b75      	ldr	r3, [pc, #468]	@ (8004de8 <_dtoa_r+0x588>)
 8004c14:	2200      	movs	r2, #0
 8004c16:	4620      	mov	r0, r4
 8004c18:	4629      	mov	r1, r5
 8004c1a:	f7fb ff8f 	bl	8000b3c <__aeabi_dcmplt>
 8004c1e:	2800      	cmp	r0, #0
 8004c20:	f000 808b 	beq.w	8004d3a <_dtoa_r+0x4da>
 8004c24:	9b03      	ldr	r3, [sp, #12]
 8004c26:	2b00      	cmp	r3, #0
 8004c28:	f000 8087 	beq.w	8004d3a <_dtoa_r+0x4da>
 8004c2c:	f1bb 0f00 	cmp.w	fp, #0
 8004c30:	dd34      	ble.n	8004c9c <_dtoa_r+0x43c>
 8004c32:	4620      	mov	r0, r4
 8004c34:	4b6d      	ldr	r3, [pc, #436]	@ (8004dec <_dtoa_r+0x58c>)
 8004c36:	2200      	movs	r2, #0
 8004c38:	4629      	mov	r1, r5
 8004c3a:	f7fb fd0d 	bl	8000658 <__aeabi_dmul>
 8004c3e:	e9cd 0104 	strd	r0, r1, [sp, #16]
 8004c42:	f107 38ff 	add.w	r8, r7, #4294967295	@ 0xffffffff
 8004c46:	3601      	adds	r6, #1
 8004c48:	465c      	mov	r4, fp
 8004c4a:	4630      	mov	r0, r6
 8004c4c:	f7fb fc9a 	bl	8000584 <__aeabi_i2d>
 8004c50:	e9dd 2304 	ldrd	r2, r3, [sp, #16]
 8004c54:	f7fb fd00 	bl	8000658 <__aeabi_dmul>
 8004c58:	4b65      	ldr	r3, [pc, #404]	@ (8004df0 <_dtoa_r+0x590>)
 8004c5a:	2200      	movs	r2, #0
 8004c5c:	f7fb fb46 	bl	80002ec <__adddf3>
 8004c60:	4605      	mov	r5, r0
 8004c62:	f1a1 7650 	sub.w	r6, r1, #54525952	@ 0x3400000
 8004c66:	2c00      	cmp	r4, #0
 8004c68:	d16a      	bne.n	8004d40 <_dtoa_r+0x4e0>
 8004c6a:	e9dd 0104 	ldrd	r0, r1, [sp, #16]
 8004c6e:	4b61      	ldr	r3, [pc, #388]	@ (8004df4 <_dtoa_r+0x594>)
 8004c70:	2200      	movs	r2, #0
 8004c72:	f7fb fb39 	bl	80002e8 <__aeabi_dsub>
 8004c76:	4602      	mov	r2, r0
 8004c78:	460b      	mov	r3, r1
 8004c7a:	e9cd 2304 	strd	r2, r3, [sp, #16]
 8004c7e:	462a      	mov	r2, r5
 8004c80:	4633      	mov	r3, r6
 8004c82:	f7fb ff79 	bl	8000b78 <__aeabi_dcmpgt>
 8004c86:	2800      	cmp	r0, #0
 8004c88:	f040 8298 	bne.w	80051bc <_dtoa_r+0x95c>
 8004c8c:	e9dd 0104 	ldrd	r0, r1, [sp, #16]
 8004c90:	462a      	mov	r2, r5
 8004c92:	f106 4300 	add.w	r3, r6, #2147483648	@ 0x80000000
 8004c96:	f7fb ff51 	bl	8000b3c <__aeabi_dcmplt>
 8004c9a:	bb38      	cbnz	r0, 8004cec <_dtoa_r+0x48c>
 8004c9c:	e9dd 340a 	ldrd	r3, r4, [sp, #40]	@ 0x28
 8004ca0:	e9cd 3404 	strd	r3, r4, [sp, #16]
 8004ca4:	9b15      	ldr	r3, [sp, #84]	@ 0x54
 8004ca6:	2b00      	cmp	r3, #0
 8004ca8:	f2c0 8157 	blt.w	8004f5a <_dtoa_r+0x6fa>
 8004cac:	2f0e      	cmp	r7, #14
 8004cae:	f300 8154 	bgt.w	8004f5a <_dtoa_r+0x6fa>
 8004cb2:	4b4b      	ldr	r3, [pc, #300]	@ (8004de0 <_dtoa_r+0x580>)
 8004cb4:	eb03 03c7 	add.w	r3, r3, r7, lsl #3
 8004cb8:	ed93 7b00 	vldr	d7, [r3]
 8004cbc:	9b0c      	ldr	r3, [sp, #48]	@ 0x30
 8004cbe:	2b00      	cmp	r3, #0
 8004cc0:	ed8d 7b00 	vstr	d7, [sp]
 8004cc4:	f280 80e5 	bge.w	8004e92 <_dtoa_r+0x632>
 8004cc8:	9b03      	ldr	r3, [sp, #12]
 8004cca:	2b00      	cmp	r3, #0
 8004ccc:	f300 80e1 	bgt.w	8004e92 <_dtoa_r+0x632>
 8004cd0:	d10c      	bne.n	8004cec <_dtoa_r+0x48c>
 8004cd2:	4b48      	ldr	r3, [pc, #288]	@ (8004df4 <_dtoa_r+0x594>)
 8004cd4:	2200      	movs	r2, #0
 8004cd6:	ec51 0b17 	vmov	r0, r1, d7
 8004cda:	f7fb fcbd 	bl	8000658 <__aeabi_dmul>
 8004cde:	e9dd 2304 	ldrd	r2, r3, [sp, #16]
 8004ce2:	f7fb ff3f 	bl	8000b64 <__aeabi_dcmpge>
 8004ce6:	2800      	cmp	r0, #0
 8004ce8:	f000 8266 	beq.w	80051b8 <_dtoa_r+0x958>
 8004cec:	2400      	movs	r4, #0
 8004cee:	4625      	mov	r5, r4
 8004cf0:	9b0c      	ldr	r3, [sp, #48]	@ 0x30
 8004cf2:	4656      	mov	r6, sl
 8004cf4:	ea6f 0803 	mvn.w	r8, r3
 8004cf8:	2700      	movs	r7, #0
 8004cfa:	4621      	mov	r1, r4
 8004cfc:	4648      	mov	r0, r9
 8004cfe:	f001 fd65 	bl	80067cc <_Bfree>
 8004d02:	2d00      	cmp	r5, #0
 8004d04:	f000 80bd 	beq.w	8004e82 <_dtoa_r+0x622>
 8004d08:	b12f      	cbz	r7, 8004d16 <_dtoa_r+0x4b6>
 8004d0a:	42af      	cmp	r7, r5
 8004d0c:	d003      	beq.n	8004d16 <_dtoa_r+0x4b6>
 8004d0e:	4639      	mov	r1, r7
 8004d10:	4648      	mov	r0, r9
 8004d12:	f001 fd5b 	bl	80067cc <_Bfree>
 8004d16:	4629      	mov	r1, r5
 8004d18:	4648      	mov	r0, r9
 8004d1a:	f001 fd57 	bl	80067cc <_Bfree>
 8004d1e:	e0b0      	b.n	8004e82 <_dtoa_r+0x622>
 8004d20:	07e2      	lsls	r2, r4, #31
 8004d22:	d505      	bpl.n	8004d30 <_dtoa_r+0x4d0>
 8004d24:	e9d5 2300 	ldrd	r2, r3, [r5]
 8004d28:	f7fb fc96 	bl	8000658 <__aeabi_dmul>
 8004d2c:	3601      	adds	r6, #1
 8004d2e:	2301      	movs	r3, #1
 8004d30:	1064      	asrs	r4, r4, #1
 8004d32:	3508      	adds	r5, #8
 8004d34:	e762      	b.n	8004bfc <_dtoa_r+0x39c>
 8004d36:	2602      	movs	r6, #2
 8004d38:	e765      	b.n	8004c06 <_dtoa_r+0x3a6>
 8004d3a:	9c03      	ldr	r4, [sp, #12]
 8004d3c:	46b8      	mov	r8, r7
 8004d3e:	e784      	b.n	8004c4a <_dtoa_r+0x3ea>
 8004d40:	4b27      	ldr	r3, [pc, #156]	@ (8004de0 <_dtoa_r+0x580>)
 8004d42:	9909      	ldr	r1, [sp, #36]	@ 0x24
 8004d44:	eb03 03c4 	add.w	r3, r3, r4, lsl #3
 8004d48:	e953 2302 	ldrd	r2, r3, [r3, #-8]
 8004d4c:	4454      	add	r4, sl
 8004d4e:	2900      	cmp	r1, #0
 8004d50:	d054      	beq.n	8004dfc <_dtoa_r+0x59c>
 8004d52:	4929      	ldr	r1, [pc, #164]	@ (8004df8 <_dtoa_r+0x598>)
 8004d54:	2000      	movs	r0, #0
 8004d56:	f7fb fda9 	bl	80008ac <__aeabi_ddiv>
 8004d5a:	4633      	mov	r3, r6
 8004d5c:	462a      	mov	r2, r5
 8004d5e:	f7fb fac3 	bl	80002e8 <__aeabi_dsub>
 8004d62:	e9cd 010e 	strd	r0, r1, [sp, #56]	@ 0x38
 8004d66:	4656      	mov	r6, sl
 8004d68:	e9dd 0104 	ldrd	r0, r1, [sp, #16]
 8004d6c:	f7fb ff24 	bl	8000bb8 <__aeabi_d2iz>
 8004d70:	4605      	mov	r5, r0
 8004d72:	f7fb fc07 	bl	8000584 <__aeabi_i2d>
 8004d76:	4602      	mov	r2, r0
 8004d78:	460b      	mov	r3, r1
 8004d7a:	e9dd 0104 	ldrd	r0, r1, [sp, #16]
 8004d7e:	f7fb fab3 	bl	80002e8 <__aeabi_dsub>
 8004d82:	3530      	adds	r5, #48	@ 0x30
 8004d84:	4602      	mov	r2, r0
 8004d86:	460b      	mov	r3, r1
 8004d88:	e9cd 2304 	strd	r2, r3, [sp, #16]
 8004d8c:	f806 5b01 	strb.w	r5, [r6], #1
 8004d90:	e9dd 230e 	ldrd	r2, r3, [sp, #56]	@ 0x38
 8004d94:	f7fb fed2 	bl	8000b3c <__aeabi_dcmplt>
 8004d98:	2800      	cmp	r0, #0
 8004d9a:	d172      	bne.n	8004e82 <_dtoa_r+0x622>
 8004d9c:	e9dd 2304 	ldrd	r2, r3, [sp, #16]
 8004da0:	4911      	ldr	r1, [pc, #68]	@ (8004de8 <_dtoa_r+0x588>)
 8004da2:	2000      	movs	r0, #0
 8004da4:	f7fb faa0 	bl	80002e8 <__aeabi_dsub>
 8004da8:	e9dd 230e 	ldrd	r2, r3, [sp, #56]	@ 0x38
 8004dac:	f7fb fec6 	bl	8000b3c <__aeabi_dcmplt>
 8004db0:	2800      	cmp	r0, #0
 8004db2:	f040 80b4 	bne.w	8004f1e <_dtoa_r+0x6be>
 8004db6:	42a6      	cmp	r6, r4
 8004db8:	f43f af70 	beq.w	8004c9c <_dtoa_r+0x43c>
 8004dbc:	e9dd 010e 	ldrd	r0, r1, [sp, #56]	@ 0x38
 8004dc0:	4b0a      	ldr	r3, [pc, #40]	@ (8004dec <_dtoa_r+0x58c>)
 8004dc2:	2200      	movs	r2, #0
 8004dc4:	f7fb fc48 	bl	8000658 <__aeabi_dmul>
 8004dc8:	4b08      	ldr	r3, [pc, #32]	@ (8004dec <_dtoa_r+0x58c>)
 8004dca:	e9cd 010e 	strd	r0, r1, [sp, #56]	@ 0x38
 8004dce:	2200      	movs	r2, #0
 8004dd0:	e9dd 0104 	ldrd	r0, r1, [sp, #16]
 8004dd4:	f7fb fc40 	bl	8000658 <__aeabi_dmul>
 8004dd8:	e9cd 0104 	strd	r0, r1, [sp, #16]
 8004ddc:	e7c4      	b.n	8004d68 <_dtoa_r+0x508>
 8004dde:	bf00      	nop
 8004de0:	08008098 	.word	0x08008098
 8004de4:	08008070 	.word	0x08008070
 8004de8:	3ff00000 	.word	0x3ff00000
 8004dec:	40240000 	.word	0x40240000
 8004df0:	401c0000 	.word	0x401c0000
 8004df4:	40140000 	.word	0x40140000
 8004df8:	3fe00000 	.word	0x3fe00000
 8004dfc:	4631      	mov	r1, r6
 8004dfe:	4628      	mov	r0, r5
 8004e00:	f7fb fc2a 	bl	8000658 <__aeabi_dmul>
 8004e04:	e9cd 010e 	strd	r0, r1, [sp, #56]	@ 0x38
 8004e08:	9413      	str	r4, [sp, #76]	@ 0x4c
 8004e0a:	4656      	mov	r6, sl
 8004e0c:	e9dd 0104 	ldrd	r0, r1, [sp, #16]
 8004e10:	f7fb fed2 	bl	8000bb8 <__aeabi_d2iz>
 8004e14:	4605      	mov	r5, r0
 8004e16:	f7fb fbb5 	bl	8000584 <__aeabi_i2d>
 8004e1a:	4602      	mov	r2, r0
 8004e1c:	460b      	mov	r3, r1
 8004e1e:	e9dd 0104 	ldrd	r0, r1, [sp, #16]
 8004e22:	f7fb fa61 	bl	80002e8 <__aeabi_dsub>
 8004e26:	3530      	adds	r5, #48	@ 0x30
 8004e28:	f806 5b01 	strb.w	r5, [r6], #1
 8004e2c:	4602      	mov	r2, r0
 8004e2e:	460b      	mov	r3, r1
 8004e30:	42a6      	cmp	r6, r4
 8004e32:	e9cd 2304 	strd	r2, r3, [sp, #16]
 8004e36:	f04f 0200 	mov.w	r2, #0
 8004e3a:	d124      	bne.n	8004e86 <_dtoa_r+0x626>
 8004e3c:	4baf      	ldr	r3, [pc, #700]	@ (80050fc <_dtoa_r+0x89c>)
 8004e3e:	e9dd 010e 	ldrd	r0, r1, [sp, #56]	@ 0x38
 8004e42:	f7fb fa53 	bl	80002ec <__adddf3>
 8004e46:	4602      	mov	r2, r0
 8004e48:	460b      	mov	r3, r1
 8004e4a:	e9dd 0104 	ldrd	r0, r1, [sp, #16]
 8004e4e:	f7fb fe93 	bl	8000b78 <__aeabi_dcmpgt>
 8004e52:	2800      	cmp	r0, #0
 8004e54:	d163      	bne.n	8004f1e <_dtoa_r+0x6be>
 8004e56:	e9dd 230e 	ldrd	r2, r3, [sp, #56]	@ 0x38
 8004e5a:	49a8      	ldr	r1, [pc, #672]	@ (80050fc <_dtoa_r+0x89c>)
 8004e5c:	2000      	movs	r0, #0
 8004e5e:	f7fb fa43 	bl	80002e8 <__aeabi_dsub>
 8004e62:	4602      	mov	r2, r0
 8004e64:	460b      	mov	r3, r1
 8004e66:	e9dd 0104 	ldrd	r0, r1, [sp, #16]
 8004e6a:	f7fb fe67 	bl	8000b3c <__aeabi_dcmplt>
 8004e6e:	2800      	cmp	r0, #0
 8004e70:	f43f af14 	beq.w	8004c9c <_dtoa_r+0x43c>
 8004e74:	9e13      	ldr	r6, [sp, #76]	@ 0x4c
 8004e76:	1e73      	subs	r3, r6, #1
 8004e78:	9313      	str	r3, [sp, #76]	@ 0x4c
 8004e7a:	f816 3c01 	ldrb.w	r3, [r6, #-1]
 8004e7e:	2b30      	cmp	r3, #48	@ 0x30
 8004e80:	d0f8      	beq.n	8004e74 <_dtoa_r+0x614>
 8004e82:	4647      	mov	r7, r8
 8004e84:	e03b      	b.n	8004efe <_dtoa_r+0x69e>
 8004e86:	4b9e      	ldr	r3, [pc, #632]	@ (8005100 <_dtoa_r+0x8a0>)
 8004e88:	f7fb fbe6 	bl	8000658 <__aeabi_dmul>
 8004e8c:	e9cd 0104 	strd	r0, r1, [sp, #16]
 8004e90:	e7bc      	b.n	8004e0c <_dtoa_r+0x5ac>
 8004e92:	e9dd 4504 	ldrd	r4, r5, [sp, #16]
 8004e96:	4656      	mov	r6, sl
 8004e98:	e9dd 2300 	ldrd	r2, r3, [sp]
 8004e9c:	4620      	mov	r0, r4
 8004e9e:	4629      	mov	r1, r5
 8004ea0:	f7fb fd04 	bl	80008ac <__aeabi_ddiv>
 8004ea4:	f7fb fe88 	bl	8000bb8 <__aeabi_d2iz>
 8004ea8:	4680      	mov	r8, r0
 8004eaa:	f7fb fb6b 	bl	8000584 <__aeabi_i2d>
 8004eae:	e9dd 2300 	ldrd	r2, r3, [sp]
 8004eb2:	f7fb fbd1 	bl	8000658 <__aeabi_dmul>
 8004eb6:	4602      	mov	r2, r0
 8004eb8:	460b      	mov	r3, r1
 8004eba:	4620      	mov	r0, r4
 8004ebc:	4629      	mov	r1, r5
 8004ebe:	f108 0430 	add.w	r4, r8, #48	@ 0x30
 8004ec2:	f7fb fa11 	bl	80002e8 <__aeabi_dsub>
 8004ec6:	f806 4b01 	strb.w	r4, [r6], #1
 8004eca:	9d03      	ldr	r5, [sp, #12]
 8004ecc:	eba6 040a 	sub.w	r4, r6, sl
 8004ed0:	42a5      	cmp	r5, r4
 8004ed2:	4602      	mov	r2, r0
 8004ed4:	460b      	mov	r3, r1
 8004ed6:	d133      	bne.n	8004f40 <_dtoa_r+0x6e0>
 8004ed8:	f7fb fa08 	bl	80002ec <__adddf3>
 8004edc:	e9dd 2300 	ldrd	r2, r3, [sp]
 8004ee0:	4604      	mov	r4, r0
 8004ee2:	460d      	mov	r5, r1
 8004ee4:	f7fb fe48 	bl	8000b78 <__aeabi_dcmpgt>
 8004ee8:	b9c0      	cbnz	r0, 8004f1c <_dtoa_r+0x6bc>
 8004eea:	e9dd 2300 	ldrd	r2, r3, [sp]
 8004eee:	4620      	mov	r0, r4
 8004ef0:	4629      	mov	r1, r5
 8004ef2:	f7fb fe19 	bl	8000b28 <__aeabi_dcmpeq>
 8004ef6:	b110      	cbz	r0, 8004efe <_dtoa_r+0x69e>
 8004ef8:	f018 0f01 	tst.w	r8, #1
 8004efc:	d10e      	bne.n	8004f1c <_dtoa_r+0x6bc>
 8004efe:	9902      	ldr	r1, [sp, #8]
 8004f00:	4648      	mov	r0, r9
 8004f02:	f001 fc63 	bl	80067cc <_Bfree>
 8004f06:	2300      	movs	r3, #0
 8004f08:	7033      	strb	r3, [r6, #0]
 8004f0a:	9b11      	ldr	r3, [sp, #68]	@ 0x44
 8004f0c:	3701      	adds	r7, #1
 8004f0e:	601f      	str	r7, [r3, #0]
 8004f10:	9b21      	ldr	r3, [sp, #132]	@ 0x84
 8004f12:	2b00      	cmp	r3, #0
 8004f14:	f000 824b 	beq.w	80053ae <_dtoa_r+0xb4e>
 8004f18:	601e      	str	r6, [r3, #0]
 8004f1a:	e248      	b.n	80053ae <_dtoa_r+0xb4e>
 8004f1c:	46b8      	mov	r8, r7
 8004f1e:	4633      	mov	r3, r6
 8004f20:	461e      	mov	r6, r3
 8004f22:	f813 2d01 	ldrb.w	r2, [r3, #-1]!
 8004f26:	2a39      	cmp	r2, #57	@ 0x39
 8004f28:	d106      	bne.n	8004f38 <_dtoa_r+0x6d8>
 8004f2a:	459a      	cmp	sl, r3
 8004f2c:	d1f8      	bne.n	8004f20 <_dtoa_r+0x6c0>
 8004f2e:	2230      	movs	r2, #48	@ 0x30
 8004f30:	f108 0801 	add.w	r8, r8, #1
 8004f34:	f88a 2000 	strb.w	r2, [sl]
 8004f38:	781a      	ldrb	r2, [r3, #0]
 8004f3a:	3201      	adds	r2, #1
 8004f3c:	701a      	strb	r2, [r3, #0]
 8004f3e:	e7a0      	b.n	8004e82 <_dtoa_r+0x622>
 8004f40:	4b6f      	ldr	r3, [pc, #444]	@ (8005100 <_dtoa_r+0x8a0>)
 8004f42:	2200      	movs	r2, #0
 8004f44:	f7fb fb88 	bl	8000658 <__aeabi_dmul>
 8004f48:	2200      	movs	r2, #0
 8004f4a:	2300      	movs	r3, #0
 8004f4c:	4604      	mov	r4, r0
 8004f4e:	460d      	mov	r5, r1
 8004f50:	f7fb fdea 	bl	8000b28 <__aeabi_dcmpeq>
 8004f54:	2800      	cmp	r0, #0
 8004f56:	d09f      	beq.n	8004e98 <_dtoa_r+0x638>
 8004f58:	e7d1      	b.n	8004efe <_dtoa_r+0x69e>
 8004f5a:	9a09      	ldr	r2, [sp, #36]	@ 0x24
 8004f5c:	2a00      	cmp	r2, #0
 8004f5e:	f000 80ea 	beq.w	8005136 <_dtoa_r+0x8d6>
 8004f62:	9a07      	ldr	r2, [sp, #28]
 8004f64:	2a01      	cmp	r2, #1
 8004f66:	f300 80cd 	bgt.w	8005104 <_dtoa_r+0x8a4>
 8004f6a:	9a12      	ldr	r2, [sp, #72]	@ 0x48
 8004f6c:	2a00      	cmp	r2, #0
 8004f6e:	f000 80c1 	beq.w	80050f4 <_dtoa_r+0x894>
 8004f72:	f203 4333 	addw	r3, r3, #1075	@ 0x433
 8004f76:	9c08      	ldr	r4, [sp, #32]
 8004f78:	9e00      	ldr	r6, [sp, #0]
 8004f7a:	9a00      	ldr	r2, [sp, #0]
 8004f7c:	441a      	add	r2, r3
 8004f7e:	9200      	str	r2, [sp, #0]
 8004f80:	9a06      	ldr	r2, [sp, #24]
 8004f82:	2101      	movs	r1, #1
 8004f84:	441a      	add	r2, r3
 8004f86:	4648      	mov	r0, r9
 8004f88:	9206      	str	r2, [sp, #24]
 8004f8a:	f001 fd1d 	bl	80069c8 <__i2b>
 8004f8e:	4605      	mov	r5, r0
 8004f90:	b166      	cbz	r6, 8004fac <_dtoa_r+0x74c>
 8004f92:	9b06      	ldr	r3, [sp, #24]
 8004f94:	2b00      	cmp	r3, #0
 8004f96:	dd09      	ble.n	8004fac <_dtoa_r+0x74c>
 8004f98:	42b3      	cmp	r3, r6
 8004f9a:	9a00      	ldr	r2, [sp, #0]
 8004f9c:	bfa8      	it	ge
 8004f9e:	4633      	movge	r3, r6
 8004fa0:	1ad2      	subs	r2, r2, r3
 8004fa2:	9200      	str	r2, [sp, #0]
 8004fa4:	9a06      	ldr	r2, [sp, #24]
 8004fa6:	1af6      	subs	r6, r6, r3
 8004fa8:	1ad3      	subs	r3, r2, r3
 8004faa:	9306      	str	r3, [sp, #24]
 8004fac:	9b08      	ldr	r3, [sp, #32]
 8004fae:	b30b      	cbz	r3, 8004ff4 <_dtoa_r+0x794>
 8004fb0:	9b09      	ldr	r3, [sp, #36]	@ 0x24
 8004fb2:	2b00      	cmp	r3, #0
 8004fb4:	f000 80c6 	beq.w	8005144 <_dtoa_r+0x8e4>
 8004fb8:	2c00      	cmp	r4, #0
 8004fba:	f000 80c0 	beq.w	800513e <_dtoa_r+0x8de>
 8004fbe:	4629      	mov	r1, r5
 8004fc0:	4622      	mov	r2, r4
 8004fc2:	4648      	mov	r0, r9
 8004fc4:	f001 fdb8 	bl	8006b38 <__pow5mult>
 8004fc8:	9a02      	ldr	r2, [sp, #8]
 8004fca:	4601      	mov	r1, r0
 8004fcc:	4605      	mov	r5, r0
 8004fce:	4648      	mov	r0, r9
 8004fd0:	f001 fd10 	bl	80069f4 <__multiply>
 8004fd4:	9902      	ldr	r1, [sp, #8]
 8004fd6:	4680      	mov	r8, r0
 8004fd8:	4648      	mov	r0, r9
 8004fda:	f001 fbf7 	bl	80067cc <_Bfree>
 8004fde:	9b08      	ldr	r3, [sp, #32]
 8004fe0:	1b1b      	subs	r3, r3, r4
 8004fe2:	9308      	str	r3, [sp, #32]
 8004fe4:	f000 80b1 	beq.w	800514a <_dtoa_r+0x8ea>
 8004fe8:	9a08      	ldr	r2, [sp, #32]
 8004fea:	4641      	mov	r1, r8
 8004fec:	4648      	mov	r0, r9
 8004fee:	f001 fda3 	bl	8006b38 <__pow5mult>
 8004ff2:	9002      	str	r0, [sp, #8]
 8004ff4:	2101      	movs	r1, #1
 8004ff6:	4648      	mov	r0, r9
 8004ff8:	f001 fce6 	bl	80069c8 <__i2b>
 8004ffc:	9b0d      	ldr	r3, [sp, #52]	@ 0x34
 8004ffe:	4604      	mov	r4, r0
 8005000:	2b00      	cmp	r3, #0
 8005002:	f000 81d8 	beq.w	80053b6 <_dtoa_r+0xb56>
 8005006:	461a      	mov	r2, r3
 8005008:	4601      	mov	r1, r0
 800500a:	4648      	mov	r0, r9
 800500c:	f001 fd94 	bl	8006b38 <__pow5mult>
 8005010:	9b07      	ldr	r3, [sp, #28]
 8005012:	2b01      	cmp	r3, #1
 8005014:	4604      	mov	r4, r0
 8005016:	f300 809f 	bgt.w	8005158 <_dtoa_r+0x8f8>
 800501a:	9b04      	ldr	r3, [sp, #16]
 800501c:	2b00      	cmp	r3, #0
 800501e:	f040 8097 	bne.w	8005150 <_dtoa_r+0x8f0>
 8005022:	9b05      	ldr	r3, [sp, #20]
 8005024:	f3c3 0313 	ubfx	r3, r3, #0, #20
 8005028:	2b00      	cmp	r3, #0
 800502a:	f040 8093 	bne.w	8005154 <_dtoa_r+0x8f4>
 800502e:	9b05      	ldr	r3, [sp, #20]
 8005030:	f023 4300 	bic.w	r3, r3, #2147483648	@ 0x80000000
 8005034:	0d1b      	lsrs	r3, r3, #20
 8005036:	051b      	lsls	r3, r3, #20
 8005038:	b133      	cbz	r3, 8005048 <_dtoa_r+0x7e8>
 800503a:	9b00      	ldr	r3, [sp, #0]
 800503c:	3301      	adds	r3, #1
 800503e:	9300      	str	r3, [sp, #0]
 8005040:	9b06      	ldr	r3, [sp, #24]
 8005042:	3301      	adds	r3, #1
 8005044:	9306      	str	r3, [sp, #24]
 8005046:	2301      	movs	r3, #1
 8005048:	9308      	str	r3, [sp, #32]
 800504a:	9b0d      	ldr	r3, [sp, #52]	@ 0x34
 800504c:	2b00      	cmp	r3, #0
 800504e:	f000 81b8 	beq.w	80053c2 <_dtoa_r+0xb62>
 8005052:	6923      	ldr	r3, [r4, #16]
 8005054:	eb04 0383 	add.w	r3, r4, r3, lsl #2
 8005058:	6918      	ldr	r0, [r3, #16]
 800505a:	f001 fc69 	bl	8006930 <__hi0bits>
 800505e:	f1c0 0020 	rsb	r0, r0, #32
 8005062:	9b06      	ldr	r3, [sp, #24]
 8005064:	4418      	add	r0, r3
 8005066:	f010 001f 	ands.w	r0, r0, #31
 800506a:	f000 8082 	beq.w	8005172 <_dtoa_r+0x912>
 800506e:	f1c0 0320 	rsb	r3, r0, #32
 8005072:	2b04      	cmp	r3, #4
 8005074:	dd73      	ble.n	800515e <_dtoa_r+0x8fe>
 8005076:	9b00      	ldr	r3, [sp, #0]
 8005078:	f1c0 001c 	rsb	r0, r0, #28
 800507c:	4403      	add	r3, r0
 800507e:	9300      	str	r3, [sp, #0]
 8005080:	9b06      	ldr	r3, [sp, #24]
 8005082:	4403      	add	r3, r0
 8005084:	4406      	add	r6, r0
 8005086:	9306      	str	r3, [sp, #24]
 8005088:	9b00      	ldr	r3, [sp, #0]
 800508a:	2b00      	cmp	r3, #0
 800508c:	dd05      	ble.n	800509a <_dtoa_r+0x83a>
 800508e:	9902      	ldr	r1, [sp, #8]
 8005090:	461a      	mov	r2, r3
 8005092:	4648      	mov	r0, r9
 8005094:	f001 fdaa 	bl	8006bec <__lshift>
 8005098:	9002      	str	r0, [sp, #8]
 800509a:	9b06      	ldr	r3, [sp, #24]
 800509c:	2b00      	cmp	r3, #0
 800509e:	dd05      	ble.n	80050ac <_dtoa_r+0x84c>
 80050a0:	4621      	mov	r1, r4
 80050a2:	461a      	mov	r2, r3
 80050a4:	4648      	mov	r0, r9
 80050a6:	f001 fda1 	bl	8006bec <__lshift>
 80050aa:	4604      	mov	r4, r0
 80050ac:	9b10      	ldr	r3, [sp, #64]	@ 0x40
 80050ae:	2b00      	cmp	r3, #0
 80050b0:	d061      	beq.n	8005176 <_dtoa_r+0x916>
 80050b2:	9802      	ldr	r0, [sp, #8]
 80050b4:	4621      	mov	r1, r4
 80050b6:	f001 fe05 	bl	8006cc4 <__mcmp>
 80050ba:	2800      	cmp	r0, #0
 80050bc:	da5b      	bge.n	8005176 <_dtoa_r+0x916>
 80050be:	2300      	movs	r3, #0
 80050c0:	9902      	ldr	r1, [sp, #8]
 80050c2:	220a      	movs	r2, #10
 80050c4:	4648      	mov	r0, r9
 80050c6:	f001 fba3 	bl	8006810 <__multadd>
 80050ca:	9b09      	ldr	r3, [sp, #36]	@ 0x24
 80050cc:	9002      	str	r0, [sp, #8]
 80050ce:	f107 38ff 	add.w	r8, r7, #4294967295	@ 0xffffffff
 80050d2:	2b00      	cmp	r3, #0
 80050d4:	f000 8177 	beq.w	80053c6 <_dtoa_r+0xb66>
 80050d8:	4629      	mov	r1, r5
 80050da:	2300      	movs	r3, #0
 80050dc:	220a      	movs	r2, #10
 80050de:	4648      	mov	r0, r9
 80050e0:	f001 fb96 	bl	8006810 <__multadd>
 80050e4:	f1bb 0f00 	cmp.w	fp, #0
 80050e8:	4605      	mov	r5, r0
 80050ea:	dc6f      	bgt.n	80051cc <_dtoa_r+0x96c>
 80050ec:	9b07      	ldr	r3, [sp, #28]
 80050ee:	2b02      	cmp	r3, #2
 80050f0:	dc49      	bgt.n	8005186 <_dtoa_r+0x926>
 80050f2:	e06b      	b.n	80051cc <_dtoa_r+0x96c>
 80050f4:	9b14      	ldr	r3, [sp, #80]	@ 0x50
 80050f6:	f1c3 0336 	rsb	r3, r3, #54	@ 0x36
 80050fa:	e73c      	b.n	8004f76 <_dtoa_r+0x716>
 80050fc:	3fe00000 	.word	0x3fe00000
 8005100:	40240000 	.word	0x40240000
 8005104:	9b03      	ldr	r3, [sp, #12]
 8005106:	1e5c      	subs	r4, r3, #1
 8005108:	9b08      	ldr	r3, [sp, #32]
 800510a:	42a3      	cmp	r3, r4
 800510c:	db09      	blt.n	8005122 <_dtoa_r+0x8c2>
 800510e:	1b1c      	subs	r4, r3, r4
 8005110:	9b03      	ldr	r3, [sp, #12]
 8005112:	2b00      	cmp	r3, #0
 8005114:	f6bf af30 	bge.w	8004f78 <_dtoa_r+0x718>
 8005118:	9b00      	ldr	r3, [sp, #0]
 800511a:	9a03      	ldr	r2, [sp, #12]
 800511c:	1a9e      	subs	r6, r3, r2
 800511e:	2300      	movs	r3, #0
 8005120:	e72b      	b.n	8004f7a <_dtoa_r+0x71a>
 8005122:	9b08      	ldr	r3, [sp, #32]
 8005124:	9a0d      	ldr	r2, [sp, #52]	@ 0x34
 8005126:	9408      	str	r4, [sp, #32]
 8005128:	1ae3      	subs	r3, r4, r3
 800512a:	441a      	add	r2, r3
 800512c:	9e00      	ldr	r6, [sp, #0]
 800512e:	9b03      	ldr	r3, [sp, #12]
 8005130:	920d      	str	r2, [sp, #52]	@ 0x34
 8005132:	2400      	movs	r4, #0
 8005134:	e721      	b.n	8004f7a <_dtoa_r+0x71a>
 8005136:	9c08      	ldr	r4, [sp, #32]
 8005138:	9e00      	ldr	r6, [sp, #0]
 800513a:	9d09      	ldr	r5, [sp, #36]	@ 0x24
 800513c:	e728      	b.n	8004f90 <_dtoa_r+0x730>
 800513e:	f8dd 8008 	ldr.w	r8, [sp, #8]
 8005142:	e751      	b.n	8004fe8 <_dtoa_r+0x788>
 8005144:	9a08      	ldr	r2, [sp, #32]
 8005146:	9902      	ldr	r1, [sp, #8]
 8005148:	e750      	b.n	8004fec <_dtoa_r+0x78c>
 800514a:	f8cd 8008 	str.w	r8, [sp, #8]
 800514e:	e751      	b.n	8004ff4 <_dtoa_r+0x794>
 8005150:	2300      	movs	r3, #0
 8005152:	e779      	b.n	8005048 <_dtoa_r+0x7e8>
 8005154:	9b04      	ldr	r3, [sp, #16]
 8005156:	e777      	b.n	8005048 <_dtoa_r+0x7e8>
 8005158:	2300      	movs	r3, #0
 800515a:	9308      	str	r3, [sp, #32]
 800515c:	e779      	b.n	8005052 <_dtoa_r+0x7f2>
 800515e:	d093      	beq.n	8005088 <_dtoa_r+0x828>
 8005160:	9a00      	ldr	r2, [sp, #0]
 8005162:	331c      	adds	r3, #28
 8005164:	441a      	add	r2, r3
 8005166:	9200      	str	r2, [sp, #0]
 8005168:	9a06      	ldr	r2, [sp, #24]
 800516a:	441a      	add	r2, r3
 800516c:	441e      	add	r6, r3
 800516e:	9206      	str	r2, [sp, #24]
 8005170:	e78a      	b.n	8005088 <_dtoa_r+0x828>
 8005172:	4603      	mov	r3, r0
 8005174:	e7f4      	b.n	8005160 <_dtoa_r+0x900>
 8005176:	9b03      	ldr	r3, [sp, #12]
 8005178:	2b00      	cmp	r3, #0
 800517a:	46b8      	mov	r8, r7
 800517c:	dc20      	bgt.n	80051c0 <_dtoa_r+0x960>
 800517e:	469b      	mov	fp, r3
 8005180:	9b07      	ldr	r3, [sp, #28]
 8005182:	2b02      	cmp	r3, #2
 8005184:	dd1e      	ble.n	80051c4 <_dtoa_r+0x964>
 8005186:	f1bb 0f00 	cmp.w	fp, #0
 800518a:	f47f adb1 	bne.w	8004cf0 <_dtoa_r+0x490>
 800518e:	4621      	mov	r1, r4
 8005190:	465b      	mov	r3, fp
 8005192:	2205      	movs	r2, #5
 8005194:	4648      	mov	r0, r9
 8005196:	f001 fb3b 	bl	8006810 <__multadd>
 800519a:	4601      	mov	r1, r0
 800519c:	4604      	mov	r4, r0
 800519e:	9802      	ldr	r0, [sp, #8]
 80051a0:	f001 fd90 	bl	8006cc4 <__mcmp>
 80051a4:	2800      	cmp	r0, #0
 80051a6:	f77f ada3 	ble.w	8004cf0 <_dtoa_r+0x490>
 80051aa:	4656      	mov	r6, sl
 80051ac:	2331      	movs	r3, #49	@ 0x31
 80051ae:	f806 3b01 	strb.w	r3, [r6], #1
 80051b2:	f108 0801 	add.w	r8, r8, #1
 80051b6:	e59f      	b.n	8004cf8 <_dtoa_r+0x498>
 80051b8:	9c03      	ldr	r4, [sp, #12]
 80051ba:	46b8      	mov	r8, r7
 80051bc:	4625      	mov	r5, r4
 80051be:	e7f4      	b.n	80051aa <_dtoa_r+0x94a>
 80051c0:	f8dd b00c 	ldr.w	fp, [sp, #12]
 80051c4:	9b09      	ldr	r3, [sp, #36]	@ 0x24
 80051c6:	2b00      	cmp	r3, #0
 80051c8:	f000 8101 	beq.w	80053ce <_dtoa_r+0xb6e>
 80051cc:	2e00      	cmp	r6, #0
 80051ce:	dd05      	ble.n	80051dc <_dtoa_r+0x97c>
 80051d0:	4629      	mov	r1, r5
 80051d2:	4632      	mov	r2, r6
 80051d4:	4648      	mov	r0, r9
 80051d6:	f001 fd09 	bl	8006bec <__lshift>
 80051da:	4605      	mov	r5, r0
 80051dc:	9b08      	ldr	r3, [sp, #32]
 80051de:	2b00      	cmp	r3, #0
 80051e0:	d05c      	beq.n	800529c <_dtoa_r+0xa3c>
 80051e2:	6869      	ldr	r1, [r5, #4]
 80051e4:	4648      	mov	r0, r9
 80051e6:	f001 fab1 	bl	800674c <_Balloc>
 80051ea:	4606      	mov	r6, r0
 80051ec:	b928      	cbnz	r0, 80051fa <_dtoa_r+0x99a>
 80051ee:	4b82      	ldr	r3, [pc, #520]	@ (80053f8 <_dtoa_r+0xb98>)
 80051f0:	4602      	mov	r2, r0
 80051f2:	f240 21ef 	movw	r1, #751	@ 0x2ef
 80051f6:	f7ff bb4a 	b.w	800488e <_dtoa_r+0x2e>
 80051fa:	692a      	ldr	r2, [r5, #16]
 80051fc:	3202      	adds	r2, #2
 80051fe:	0092      	lsls	r2, r2, #2
 8005200:	f105 010c 	add.w	r1, r5, #12
 8005204:	300c      	adds	r0, #12
 8005206:	f7ff fa85 	bl	8004714 <memcpy>
 800520a:	2201      	movs	r2, #1
 800520c:	4631      	mov	r1, r6
 800520e:	4648      	mov	r0, r9
 8005210:	f001 fcec 	bl	8006bec <__lshift>
 8005214:	f10a 0301 	add.w	r3, sl, #1
 8005218:	9300      	str	r3, [sp, #0]
 800521a:	eb0a 030b 	add.w	r3, sl, fp
 800521e:	9308      	str	r3, [sp, #32]
 8005220:	9b04      	ldr	r3, [sp, #16]
 8005222:	f003 0301 	and.w	r3, r3, #1
 8005226:	462f      	mov	r7, r5
 8005228:	9306      	str	r3, [sp, #24]
 800522a:	4605      	mov	r5, r0
 800522c:	9b00      	ldr	r3, [sp, #0]
 800522e:	9802      	ldr	r0, [sp, #8]
 8005230:	4621      	mov	r1, r4
 8005232:	f103 3bff 	add.w	fp, r3, #4294967295	@ 0xffffffff
 8005236:	f7ff fa89 	bl	800474c <quorem>
 800523a:	4603      	mov	r3, r0
 800523c:	3330      	adds	r3, #48	@ 0x30
 800523e:	9003      	str	r0, [sp, #12]
 8005240:	4639      	mov	r1, r7
 8005242:	9802      	ldr	r0, [sp, #8]
 8005244:	9309      	str	r3, [sp, #36]	@ 0x24
 8005246:	f001 fd3d 	bl	8006cc4 <__mcmp>
 800524a:	462a      	mov	r2, r5
 800524c:	9004      	str	r0, [sp, #16]
 800524e:	4621      	mov	r1, r4
 8005250:	4648      	mov	r0, r9
 8005252:	f001 fd53 	bl	8006cfc <__mdiff>
 8005256:	68c2      	ldr	r2, [r0, #12]
 8005258:	9b09      	ldr	r3, [sp, #36]	@ 0x24
 800525a:	4606      	mov	r6, r0
 800525c:	bb02      	cbnz	r2, 80052a0 <_dtoa_r+0xa40>
 800525e:	4601      	mov	r1, r0
 8005260:	9802      	ldr	r0, [sp, #8]
 8005262:	f001 fd2f 	bl	8006cc4 <__mcmp>
 8005266:	9b09      	ldr	r3, [sp, #36]	@ 0x24
 8005268:	4602      	mov	r2, r0
 800526a:	4631      	mov	r1, r6
 800526c:	4648      	mov	r0, r9
 800526e:	920c      	str	r2, [sp, #48]	@ 0x30
 8005270:	9309      	str	r3, [sp, #36]	@ 0x24
 8005272:	f001 faab 	bl	80067cc <_Bfree>
 8005276:	9b07      	ldr	r3, [sp, #28]
 8005278:	9a0c      	ldr	r2, [sp, #48]	@ 0x30
 800527a:	9e00      	ldr	r6, [sp, #0]
 800527c:	ea42 0103 	orr.w	r1, r2, r3
 8005280:	9b06      	ldr	r3, [sp, #24]
 8005282:	4319      	orrs	r1, r3
 8005284:	9b09      	ldr	r3, [sp, #36]	@ 0x24
 8005286:	d10d      	bne.n	80052a4 <_dtoa_r+0xa44>
 8005288:	2b39      	cmp	r3, #57	@ 0x39
 800528a:	d027      	beq.n	80052dc <_dtoa_r+0xa7c>
 800528c:	9a04      	ldr	r2, [sp, #16]
 800528e:	2a00      	cmp	r2, #0
 8005290:	dd01      	ble.n	8005296 <_dtoa_r+0xa36>
 8005292:	9b03      	ldr	r3, [sp, #12]
 8005294:	3331      	adds	r3, #49	@ 0x31
 8005296:	f88b 3000 	strb.w	r3, [fp]
 800529a:	e52e      	b.n	8004cfa <_dtoa_r+0x49a>
 800529c:	4628      	mov	r0, r5
 800529e:	e7b9      	b.n	8005214 <_dtoa_r+0x9b4>
 80052a0:	2201      	movs	r2, #1
 80052a2:	e7e2      	b.n	800526a <_dtoa_r+0xa0a>
 80052a4:	9904      	ldr	r1, [sp, #16]
 80052a6:	2900      	cmp	r1, #0
 80052a8:	db04      	blt.n	80052b4 <_dtoa_r+0xa54>
 80052aa:	9807      	ldr	r0, [sp, #28]
 80052ac:	4301      	orrs	r1, r0
 80052ae:	9806      	ldr	r0, [sp, #24]
 80052b0:	4301      	orrs	r1, r0
 80052b2:	d120      	bne.n	80052f6 <_dtoa_r+0xa96>
 80052b4:	2a00      	cmp	r2, #0
 80052b6:	ddee      	ble.n	8005296 <_dtoa_r+0xa36>
 80052b8:	9902      	ldr	r1, [sp, #8]
 80052ba:	9300      	str	r3, [sp, #0]
 80052bc:	2201      	movs	r2, #1
 80052be:	4648      	mov	r0, r9
 80052c0:	f001 fc94 	bl	8006bec <__lshift>
 80052c4:	4621      	mov	r1, r4
 80052c6:	9002      	str	r0, [sp, #8]
 80052c8:	f001 fcfc 	bl	8006cc4 <__mcmp>
 80052cc:	2800      	cmp	r0, #0
 80052ce:	9b00      	ldr	r3, [sp, #0]
 80052d0:	dc02      	bgt.n	80052d8 <_dtoa_r+0xa78>
 80052d2:	d1e0      	bne.n	8005296 <_dtoa_r+0xa36>
 80052d4:	07da      	lsls	r2, r3, #31
 80052d6:	d5de      	bpl.n	8005296 <_dtoa_r+0xa36>
 80052d8:	2b39      	cmp	r3, #57	@ 0x39
 80052da:	d1da      	bne.n	8005292 <_dtoa_r+0xa32>
 80052dc:	2339      	movs	r3, #57	@ 0x39
 80052de:	f88b 3000 	strb.w	r3, [fp]
 80052e2:	4633      	mov	r3, r6
 80052e4:	461e      	mov	r6, r3
 80052e6:	3b01      	subs	r3, #1
 80052e8:	f816 2c01 	ldrb.w	r2, [r6, #-1]
 80052ec:	2a39      	cmp	r2, #57	@ 0x39
 80052ee:	d04e      	beq.n	800538e <_dtoa_r+0xb2e>
 80052f0:	3201      	adds	r2, #1
 80052f2:	701a      	strb	r2, [r3, #0]
 80052f4:	e501      	b.n	8004cfa <_dtoa_r+0x49a>
 80052f6:	2a00      	cmp	r2, #0
 80052f8:	dd03      	ble.n	8005302 <_dtoa_r+0xaa2>
 80052fa:	2b39      	cmp	r3, #57	@ 0x39
 80052fc:	d0ee      	beq.n	80052dc <_dtoa_r+0xa7c>
 80052fe:	3301      	adds	r3, #1
 8005300:	e7c9      	b.n	8005296 <_dtoa_r+0xa36>
 8005302:	9a00      	ldr	r2, [sp, #0]
 8005304:	9908      	ldr	r1, [sp, #32]
 8005306:	f802 3c01 	strb.w	r3, [r2, #-1]
 800530a:	428a      	cmp	r2, r1
 800530c:	d028      	beq.n	8005360 <_dtoa_r+0xb00>
 800530e:	9902      	ldr	r1, [sp, #8]
 8005310:	2300      	movs	r3, #0
 8005312:	220a      	movs	r2, #10
 8005314:	4648      	mov	r0, r9
 8005316:	f001 fa7b 	bl	8006810 <__multadd>
 800531a:	42af      	cmp	r7, r5
 800531c:	9002      	str	r0, [sp, #8]
 800531e:	f04f 0300 	mov.w	r3, #0
 8005322:	f04f 020a 	mov.w	r2, #10
 8005326:	4639      	mov	r1, r7
 8005328:	4648      	mov	r0, r9
 800532a:	d107      	bne.n	800533c <_dtoa_r+0xadc>
 800532c:	f001 fa70 	bl	8006810 <__multadd>
 8005330:	4607      	mov	r7, r0
 8005332:	4605      	mov	r5, r0
 8005334:	9b00      	ldr	r3, [sp, #0]
 8005336:	3301      	adds	r3, #1
 8005338:	9300      	str	r3, [sp, #0]
 800533a:	e777      	b.n	800522c <_dtoa_r+0x9cc>
 800533c:	f001 fa68 	bl	8006810 <__multadd>
 8005340:	4629      	mov	r1, r5
 8005342:	4607      	mov	r7, r0
 8005344:	2300      	movs	r3, #0
 8005346:	220a      	movs	r2, #10
 8005348:	4648      	mov	r0, r9
 800534a:	f001 fa61 	bl	8006810 <__multadd>
 800534e:	4605      	mov	r5, r0
 8005350:	e7f0      	b.n	8005334 <_dtoa_r+0xad4>
 8005352:	f1bb 0f00 	cmp.w	fp, #0
 8005356:	bfcc      	ite	gt
 8005358:	465e      	movgt	r6, fp
 800535a:	2601      	movle	r6, #1
 800535c:	4456      	add	r6, sl
 800535e:	2700      	movs	r7, #0
 8005360:	9902      	ldr	r1, [sp, #8]
 8005362:	9300      	str	r3, [sp, #0]
 8005364:	2201      	movs	r2, #1
 8005366:	4648      	mov	r0, r9
 8005368:	f001 fc40 	bl	8006bec <__lshift>
 800536c:	4621      	mov	r1, r4
 800536e:	9002      	str	r0, [sp, #8]
 8005370:	f001 fca8 	bl	8006cc4 <__mcmp>
 8005374:	2800      	cmp	r0, #0
 8005376:	dcb4      	bgt.n	80052e2 <_dtoa_r+0xa82>
 8005378:	d102      	bne.n	8005380 <_dtoa_r+0xb20>
 800537a:	9b00      	ldr	r3, [sp, #0]
 800537c:	07db      	lsls	r3, r3, #31
 800537e:	d4b0      	bmi.n	80052e2 <_dtoa_r+0xa82>
 8005380:	4633      	mov	r3, r6
 8005382:	461e      	mov	r6, r3
 8005384:	f813 2d01 	ldrb.w	r2, [r3, #-1]!
 8005388:	2a30      	cmp	r2, #48	@ 0x30
 800538a:	d0fa      	beq.n	8005382 <_dtoa_r+0xb22>
 800538c:	e4b5      	b.n	8004cfa <_dtoa_r+0x49a>
 800538e:	459a      	cmp	sl, r3
 8005390:	d1a8      	bne.n	80052e4 <_dtoa_r+0xa84>
 8005392:	2331      	movs	r3, #49	@ 0x31
 8005394:	f108 0801 	add.w	r8, r8, #1
 8005398:	f88a 3000 	strb.w	r3, [sl]
 800539c:	e4ad      	b.n	8004cfa <_dtoa_r+0x49a>
 800539e:	9b21      	ldr	r3, [sp, #132]	@ 0x84
 80053a0:	f8df a058 	ldr.w	sl, [pc, #88]	@ 80053fc <_dtoa_r+0xb9c>
 80053a4:	b11b      	cbz	r3, 80053ae <_dtoa_r+0xb4e>
 80053a6:	f10a 0308 	add.w	r3, sl, #8
 80053aa:	9a21      	ldr	r2, [sp, #132]	@ 0x84
 80053ac:	6013      	str	r3, [r2, #0]
 80053ae:	4650      	mov	r0, sl
 80053b0:	b017      	add	sp, #92	@ 0x5c
 80053b2:	e8bd 8ff0 	ldmia.w	sp!, {r4, r5, r6, r7, r8, r9, sl, fp, pc}
 80053b6:	9b07      	ldr	r3, [sp, #28]
 80053b8:	2b01      	cmp	r3, #1
 80053ba:	f77f ae2e 	ble.w	800501a <_dtoa_r+0x7ba>
 80053be:	9b0d      	ldr	r3, [sp, #52]	@ 0x34
 80053c0:	9308      	str	r3, [sp, #32]
 80053c2:	2001      	movs	r0, #1
 80053c4:	e64d      	b.n	8005062 <_dtoa_r+0x802>
 80053c6:	f1bb 0f00 	cmp.w	fp, #0
 80053ca:	f77f aed9 	ble.w	8005180 <_dtoa_r+0x920>
 80053ce:	4656      	mov	r6, sl
 80053d0:	9802      	ldr	r0, [sp, #8]
 80053d2:	4621      	mov	r1, r4
 80053d4:	f7ff f9ba 	bl	800474c <quorem>
 80053d8:	f100 0330 	add.w	r3, r0, #48	@ 0x30
 80053dc:	f806 3b01 	strb.w	r3, [r6], #1
 80053e0:	eba6 020a 	sub.w	r2, r6, sl
 80053e4:	4593      	cmp	fp, r2
 80053e6:	ddb4      	ble.n	8005352 <_dtoa_r+0xaf2>
 80053e8:	9902      	ldr	r1, [sp, #8]
 80053ea:	2300      	movs	r3, #0
 80053ec:	220a      	movs	r2, #10
 80053ee:	4648      	mov	r0, r9
 80053f0:	f001 fa0e 	bl	8006810 <__multadd>
 80053f4:	9002      	str	r0, [sp, #8]
 80053f6:	e7eb      	b.n	80053d0 <_dtoa_r+0xb70>
 80053f8:	08007dd7 	.word	0x08007dd7
 80053fc:	08007d5b 	.word	0x08007d5b

08005400 <_free_r>:
 8005400:	b538      	push	{r3, r4, r5, lr}
 8005402:	4605      	mov	r5, r0
 8005404:	2900      	cmp	r1, #0
 8005406:	d041      	beq.n	800548c <_free_r+0x8c>
 8005408:	f851 3c04 	ldr.w	r3, [r1, #-4]
 800540c:	1f0c      	subs	r4, r1, #4
 800540e:	2b00      	cmp	r3, #0
 8005410:	bfb8      	it	lt
 8005412:	18e4      	addlt	r4, r4, r3
 8005414:	f001 f98e 	bl	8006734 <__malloc_lock>
 8005418:	4a1d      	ldr	r2, [pc, #116]	@ (8005490 <_free_r+0x90>)
 800541a:	6813      	ldr	r3, [r2, #0]
 800541c:	b933      	cbnz	r3, 800542c <_free_r+0x2c>
 800541e:	6063      	str	r3, [r4, #4]
 8005420:	6014      	str	r4, [r2, #0]
 8005422:	4628      	mov	r0, r5
 8005424:	e8bd 4038 	ldmia.w	sp!, {r3, r4, r5, lr}
 8005428:	f001 b98a 	b.w	8006740 <__malloc_unlock>
 800542c:	42a3      	cmp	r3, r4
 800542e:	d908      	bls.n	8005442 <_free_r+0x42>
 8005430:	6820      	ldr	r0, [r4, #0]
 8005432:	1821      	adds	r1, r4, r0
 8005434:	428b      	cmp	r3, r1
 8005436:	bf01      	itttt	eq
 8005438:	6819      	ldreq	r1, [r3, #0]
 800543a:	685b      	ldreq	r3, [r3, #4]
 800543c:	1809      	addeq	r1, r1, r0
 800543e:	6021      	streq	r1, [r4, #0]
 8005440:	e7ed      	b.n	800541e <_free_r+0x1e>
 8005442:	461a      	mov	r2, r3
 8005444:	685b      	ldr	r3, [r3, #4]
 8005446:	b10b      	cbz	r3, 800544c <_free_r+0x4c>
 8005448:	42a3      	cmp	r3, r4
 800544a:	d9fa      	bls.n	8005442 <_free_r+0x42>
 800544c:	6811      	ldr	r1, [r2, #0]
 800544e:	1850      	adds	r0, r2, r1
 8005450:	42a0      	cmp	r0, r4
 8005452:	d10b      	bne.n	800546c <_free_r+0x6c>
 8005454:	6820      	ldr	r0, [r4, #0]
 8005456:	4401      	add	r1, r0
 8005458:	1850      	adds	r0, r2, r1
 800545a:	4283      	cmp	r3, r0
 800545c:	6011      	str	r1, [r2, #0]
 800545e:	d1e0      	bne.n	8005422 <_free_r+0x22>
 8005460:	6818      	ldr	r0, [r3, #0]
 8005462:	685b      	ldr	r3, [r3, #4]
 8005464:	6053      	str	r3, [r2, #4]
 8005466:	4408      	add	r0, r1
 8005468:	6010      	str	r0, [r2, #0]
 800546a:	e7da      	b.n	8005422 <_free_r+0x22>
 800546c:	d902      	bls.n	8005474 <_free_r+0x74>
 800546e:	230c      	movs	r3, #12
 8005470:	602b      	str	r3, [r5, #0]
 8005472:	e7d6      	b.n	8005422 <_free_r+0x22>
 8005474:	6820      	ldr	r0, [r4, #0]
 8005476:	1821      	adds	r1, r4, r0
 8005478:	428b      	cmp	r3, r1
 800547a:	bf04      	itt	eq
 800547c:	6819      	ldreq	r1, [r3, #0]
 800547e:	685b      	ldreq	r3, [r3, #4]
 8005480:	6063      	str	r3, [r4, #4]
 8005482:	bf04      	itt	eq
 8005484:	1809      	addeq	r1, r1, r0
 8005486:	6021      	streq	r1, [r4, #0]
 8005488:	6054      	str	r4, [r2, #4]
 800548a:	e7ca      	b.n	8005422 <_free_r+0x22>
 800548c:	bd38      	pop	{r3, r4, r5, pc}
 800548e:	bf00      	nop
 8005490:	20000484 	.word	0x20000484

08005494 <rshift>:
 8005494:	6903      	ldr	r3, [r0, #16]
 8005496:	ebb3 1f61 	cmp.w	r3, r1, asr #5
 800549a:	e92d 43f0 	stmdb	sp!, {r4, r5, r6, r7, r8, r9, lr}
 800549e:	ea4f 1261 	mov.w	r2, r1, asr #5
 80054a2:	f100 0414 	add.w	r4, r0, #20
 80054a6:	dd45      	ble.n	8005534 <rshift+0xa0>
 80054a8:	f011 011f 	ands.w	r1, r1, #31
 80054ac:	eb04 0683 	add.w	r6, r4, r3, lsl #2
 80054b0:	eb04 0582 	add.w	r5, r4, r2, lsl #2
 80054b4:	d10c      	bne.n	80054d0 <rshift+0x3c>
 80054b6:	f100 0710 	add.w	r7, r0, #16
 80054ba:	4629      	mov	r1, r5
 80054bc:	42b1      	cmp	r1, r6
 80054be:	d334      	bcc.n	800552a <rshift+0x96>
 80054c0:	1a9b      	subs	r3, r3, r2
 80054c2:	009b      	lsls	r3, r3, #2
 80054c4:	1eea      	subs	r2, r5, #3
 80054c6:	4296      	cmp	r6, r2
 80054c8:	bf38      	it	cc
 80054ca:	2300      	movcc	r3, #0
 80054cc:	4423      	add	r3, r4
 80054ce:	e015      	b.n	80054fc <rshift+0x68>
 80054d0:	f854 7022 	ldr.w	r7, [r4, r2, lsl #2]
 80054d4:	f1c1 0820 	rsb	r8, r1, #32
 80054d8:	40cf      	lsrs	r7, r1
 80054da:	f105 0e04 	add.w	lr, r5, #4
 80054de:	46a1      	mov	r9, r4
 80054e0:	4576      	cmp	r6, lr
 80054e2:	46f4      	mov	ip, lr
 80054e4:	d815      	bhi.n	8005512 <rshift+0x7e>
 80054e6:	1a9a      	subs	r2, r3, r2
 80054e8:	0092      	lsls	r2, r2, #2
 80054ea:	3a04      	subs	r2, #4
 80054ec:	3501      	adds	r5, #1
 80054ee:	42ae      	cmp	r6, r5
 80054f0:	bf38      	it	cc
 80054f2:	2200      	movcc	r2, #0
 80054f4:	18a3      	adds	r3, r4, r2
 80054f6:	50a7      	str	r7, [r4, r2]
 80054f8:	b107      	cbz	r7, 80054fc <rshift+0x68>
 80054fa:	3304      	adds	r3, #4
 80054fc:	1b1a      	subs	r2, r3, r4
 80054fe:	42a3      	cmp	r3, r4
 8005500:	ea4f 02a2 	mov.w	r2, r2, asr #2
 8005504:	bf08      	it	eq
 8005506:	2300      	moveq	r3, #0
 8005508:	6102      	str	r2, [r0, #16]
 800550a:	bf08      	it	eq
 800550c:	6143      	streq	r3, [r0, #20]
 800550e:	e8bd 83f0 	ldmia.w	sp!, {r4, r5, r6, r7, r8, r9, pc}
 8005512:	f8dc c000 	ldr.w	ip, [ip]
 8005516:	fa0c fc08 	lsl.w	ip, ip, r8
 800551a:	ea4c 0707 	orr.w	r7, ip, r7
 800551e:	f849 7b04 	str.w	r7, [r9], #4
 8005522:	f85e 7b04 	ldr.w	r7, [lr], #4
 8005526:	40cf      	lsrs	r7, r1
 8005528:	e7da      	b.n	80054e0 <rshift+0x4c>
 800552a:	f851 cb04 	ldr.w	ip, [r1], #4
 800552e:	f847 cf04 	str.w	ip, [r7, #4]!
 8005532:	e7c3      	b.n	80054bc <rshift+0x28>
 8005534:	4623      	mov	r3, r4
 8005536:	e7e1      	b.n	80054fc <rshift+0x68>

08005538 <__hexdig_fun>:
 8005538:	f1a0 0330 	sub.w	r3, r0, #48	@ 0x30
 800553c:	2b09      	cmp	r3, #9
 800553e:	d802      	bhi.n	8005546 <__hexdig_fun+0xe>
 8005540:	3820      	subs	r0, #32
 8005542:	b2c0      	uxtb	r0, r0
 8005544:	4770      	bx	lr
 8005546:	f1a0 0361 	sub.w	r3, r0, #97	@ 0x61
 800554a:	2b05      	cmp	r3, #5
 800554c:	d801      	bhi.n	8005552 <__hexdig_fun+0x1a>
 800554e:	3847      	subs	r0, #71	@ 0x47
 8005550:	e7f7      	b.n	8005542 <__hexdig_fun+0xa>
 8005552:	f1a0 0341 	sub.w	r3, r0, #65	@ 0x41
 8005556:	2b05      	cmp	r3, #5
 8005558:	d801      	bhi.n	800555e <__hexdig_fun+0x26>
 800555a:	3827      	subs	r0, #39	@ 0x27
 800555c:	e7f1      	b.n	8005542 <__hexdig_fun+0xa>
 800555e:	2000      	movs	r0, #0
 8005560:	4770      	bx	lr
	...

08005564 <__gethex>:
 8005564:	e92d 4ff0 	stmdb	sp!, {r4, r5, r6, r7, r8, r9, sl, fp, lr}
 8005568:	b085      	sub	sp, #20
 800556a:	468a      	mov	sl, r1
 800556c:	9302      	str	r3, [sp, #8]
 800556e:	680b      	ldr	r3, [r1, #0]
 8005570:	9001      	str	r0, [sp, #4]
 8005572:	4690      	mov	r8, r2
 8005574:	1c9c      	adds	r4, r3, #2
 8005576:	46a1      	mov	r9, r4
 8005578:	f814 0b01 	ldrb.w	r0, [r4], #1
 800557c:	2830      	cmp	r0, #48	@ 0x30
 800557e:	d0fa      	beq.n	8005576 <__gethex+0x12>
 8005580:	eba9 0303 	sub.w	r3, r9, r3
 8005584:	f1a3 0b02 	sub.w	fp, r3, #2
 8005588:	f7ff ffd6 	bl	8005538 <__hexdig_fun>
 800558c:	4605      	mov	r5, r0
 800558e:	2800      	cmp	r0, #0
 8005590:	d168      	bne.n	8005664 <__gethex+0x100>
 8005592:	49a0      	ldr	r1, [pc, #640]	@ (8005814 <__gethex+0x2b0>)
 8005594:	2201      	movs	r2, #1
 8005596:	4648      	mov	r0, r9
 8005598:	f7ff f832 	bl	8004600 <strncmp>
 800559c:	4607      	mov	r7, r0
 800559e:	2800      	cmp	r0, #0
 80055a0:	d167      	bne.n	8005672 <__gethex+0x10e>
 80055a2:	f899 0001 	ldrb.w	r0, [r9, #1]
 80055a6:	4626      	mov	r6, r4
 80055a8:	f7ff ffc6 	bl	8005538 <__hexdig_fun>
 80055ac:	2800      	cmp	r0, #0
 80055ae:	d062      	beq.n	8005676 <__gethex+0x112>
 80055b0:	4623      	mov	r3, r4
 80055b2:	7818      	ldrb	r0, [r3, #0]
 80055b4:	2830      	cmp	r0, #48	@ 0x30
 80055b6:	4699      	mov	r9, r3
 80055b8:	f103 0301 	add.w	r3, r3, #1
 80055bc:	d0f9      	beq.n	80055b2 <__gethex+0x4e>
 80055be:	f7ff ffbb 	bl	8005538 <__hexdig_fun>
 80055c2:	fab0 f580 	clz	r5, r0
 80055c6:	096d      	lsrs	r5, r5, #5
 80055c8:	f04f 0b01 	mov.w	fp, #1
 80055cc:	464a      	mov	r2, r9
 80055ce:	4616      	mov	r6, r2
 80055d0:	3201      	adds	r2, #1
 80055d2:	7830      	ldrb	r0, [r6, #0]
 80055d4:	f7ff ffb0 	bl	8005538 <__hexdig_fun>
 80055d8:	2800      	cmp	r0, #0
 80055da:	d1f8      	bne.n	80055ce <__gethex+0x6a>
 80055dc:	498d      	ldr	r1, [pc, #564]	@ (8005814 <__gethex+0x2b0>)
 80055de:	2201      	movs	r2, #1
 80055e0:	4630      	mov	r0, r6
 80055e2:	f7ff f80d 	bl	8004600 <strncmp>
 80055e6:	2800      	cmp	r0, #0
 80055e8:	d13f      	bne.n	800566a <__gethex+0x106>
 80055ea:	b944      	cbnz	r4, 80055fe <__gethex+0x9a>
 80055ec:	1c74      	adds	r4, r6, #1
 80055ee:	4622      	mov	r2, r4
 80055f0:	4616      	mov	r6, r2
 80055f2:	3201      	adds	r2, #1
 80055f4:	7830      	ldrb	r0, [r6, #0]
 80055f6:	f7ff ff9f 	bl	8005538 <__hexdig_fun>
 80055fa:	2800      	cmp	r0, #0
 80055fc:	d1f8      	bne.n	80055f0 <__gethex+0x8c>
 80055fe:	1ba4      	subs	r4, r4, r6
 8005600:	00a7      	lsls	r7, r4, #2
 8005602:	7833      	ldrb	r3, [r6, #0]
 8005604:	f003 03df 	and.w	r3, r3, #223	@ 0xdf
 8005608:	2b50      	cmp	r3, #80	@ 0x50
 800560a:	d13e      	bne.n	800568a <__gethex+0x126>
 800560c:	7873      	ldrb	r3, [r6, #1]
 800560e:	2b2b      	cmp	r3, #43	@ 0x2b
 8005610:	d033      	beq.n	800567a <__gethex+0x116>
 8005612:	2b2d      	cmp	r3, #45	@ 0x2d
 8005614:	d034      	beq.n	8005680 <__gethex+0x11c>
 8005616:	1c71      	adds	r1, r6, #1
 8005618:	2400      	movs	r4, #0
 800561a:	7808      	ldrb	r0, [r1, #0]
 800561c:	f7ff ff8c 	bl	8005538 <__hexdig_fun>
 8005620:	1e43      	subs	r3, r0, #1
 8005622:	b2db      	uxtb	r3, r3
 8005624:	2b18      	cmp	r3, #24
 8005626:	d830      	bhi.n	800568a <__gethex+0x126>
 8005628:	f1a0 0210 	sub.w	r2, r0, #16
 800562c:	f811 0f01 	ldrb.w	r0, [r1, #1]!
 8005630:	f7ff ff82 	bl	8005538 <__hexdig_fun>
 8005634:	f100 3cff 	add.w	ip, r0, #4294967295	@ 0xffffffff
 8005638:	fa5f fc8c 	uxtb.w	ip, ip
 800563c:	f1bc 0f18 	cmp.w	ip, #24
 8005640:	f04f 030a 	mov.w	r3, #10
 8005644:	d91e      	bls.n	8005684 <__gethex+0x120>
 8005646:	b104      	cbz	r4, 800564a <__gethex+0xe6>
 8005648:	4252      	negs	r2, r2
 800564a:	4417      	add	r7, r2
 800564c:	f8ca 1000 	str.w	r1, [sl]
 8005650:	b1ed      	cbz	r5, 800568e <__gethex+0x12a>
 8005652:	f1bb 0f00 	cmp.w	fp, #0
 8005656:	bf0c      	ite	eq
 8005658:	2506      	moveq	r5, #6
 800565a:	2500      	movne	r5, #0
 800565c:	4628      	mov	r0, r5
 800565e:	b005      	add	sp, #20
 8005660:	e8bd 8ff0 	ldmia.w	sp!, {r4, r5, r6, r7, r8, r9, sl, fp, pc}
 8005664:	2500      	movs	r5, #0
 8005666:	462c      	mov	r4, r5
 8005668:	e7b0      	b.n	80055cc <__gethex+0x68>
 800566a:	2c00      	cmp	r4, #0
 800566c:	d1c7      	bne.n	80055fe <__gethex+0x9a>
 800566e:	4627      	mov	r7, r4
 8005670:	e7c7      	b.n	8005602 <__gethex+0x9e>
 8005672:	464e      	mov	r6, r9
 8005674:	462f      	mov	r7, r5
 8005676:	2501      	movs	r5, #1
 8005678:	e7c3      	b.n	8005602 <__gethex+0x9e>
 800567a:	2400      	movs	r4, #0
 800567c:	1cb1      	adds	r1, r6, #2
 800567e:	e7cc      	b.n	800561a <__gethex+0xb6>
 8005680:	2401      	movs	r4, #1
 8005682:	e7fb      	b.n	800567c <__gethex+0x118>
 8005684:	fb03 0002 	mla	r0, r3, r2, r0
 8005688:	e7ce      	b.n	8005628 <__gethex+0xc4>
 800568a:	4631      	mov	r1, r6
 800568c:	e7de      	b.n	800564c <__gethex+0xe8>
 800568e:	eba6 0309 	sub.w	r3, r6, r9
 8005692:	3b01      	subs	r3, #1
 8005694:	4629      	mov	r1, r5
 8005696:	2b07      	cmp	r3, #7
 8005698:	dc0a      	bgt.n	80056b0 <__gethex+0x14c>
 800569a:	9801      	ldr	r0, [sp, #4]
 800569c:	f001 f856 	bl	800674c <_Balloc>
 80056a0:	4604      	mov	r4, r0
 80056a2:	b940      	cbnz	r0, 80056b6 <__gethex+0x152>
 80056a4:	4b5c      	ldr	r3, [pc, #368]	@ (8005818 <__gethex+0x2b4>)
 80056a6:	4602      	mov	r2, r0
 80056a8:	21e4      	movs	r1, #228	@ 0xe4
 80056aa:	485c      	ldr	r0, [pc, #368]	@ (800581c <__gethex+0x2b8>)
 80056ac:	f001 fe08 	bl	80072c0 <__assert_func>
 80056b0:	3101      	adds	r1, #1
 80056b2:	105b      	asrs	r3, r3, #1
 80056b4:	e7ef      	b.n	8005696 <__gethex+0x132>
 80056b6:	f100 0a14 	add.w	sl, r0, #20
 80056ba:	2300      	movs	r3, #0
 80056bc:	4655      	mov	r5, sl
 80056be:	469b      	mov	fp, r3
 80056c0:	45b1      	cmp	r9, r6
 80056c2:	d337      	bcc.n	8005734 <__gethex+0x1d0>
 80056c4:	f845 bb04 	str.w	fp, [r5], #4
 80056c8:	eba5 050a 	sub.w	r5, r5, sl
 80056cc:	10ad      	asrs	r5, r5, #2
 80056ce:	6125      	str	r5, [r4, #16]
 80056d0:	4658      	mov	r0, fp
 80056d2:	f001 f92d 	bl	8006930 <__hi0bits>
 80056d6:	016d      	lsls	r5, r5, #5
 80056d8:	f8d8 6000 	ldr.w	r6, [r8]
 80056dc:	1a2d      	subs	r5, r5, r0
 80056de:	42b5      	cmp	r5, r6
 80056e0:	dd54      	ble.n	800578c <__gethex+0x228>
 80056e2:	1bad      	subs	r5, r5, r6
 80056e4:	4629      	mov	r1, r5
 80056e6:	4620      	mov	r0, r4
 80056e8:	f001 fcb9 	bl	800705e <__any_on>
 80056ec:	4681      	mov	r9, r0
 80056ee:	b178      	cbz	r0, 8005710 <__gethex+0x1ac>
 80056f0:	1e6b      	subs	r3, r5, #1
 80056f2:	1159      	asrs	r1, r3, #5
 80056f4:	f003 021f 	and.w	r2, r3, #31
 80056f8:	f85a 1021 	ldr.w	r1, [sl, r1, lsl #2]
 80056fc:	f04f 0901 	mov.w	r9, #1
 8005700:	fa09 f202 	lsl.w	r2, r9, r2
 8005704:	420a      	tst	r2, r1
 8005706:	d003      	beq.n	8005710 <__gethex+0x1ac>
 8005708:	454b      	cmp	r3, r9
 800570a:	dc36      	bgt.n	800577a <__gethex+0x216>
 800570c:	f04f 0902 	mov.w	r9, #2
 8005710:	4629      	mov	r1, r5
 8005712:	4620      	mov	r0, r4
 8005714:	f7ff febe 	bl	8005494 <rshift>
 8005718:	442f      	add	r7, r5
 800571a:	f8d8 3008 	ldr.w	r3, [r8, #8]
 800571e:	42bb      	cmp	r3, r7
 8005720:	da42      	bge.n	80057a8 <__gethex+0x244>
 8005722:	9801      	ldr	r0, [sp, #4]
 8005724:	4621      	mov	r1, r4
 8005726:	f001 f851 	bl	80067cc <_Bfree>
 800572a:	9a0e      	ldr	r2, [sp, #56]	@ 0x38
 800572c:	2300      	movs	r3, #0
 800572e:	6013      	str	r3, [r2, #0]
 8005730:	25a3      	movs	r5, #163	@ 0xa3
 8005732:	e793      	b.n	800565c <__gethex+0xf8>
 8005734:	f816 2d01 	ldrb.w	r2, [r6, #-1]!
 8005738:	2a2e      	cmp	r2, #46	@ 0x2e
 800573a:	d012      	beq.n	8005762 <__gethex+0x1fe>
 800573c:	2b20      	cmp	r3, #32
 800573e:	d104      	bne.n	800574a <__gethex+0x1e6>
 8005740:	f845 bb04 	str.w	fp, [r5], #4
 8005744:	f04f 0b00 	mov.w	fp, #0
 8005748:	465b      	mov	r3, fp
 800574a:	7830      	ldrb	r0, [r6, #0]
 800574c:	9303      	str	r3, [sp, #12]
 800574e:	f7ff fef3 	bl	8005538 <__hexdig_fun>
 8005752:	9b03      	ldr	r3, [sp, #12]
 8005754:	f000 000f 	and.w	r0, r0, #15
 8005758:	4098      	lsls	r0, r3
 800575a:	ea4b 0b00 	orr.w	fp, fp, r0
 800575e:	3304      	adds	r3, #4
 8005760:	e7ae      	b.n	80056c0 <__gethex+0x15c>
 8005762:	45b1      	cmp	r9, r6
 8005764:	d8ea      	bhi.n	800573c <__gethex+0x1d8>
 8005766:	492b      	ldr	r1, [pc, #172]	@ (8005814 <__gethex+0x2b0>)
 8005768:	9303      	str	r3, [sp, #12]
 800576a:	2201      	movs	r2, #1
 800576c:	4630      	mov	r0, r6
 800576e:	f7fe ff47 	bl	8004600 <strncmp>
 8005772:	9b03      	ldr	r3, [sp, #12]
 8005774:	2800      	cmp	r0, #0
 8005776:	d1e1      	bne.n	800573c <__gethex+0x1d8>
 8005778:	e7a2      	b.n	80056c0 <__gethex+0x15c>
 800577a:	1ea9      	subs	r1, r5, #2
 800577c:	4620      	mov	r0, r4
 800577e:	f001 fc6e 	bl	800705e <__any_on>
 8005782:	2800      	cmp	r0, #0
 8005784:	d0c2      	beq.n	800570c <__gethex+0x1a8>
 8005786:	f04f 0903 	mov.w	r9, #3
 800578a:	e7c1      	b.n	8005710 <__gethex+0x1ac>
 800578c:	da09      	bge.n	80057a2 <__gethex+0x23e>
 800578e:	1b75      	subs	r5, r6, r5
 8005790:	4621      	mov	r1, r4
 8005792:	9801      	ldr	r0, [sp, #4]
 8005794:	462a      	mov	r2, r5
 8005796:	f001 fa29 	bl	8006bec <__lshift>
 800579a:	1b7f      	subs	r7, r7, r5
 800579c:	4604      	mov	r4, r0
 800579e:	f100 0a14 	add.w	sl, r0, #20
 80057a2:	f04f 0900 	mov.w	r9, #0
 80057a6:	e7b8      	b.n	800571a <__gethex+0x1b6>
 80057a8:	f8d8 5004 	ldr.w	r5, [r8, #4]
 80057ac:	42bd      	cmp	r5, r7
 80057ae:	dd6f      	ble.n	8005890 <__gethex+0x32c>
 80057b0:	1bed      	subs	r5, r5, r7
 80057b2:	42ae      	cmp	r6, r5
 80057b4:	dc34      	bgt.n	8005820 <__gethex+0x2bc>
 80057b6:	f8d8 300c 	ldr.w	r3, [r8, #12]
 80057ba:	2b02      	cmp	r3, #2
 80057bc:	d022      	beq.n	8005804 <__gethex+0x2a0>
 80057be:	2b03      	cmp	r3, #3
 80057c0:	d024      	beq.n	800580c <__gethex+0x2a8>
 80057c2:	2b01      	cmp	r3, #1
 80057c4:	d115      	bne.n	80057f2 <__gethex+0x28e>
 80057c6:	42ae      	cmp	r6, r5
 80057c8:	d113      	bne.n	80057f2 <__gethex+0x28e>
 80057ca:	2e01      	cmp	r6, #1
 80057cc:	d10b      	bne.n	80057e6 <__gethex+0x282>
 80057ce:	9a02      	ldr	r2, [sp, #8]
 80057d0:	f8d8 3004 	ldr.w	r3, [r8, #4]
 80057d4:	6013      	str	r3, [r2, #0]
 80057d6:	2301      	movs	r3, #1
 80057d8:	6123      	str	r3, [r4, #16]
 80057da:	f8ca 3000 	str.w	r3, [sl]
 80057de:	9b0e      	ldr	r3, [sp, #56]	@ 0x38
 80057e0:	2562      	movs	r5, #98	@ 0x62
 80057e2:	601c      	str	r4, [r3, #0]
 80057e4:	e73a      	b.n	800565c <__gethex+0xf8>
 80057e6:	1e71      	subs	r1, r6, #1
 80057e8:	4620      	mov	r0, r4
 80057ea:	f001 fc38 	bl	800705e <__any_on>
 80057ee:	2800      	cmp	r0, #0
 80057f0:	d1ed      	bne.n	80057ce <__gethex+0x26a>
 80057f2:	9801      	ldr	r0, [sp, #4]
 80057f4:	4621      	mov	r1, r4
 80057f6:	f000 ffe9 	bl	80067cc <_Bfree>
 80057fa:	9a0e      	ldr	r2, [sp, #56]	@ 0x38
 80057fc:	2300      	movs	r3, #0
 80057fe:	6013      	str	r3, [r2, #0]
 8005800:	2550      	movs	r5, #80	@ 0x50
 8005802:	e72b      	b.n	800565c <__gethex+0xf8>
 8005804:	9b0f      	ldr	r3, [sp, #60]	@ 0x3c
 8005806:	2b00      	cmp	r3, #0
 8005808:	d1f3      	bne.n	80057f2 <__gethex+0x28e>
 800580a:	e7e0      	b.n	80057ce <__gethex+0x26a>
 800580c:	9b0f      	ldr	r3, [sp, #60]	@ 0x3c
 800580e:	2b00      	cmp	r3, #0
 8005810:	d1dd      	bne.n	80057ce <__gethex+0x26a>
 8005812:	e7ee      	b.n	80057f2 <__gethex+0x28e>
 8005814:	08007d51 	.word	0x08007d51
 8005818:	08007dd7 	.word	0x08007dd7
 800581c:	08007de8 	.word	0x08007de8
 8005820:	1e6f      	subs	r7, r5, #1
 8005822:	f1b9 0f00 	cmp.w	r9, #0
 8005826:	d130      	bne.n	800588a <__gethex+0x326>
 8005828:	b127      	cbz	r7, 8005834 <__gethex+0x2d0>
 800582a:	4639      	mov	r1, r7
 800582c:	4620      	mov	r0, r4
 800582e:	f001 fc16 	bl	800705e <__any_on>
 8005832:	4681      	mov	r9, r0
 8005834:	117a      	asrs	r2, r7, #5
 8005836:	2301      	movs	r3, #1
 8005838:	f85a 2022 	ldr.w	r2, [sl, r2, lsl #2]
 800583c:	f007 071f 	and.w	r7, r7, #31
 8005840:	40bb      	lsls	r3, r7
 8005842:	4213      	tst	r3, r2
 8005844:	4629      	mov	r1, r5
 8005846:	4620      	mov	r0, r4
 8005848:	bf18      	it	ne
 800584a:	f049 0902 	orrne.w	r9, r9, #2
 800584e:	f7ff fe21 	bl	8005494 <rshift>
 8005852:	f8d8 7004 	ldr.w	r7, [r8, #4]
 8005856:	1b76      	subs	r6, r6, r5
 8005858:	2502      	movs	r5, #2
 800585a:	f1b9 0f00 	cmp.w	r9, #0
 800585e:	d047      	beq.n	80058f0 <__gethex+0x38c>
 8005860:	f8d8 300c 	ldr.w	r3, [r8, #12]
 8005864:	2b02      	cmp	r3, #2
 8005866:	d015      	beq.n	8005894 <__gethex+0x330>
 8005868:	2b03      	cmp	r3, #3
 800586a:	d017      	beq.n	800589c <__gethex+0x338>
 800586c:	2b01      	cmp	r3, #1
 800586e:	d109      	bne.n	8005884 <__gethex+0x320>
 8005870:	f019 0f02 	tst.w	r9, #2
 8005874:	d006      	beq.n	8005884 <__gethex+0x320>
 8005876:	f8da 3000 	ldr.w	r3, [sl]
 800587a:	ea49 0903 	orr.w	r9, r9, r3
 800587e:	f019 0f01 	tst.w	r9, #1
 8005882:	d10e      	bne.n	80058a2 <__gethex+0x33e>
 8005884:	f045 0510 	orr.w	r5, r5, #16
 8005888:	e032      	b.n	80058f0 <__gethex+0x38c>
 800588a:	f04f 0901 	mov.w	r9, #1
 800588e:	e7d1      	b.n	8005834 <__gethex+0x2d0>
 8005890:	2501      	movs	r5, #1
 8005892:	e7e2      	b.n	800585a <__gethex+0x2f6>
 8005894:	9b0f      	ldr	r3, [sp, #60]	@ 0x3c
 8005896:	f1c3 0301 	rsb	r3, r3, #1
 800589a:	930f      	str	r3, [sp, #60]	@ 0x3c
 800589c:	9b0f      	ldr	r3, [sp, #60]	@ 0x3c
 800589e:	2b00      	cmp	r3, #0
 80058a0:	d0f0      	beq.n	8005884 <__gethex+0x320>
 80058a2:	f8d4 b010 	ldr.w	fp, [r4, #16]
 80058a6:	f104 0314 	add.w	r3, r4, #20
 80058aa:	ea4f 0a8b 	mov.w	sl, fp, lsl #2
 80058ae:	eb03 018b 	add.w	r1, r3, fp, lsl #2
 80058b2:	f04f 0c00 	mov.w	ip, #0
 80058b6:	4618      	mov	r0, r3
 80058b8:	f853 2b04 	ldr.w	r2, [r3], #4
 80058bc:	f1b2 3fff 	cmp.w	r2, #4294967295	@ 0xffffffff
 80058c0:	d01b      	beq.n	80058fa <__gethex+0x396>
 80058c2:	3201      	adds	r2, #1
 80058c4:	6002      	str	r2, [r0, #0]
 80058c6:	2d02      	cmp	r5, #2
 80058c8:	f104 0314 	add.w	r3, r4, #20
 80058cc:	d13c      	bne.n	8005948 <__gethex+0x3e4>
 80058ce:	f8d8 2000 	ldr.w	r2, [r8]
 80058d2:	3a01      	subs	r2, #1
 80058d4:	42b2      	cmp	r2, r6
 80058d6:	d109      	bne.n	80058ec <__gethex+0x388>
 80058d8:	1171      	asrs	r1, r6, #5
 80058da:	2201      	movs	r2, #1
 80058dc:	f853 3021 	ldr.w	r3, [r3, r1, lsl #2]
 80058e0:	f006 061f 	and.w	r6, r6, #31
 80058e4:	fa02 f606 	lsl.w	r6, r2, r6
 80058e8:	421e      	tst	r6, r3
 80058ea:	d13a      	bne.n	8005962 <__gethex+0x3fe>
 80058ec:	f045 0520 	orr.w	r5, r5, #32
 80058f0:	9b0e      	ldr	r3, [sp, #56]	@ 0x38
 80058f2:	601c      	str	r4, [r3, #0]
 80058f4:	9b02      	ldr	r3, [sp, #8]
 80058f6:	601f      	str	r7, [r3, #0]
 80058f8:	e6b0      	b.n	800565c <__gethex+0xf8>
 80058fa:	4299      	cmp	r1, r3
 80058fc:	f843 cc04 	str.w	ip, [r3, #-4]
 8005900:	d8d9      	bhi.n	80058b6 <__gethex+0x352>
 8005902:	68a3      	ldr	r3, [r4, #8]
 8005904:	459b      	cmp	fp, r3
 8005906:	db17      	blt.n	8005938 <__gethex+0x3d4>
 8005908:	6861      	ldr	r1, [r4, #4]
 800590a:	9801      	ldr	r0, [sp, #4]
 800590c:	3101      	adds	r1, #1
 800590e:	f000 ff1d 	bl	800674c <_Balloc>
 8005912:	4681      	mov	r9, r0
 8005914:	b918      	cbnz	r0, 800591e <__gethex+0x3ba>
 8005916:	4b1a      	ldr	r3, [pc, #104]	@ (8005980 <__gethex+0x41c>)
 8005918:	4602      	mov	r2, r0
 800591a:	2184      	movs	r1, #132	@ 0x84
 800591c:	e6c5      	b.n	80056aa <__gethex+0x146>
 800591e:	6922      	ldr	r2, [r4, #16]
 8005920:	3202      	adds	r2, #2
 8005922:	f104 010c 	add.w	r1, r4, #12
 8005926:	0092      	lsls	r2, r2, #2
 8005928:	300c      	adds	r0, #12
 800592a:	f7fe fef3 	bl	8004714 <memcpy>
 800592e:	4621      	mov	r1, r4
 8005930:	9801      	ldr	r0, [sp, #4]
 8005932:	f000 ff4b 	bl	80067cc <_Bfree>
 8005936:	464c      	mov	r4, r9
 8005938:	6923      	ldr	r3, [r4, #16]
 800593a:	1c5a      	adds	r2, r3, #1
 800593c:	eb04 0383 	add.w	r3, r4, r3, lsl #2
 8005940:	6122      	str	r2, [r4, #16]
 8005942:	2201      	movs	r2, #1
 8005944:	615a      	str	r2, [r3, #20]
 8005946:	e7be      	b.n	80058c6 <__gethex+0x362>
 8005948:	6922      	ldr	r2, [r4, #16]
 800594a:	455a      	cmp	r2, fp
 800594c:	dd0b      	ble.n	8005966 <__gethex+0x402>
 800594e:	2101      	movs	r1, #1
 8005950:	4620      	mov	r0, r4
 8005952:	f7ff fd9f 	bl	8005494 <rshift>
 8005956:	f8d8 3008 	ldr.w	r3, [r8, #8]
 800595a:	3701      	adds	r7, #1
 800595c:	42bb      	cmp	r3, r7
 800595e:	f6ff aee0 	blt.w	8005722 <__gethex+0x1be>
 8005962:	2501      	movs	r5, #1
 8005964:	e7c2      	b.n	80058ec <__gethex+0x388>
 8005966:	f016 061f 	ands.w	r6, r6, #31
 800596a:	d0fa      	beq.n	8005962 <__gethex+0x3fe>
 800596c:	4453      	add	r3, sl
 800596e:	f1c6 0620 	rsb	r6, r6, #32
 8005972:	f853 0c04 	ldr.w	r0, [r3, #-4]
 8005976:	f000 ffdb 	bl	8006930 <__hi0bits>
 800597a:	42b0      	cmp	r0, r6
 800597c:	dbe7      	blt.n	800594e <__gethex+0x3ea>
 800597e:	e7f0      	b.n	8005962 <__gethex+0x3fe>
 8005980:	08007dd7 	.word	0x08007dd7

08005984 <L_shift>:
 8005984:	f1c2 0208 	rsb	r2, r2, #8
 8005988:	0092      	lsls	r2, r2, #2
 800598a:	b570      	push	{r4, r5, r6, lr}
 800598c:	f1c2 0620 	rsb	r6, r2, #32
 8005990:	6843      	ldr	r3, [r0, #4]
 8005992:	6804      	ldr	r4, [r0, #0]
 8005994:	fa03 f506 	lsl.w	r5, r3, r6
 8005998:	432c      	orrs	r4, r5
 800599a:	40d3      	lsrs	r3, r2
 800599c:	6004      	str	r4, [r0, #0]
 800599e:	f840 3f04 	str.w	r3, [r0, #4]!
 80059a2:	4288      	cmp	r0, r1
 80059a4:	d3f4      	bcc.n	8005990 <L_shift+0xc>
 80059a6:	bd70      	pop	{r4, r5, r6, pc}

080059a8 <__match>:
 80059a8:	b530      	push	{r4, r5, lr}
 80059aa:	6803      	ldr	r3, [r0, #0]
 80059ac:	3301      	adds	r3, #1
 80059ae:	f811 4b01 	ldrb.w	r4, [r1], #1
 80059b2:	b914      	cbnz	r4, 80059ba <__match+0x12>
 80059b4:	6003      	str	r3, [r0, #0]
 80059b6:	2001      	movs	r0, #1
 80059b8:	bd30      	pop	{r4, r5, pc}
 80059ba:	f813 2b01 	ldrb.w	r2, [r3], #1
 80059be:	f1a2 0541 	sub.w	r5, r2, #65	@ 0x41
 80059c2:	2d19      	cmp	r5, #25
 80059c4:	bf98      	it	ls
 80059c6:	3220      	addls	r2, #32
 80059c8:	42a2      	cmp	r2, r4
 80059ca:	d0f0      	beq.n	80059ae <__match+0x6>
 80059cc:	2000      	movs	r0, #0
 80059ce:	e7f3      	b.n	80059b8 <__match+0x10>

080059d0 <__hexnan>:
 80059d0:	e92d 4ff0 	stmdb	sp!, {r4, r5, r6, r7, r8, r9, sl, fp, lr}
 80059d4:	680b      	ldr	r3, [r1, #0]
 80059d6:	6801      	ldr	r1, [r0, #0]
 80059d8:	115e      	asrs	r6, r3, #5
 80059da:	eb02 0686 	add.w	r6, r2, r6, lsl #2
 80059de:	f013 031f 	ands.w	r3, r3, #31
 80059e2:	b087      	sub	sp, #28
 80059e4:	bf18      	it	ne
 80059e6:	3604      	addne	r6, #4
 80059e8:	2500      	movs	r5, #0
 80059ea:	1f37      	subs	r7, r6, #4
 80059ec:	4682      	mov	sl, r0
 80059ee:	4690      	mov	r8, r2
 80059f0:	9301      	str	r3, [sp, #4]
 80059f2:	f846 5c04 	str.w	r5, [r6, #-4]
 80059f6:	46b9      	mov	r9, r7
 80059f8:	463c      	mov	r4, r7
 80059fa:	9502      	str	r5, [sp, #8]
 80059fc:	46ab      	mov	fp, r5
 80059fe:	784a      	ldrb	r2, [r1, #1]
 8005a00:	1c4b      	adds	r3, r1, #1
 8005a02:	9303      	str	r3, [sp, #12]
 8005a04:	b342      	cbz	r2, 8005a58 <__hexnan+0x88>
 8005a06:	4610      	mov	r0, r2
 8005a08:	9105      	str	r1, [sp, #20]
 8005a0a:	9204      	str	r2, [sp, #16]
 8005a0c:	f7ff fd94 	bl	8005538 <__hexdig_fun>
 8005a10:	2800      	cmp	r0, #0
 8005a12:	d151      	bne.n	8005ab8 <__hexnan+0xe8>
 8005a14:	9a04      	ldr	r2, [sp, #16]
 8005a16:	9905      	ldr	r1, [sp, #20]
 8005a18:	2a20      	cmp	r2, #32
 8005a1a:	d818      	bhi.n	8005a4e <__hexnan+0x7e>
 8005a1c:	9b02      	ldr	r3, [sp, #8]
 8005a1e:	459b      	cmp	fp, r3
 8005a20:	dd13      	ble.n	8005a4a <__hexnan+0x7a>
 8005a22:	454c      	cmp	r4, r9
 8005a24:	d206      	bcs.n	8005a34 <__hexnan+0x64>
 8005a26:	2d07      	cmp	r5, #7
 8005a28:	dc04      	bgt.n	8005a34 <__hexnan+0x64>
 8005a2a:	462a      	mov	r2, r5
 8005a2c:	4649      	mov	r1, r9
 8005a2e:	4620      	mov	r0, r4
 8005a30:	f7ff ffa8 	bl	8005984 <L_shift>
 8005a34:	4544      	cmp	r4, r8
 8005a36:	d952      	bls.n	8005ade <__hexnan+0x10e>
 8005a38:	2300      	movs	r3, #0
 8005a3a:	f1a4 0904 	sub.w	r9, r4, #4
 8005a3e:	f844 3c04 	str.w	r3, [r4, #-4]
 8005a42:	f8cd b008 	str.w	fp, [sp, #8]
 8005a46:	464c      	mov	r4, r9
 8005a48:	461d      	mov	r5, r3
 8005a4a:	9903      	ldr	r1, [sp, #12]
 8005a4c:	e7d7      	b.n	80059fe <__hexnan+0x2e>
 8005a4e:	2a29      	cmp	r2, #41	@ 0x29
 8005a50:	d157      	bne.n	8005b02 <__hexnan+0x132>
 8005a52:	3102      	adds	r1, #2
 8005a54:	f8ca 1000 	str.w	r1, [sl]
 8005a58:	f1bb 0f00 	cmp.w	fp, #0
 8005a5c:	d051      	beq.n	8005b02 <__hexnan+0x132>
 8005a5e:	454c      	cmp	r4, r9
 8005a60:	d206      	bcs.n	8005a70 <__hexnan+0xa0>
 8005a62:	2d07      	cmp	r5, #7
 8005a64:	dc04      	bgt.n	8005a70 <__hexnan+0xa0>
 8005a66:	462a      	mov	r2, r5
 8005a68:	4649      	mov	r1, r9
 8005a6a:	4620      	mov	r0, r4
 8005a6c:	f7ff ff8a 	bl	8005984 <L_shift>
 8005a70:	4544      	cmp	r4, r8
 8005a72:	d936      	bls.n	8005ae2 <__hexnan+0x112>
 8005a74:	f1a8 0204 	sub.w	r2, r8, #4
 8005a78:	4623      	mov	r3, r4
 8005a7a:	f853 1b04 	ldr.w	r1, [r3], #4
 8005a7e:	f842 1f04 	str.w	r1, [r2, #4]!
 8005a82:	429f      	cmp	r7, r3
 8005a84:	d2f9      	bcs.n	8005a7a <__hexnan+0xaa>
 8005a86:	1b3b      	subs	r3, r7, r4
 8005a88:	f023 0303 	bic.w	r3, r3, #3
 8005a8c:	3304      	adds	r3, #4
 8005a8e:	3401      	adds	r4, #1
 8005a90:	3e03      	subs	r6, #3
 8005a92:	42b4      	cmp	r4, r6
 8005a94:	bf88      	it	hi
 8005a96:	2304      	movhi	r3, #4
 8005a98:	4443      	add	r3, r8
 8005a9a:	2200      	movs	r2, #0
 8005a9c:	f843 2b04 	str.w	r2, [r3], #4
 8005aa0:	429f      	cmp	r7, r3
 8005aa2:	d2fb      	bcs.n	8005a9c <__hexnan+0xcc>
 8005aa4:	683b      	ldr	r3, [r7, #0]
 8005aa6:	b91b      	cbnz	r3, 8005ab0 <__hexnan+0xe0>
 8005aa8:	4547      	cmp	r7, r8
 8005aaa:	d128      	bne.n	8005afe <__hexnan+0x12e>
 8005aac:	2301      	movs	r3, #1
 8005aae:	603b      	str	r3, [r7, #0]
 8005ab0:	2005      	movs	r0, #5
 8005ab2:	b007      	add	sp, #28
 8005ab4:	e8bd 8ff0 	ldmia.w	sp!, {r4, r5, r6, r7, r8, r9, sl, fp, pc}
 8005ab8:	3501      	adds	r5, #1
 8005aba:	2d08      	cmp	r5, #8
 8005abc:	f10b 0b01 	add.w	fp, fp, #1
 8005ac0:	dd06      	ble.n	8005ad0 <__hexnan+0x100>
 8005ac2:	4544      	cmp	r4, r8
 8005ac4:	d9c1      	bls.n	8005a4a <__hexnan+0x7a>
 8005ac6:	2300      	movs	r3, #0
 8005ac8:	f844 3c04 	str.w	r3, [r4, #-4]
 8005acc:	2501      	movs	r5, #1
 8005ace:	3c04      	subs	r4, #4
 8005ad0:	6822      	ldr	r2, [r4, #0]
 8005ad2:	f000 000f 	and.w	r0, r0, #15
 8005ad6:	ea40 1002 	orr.w	r0, r0, r2, lsl #4
 8005ada:	6020      	str	r0, [r4, #0]
 8005adc:	e7b5      	b.n	8005a4a <__hexnan+0x7a>
 8005ade:	2508      	movs	r5, #8
 8005ae0:	e7b3      	b.n	8005a4a <__hexnan+0x7a>
 8005ae2:	9b01      	ldr	r3, [sp, #4]
 8005ae4:	2b00      	cmp	r3, #0
 8005ae6:	d0dd      	beq.n	8005aa4 <__hexnan+0xd4>
 8005ae8:	f1c3 0320 	rsb	r3, r3, #32
 8005aec:	f04f 32ff 	mov.w	r2, #4294967295	@ 0xffffffff
 8005af0:	40da      	lsrs	r2, r3
 8005af2:	f856 3c04 	ldr.w	r3, [r6, #-4]
 8005af6:	4013      	ands	r3, r2
 8005af8:	f846 3c04 	str.w	r3, [r6, #-4]
 8005afc:	e7d2      	b.n	8005aa4 <__hexnan+0xd4>
 8005afe:	3f04      	subs	r7, #4
 8005b00:	e7d0      	b.n	8005aa4 <__hexnan+0xd4>
 8005b02:	2004      	movs	r0, #4
 8005b04:	e7d5      	b.n	8005ab2 <__hexnan+0xe2>

08005b06 <__ssputs_r>:
 8005b06:	e92d 47f0 	stmdb	sp!, {r4, r5, r6, r7, r8, r9, sl, lr}
 8005b0a:	688e      	ldr	r6, [r1, #8]
 8005b0c:	461f      	mov	r7, r3
 8005b0e:	42be      	cmp	r6, r7
 8005b10:	680b      	ldr	r3, [r1, #0]
 8005b12:	4682      	mov	sl, r0
 8005b14:	460c      	mov	r4, r1
 8005b16:	4690      	mov	r8, r2
 8005b18:	d82d      	bhi.n	8005b76 <__ssputs_r+0x70>
 8005b1a:	f9b1 200c 	ldrsh.w	r2, [r1, #12]
 8005b1e:	f412 6f90 	tst.w	r2, #1152	@ 0x480
 8005b22:	d026      	beq.n	8005b72 <__ssputs_r+0x6c>
 8005b24:	6965      	ldr	r5, [r4, #20]
 8005b26:	6909      	ldr	r1, [r1, #16]
 8005b28:	eb05 0545 	add.w	r5, r5, r5, lsl #1
 8005b2c:	eba3 0901 	sub.w	r9, r3, r1
 8005b30:	eb05 75d5 	add.w	r5, r5, r5, lsr #31
 8005b34:	1c7b      	adds	r3, r7, #1
 8005b36:	444b      	add	r3, r9
 8005b38:	106d      	asrs	r5, r5, #1
 8005b3a:	429d      	cmp	r5, r3
 8005b3c:	bf38      	it	cc
 8005b3e:	461d      	movcc	r5, r3
 8005b40:	0553      	lsls	r3, r2, #21
 8005b42:	d527      	bpl.n	8005b94 <__ssputs_r+0x8e>
 8005b44:	4629      	mov	r1, r5
 8005b46:	f000 fb2f 	bl	80061a8 <_malloc_r>
 8005b4a:	4606      	mov	r6, r0
 8005b4c:	b360      	cbz	r0, 8005ba8 <__ssputs_r+0xa2>
 8005b4e:	6921      	ldr	r1, [r4, #16]
 8005b50:	464a      	mov	r2, r9
 8005b52:	f7fe fddf 	bl	8004714 <memcpy>
 8005b56:	89a3      	ldrh	r3, [r4, #12]
 8005b58:	f423 6390 	bic.w	r3, r3, #1152	@ 0x480
 8005b5c:	f043 0380 	orr.w	r3, r3, #128	@ 0x80
 8005b60:	81a3      	strh	r3, [r4, #12]
 8005b62:	6126      	str	r6, [r4, #16]
 8005b64:	6165      	str	r5, [r4, #20]
 8005b66:	444e      	add	r6, r9
 8005b68:	eba5 0509 	sub.w	r5, r5, r9
 8005b6c:	6026      	str	r6, [r4, #0]
 8005b6e:	60a5      	str	r5, [r4, #8]
 8005b70:	463e      	mov	r6, r7
 8005b72:	42be      	cmp	r6, r7
 8005b74:	d900      	bls.n	8005b78 <__ssputs_r+0x72>
 8005b76:	463e      	mov	r6, r7
 8005b78:	6820      	ldr	r0, [r4, #0]
 8005b7a:	4632      	mov	r2, r6
 8005b7c:	4641      	mov	r1, r8
 8005b7e:	f001 fb74 	bl	800726a <memmove>
 8005b82:	68a3      	ldr	r3, [r4, #8]
 8005b84:	1b9b      	subs	r3, r3, r6
 8005b86:	60a3      	str	r3, [r4, #8]
 8005b88:	6823      	ldr	r3, [r4, #0]
 8005b8a:	4433      	add	r3, r6
 8005b8c:	6023      	str	r3, [r4, #0]
 8005b8e:	2000      	movs	r0, #0
 8005b90:	e8bd 87f0 	ldmia.w	sp!, {r4, r5, r6, r7, r8, r9, sl, pc}
 8005b94:	462a      	mov	r2, r5
 8005b96:	f001 fabd 	bl	8007114 <_realloc_r>
 8005b9a:	4606      	mov	r6, r0
 8005b9c:	2800      	cmp	r0, #0
 8005b9e:	d1e0      	bne.n	8005b62 <__ssputs_r+0x5c>
 8005ba0:	6921      	ldr	r1, [r4, #16]
 8005ba2:	4650      	mov	r0, sl
 8005ba4:	f7ff fc2c 	bl	8005400 <_free_r>
 8005ba8:	230c      	movs	r3, #12
 8005baa:	f8ca 3000 	str.w	r3, [sl]
 8005bae:	89a3      	ldrh	r3, [r4, #12]
 8005bb0:	f043 0340 	orr.w	r3, r3, #64	@ 0x40
 8005bb4:	81a3      	strh	r3, [r4, #12]
 8005bb6:	f04f 30ff 	mov.w	r0, #4294967295	@ 0xffffffff
 8005bba:	e7e9      	b.n	8005b90 <__ssputs_r+0x8a>

08005bbc <_svfiprintf_r>:
 8005bbc:	e92d 4ff0 	stmdb	sp!, {r4, r5, r6, r7, r8, r9, sl, fp, lr}
 8005bc0:	4698      	mov	r8, r3
 8005bc2:	898b      	ldrh	r3, [r1, #12]
 8005bc4:	061b      	lsls	r3, r3, #24
 8005bc6:	b09d      	sub	sp, #116	@ 0x74
 8005bc8:	4607      	mov	r7, r0
 8005bca:	460d      	mov	r5, r1
 8005bcc:	4614      	mov	r4, r2
 8005bce:	d510      	bpl.n	8005bf2 <_svfiprintf_r+0x36>
 8005bd0:	690b      	ldr	r3, [r1, #16]
 8005bd2:	b973      	cbnz	r3, 8005bf2 <_svfiprintf_r+0x36>
 8005bd4:	2140      	movs	r1, #64	@ 0x40
 8005bd6:	f000 fae7 	bl	80061a8 <_malloc_r>
 8005bda:	6028      	str	r0, [r5, #0]
 8005bdc:	6128      	str	r0, [r5, #16]
 8005bde:	b930      	cbnz	r0, 8005bee <_svfiprintf_r+0x32>
 8005be0:	230c      	movs	r3, #12
 8005be2:	603b      	str	r3, [r7, #0]
 8005be4:	f04f 30ff 	mov.w	r0, #4294967295	@ 0xffffffff
 8005be8:	b01d      	add	sp, #116	@ 0x74
 8005bea:	e8bd 8ff0 	ldmia.w	sp!, {r4, r5, r6, r7, r8, r9, sl, fp, pc}
 8005bee:	2340      	movs	r3, #64	@ 0x40
 8005bf0:	616b      	str	r3, [r5, #20]
 8005bf2:	2300      	movs	r3, #0
 8005bf4:	9309      	str	r3, [sp, #36]	@ 0x24
 8005bf6:	2320      	movs	r3, #32
 8005bf8:	f88d 3029 	strb.w	r3, [sp, #41]	@ 0x29
 8005bfc:	f8cd 800c 	str.w	r8, [sp, #12]
 8005c00:	2330      	movs	r3, #48	@ 0x30
 8005c02:	f8df 819c 	ldr.w	r8, [pc, #412]	@ 8005da0 <_svfiprintf_r+0x1e4>
 8005c06:	f88d 302a 	strb.w	r3, [sp, #42]	@ 0x2a
 8005c0a:	f04f 0901 	mov.w	r9, #1
 8005c0e:	4623      	mov	r3, r4
 8005c10:	469a      	mov	sl, r3
 8005c12:	f813 2b01 	ldrb.w	r2, [r3], #1
 8005c16:	b10a      	cbz	r2, 8005c1c <_svfiprintf_r+0x60>
 8005c18:	2a25      	cmp	r2, #37	@ 0x25
 8005c1a:	d1f9      	bne.n	8005c10 <_svfiprintf_r+0x54>
 8005c1c:	ebba 0b04 	subs.w	fp, sl, r4
 8005c20:	d00b      	beq.n	8005c3a <_svfiprintf_r+0x7e>
 8005c22:	465b      	mov	r3, fp
 8005c24:	4622      	mov	r2, r4
 8005c26:	4629      	mov	r1, r5
 8005c28:	4638      	mov	r0, r7
 8005c2a:	f7ff ff6c 	bl	8005b06 <__ssputs_r>
 8005c2e:	3001      	adds	r0, #1
 8005c30:	f000 80a7 	beq.w	8005d82 <_svfiprintf_r+0x1c6>
 8005c34:	9a09      	ldr	r2, [sp, #36]	@ 0x24
 8005c36:	445a      	add	r2, fp
 8005c38:	9209      	str	r2, [sp, #36]	@ 0x24
 8005c3a:	f89a 3000 	ldrb.w	r3, [sl]
 8005c3e:	2b00      	cmp	r3, #0
 8005c40:	f000 809f 	beq.w	8005d82 <_svfiprintf_r+0x1c6>
 8005c44:	2300      	movs	r3, #0
 8005c46:	f04f 32ff 	mov.w	r2, #4294967295	@ 0xffffffff
 8005c4a:	e9cd 2305 	strd	r2, r3, [sp, #20]
 8005c4e:	f10a 0a01 	add.w	sl, sl, #1
 8005c52:	9304      	str	r3, [sp, #16]
 8005c54:	9307      	str	r3, [sp, #28]
 8005c56:	f88d 3053 	strb.w	r3, [sp, #83]	@ 0x53
 8005c5a:	931a      	str	r3, [sp, #104]	@ 0x68
 8005c5c:	4654      	mov	r4, sl
 8005c5e:	2205      	movs	r2, #5
 8005c60:	f814 1b01 	ldrb.w	r1, [r4], #1
 8005c64:	484e      	ldr	r0, [pc, #312]	@ (8005da0 <_svfiprintf_r+0x1e4>)
 8005c66:	f7fa fae3 	bl	8000230 <memchr>
 8005c6a:	9a04      	ldr	r2, [sp, #16]
 8005c6c:	b9d8      	cbnz	r0, 8005ca6 <_svfiprintf_r+0xea>
 8005c6e:	06d0      	lsls	r0, r2, #27
 8005c70:	bf44      	itt	mi
 8005c72:	2320      	movmi	r3, #32
 8005c74:	f88d 3053 	strbmi.w	r3, [sp, #83]	@ 0x53
 8005c78:	0711      	lsls	r1, r2, #28
 8005c7a:	bf44      	itt	mi
 8005c7c:	232b      	movmi	r3, #43	@ 0x2b
 8005c7e:	f88d 3053 	strbmi.w	r3, [sp, #83]	@ 0x53
 8005c82:	f89a 3000 	ldrb.w	r3, [sl]
 8005c86:	2b2a      	cmp	r3, #42	@ 0x2a
 8005c88:	d015      	beq.n	8005cb6 <_svfiprintf_r+0xfa>
 8005c8a:	9a07      	ldr	r2, [sp, #28]
 8005c8c:	4654      	mov	r4, sl
 8005c8e:	2000      	movs	r0, #0
 8005c90:	f04f 0c0a 	mov.w	ip, #10
 8005c94:	4621      	mov	r1, r4
 8005c96:	f811 3b01 	ldrb.w	r3, [r1], #1
 8005c9a:	3b30      	subs	r3, #48	@ 0x30
 8005c9c:	2b09      	cmp	r3, #9
 8005c9e:	d94b      	bls.n	8005d38 <_svfiprintf_r+0x17c>
 8005ca0:	b1b0      	cbz	r0, 8005cd0 <_svfiprintf_r+0x114>
 8005ca2:	9207      	str	r2, [sp, #28]
 8005ca4:	e014      	b.n	8005cd0 <_svfiprintf_r+0x114>
 8005ca6:	eba0 0308 	sub.w	r3, r0, r8
 8005caa:	fa09 f303 	lsl.w	r3, r9, r3
 8005cae:	4313      	orrs	r3, r2
 8005cb0:	9304      	str	r3, [sp, #16]
 8005cb2:	46a2      	mov	sl, r4
 8005cb4:	e7d2      	b.n	8005c5c <_svfiprintf_r+0xa0>
 8005cb6:	9b03      	ldr	r3, [sp, #12]
 8005cb8:	1d19      	adds	r1, r3, #4
 8005cba:	681b      	ldr	r3, [r3, #0]
 8005cbc:	9103      	str	r1, [sp, #12]
 8005cbe:	2b00      	cmp	r3, #0
 8005cc0:	bfbb      	ittet	lt
 8005cc2:	425b      	neglt	r3, r3
 8005cc4:	f042 0202 	orrlt.w	r2, r2, #2
 8005cc8:	9307      	strge	r3, [sp, #28]
 8005cca:	9307      	strlt	r3, [sp, #28]
 8005ccc:	bfb8      	it	lt
 8005cce:	9204      	strlt	r2, [sp, #16]
 8005cd0:	7823      	ldrb	r3, [r4, #0]
 8005cd2:	2b2e      	cmp	r3, #46	@ 0x2e
 8005cd4:	d10a      	bne.n	8005cec <_svfiprintf_r+0x130>
 8005cd6:	7863      	ldrb	r3, [r4, #1]
 8005cd8:	2b2a      	cmp	r3, #42	@ 0x2a
 8005cda:	d132      	bne.n	8005d42 <_svfiprintf_r+0x186>
 8005cdc:	9b03      	ldr	r3, [sp, #12]
 8005cde:	1d1a      	adds	r2, r3, #4
 8005ce0:	681b      	ldr	r3, [r3, #0]
 8005ce2:	9203      	str	r2, [sp, #12]
 8005ce4:	ea43 73e3 	orr.w	r3, r3, r3, asr #31
 8005ce8:	3402      	adds	r4, #2
 8005cea:	9305      	str	r3, [sp, #20]
 8005cec:	f8df a0c0 	ldr.w	sl, [pc, #192]	@ 8005db0 <_svfiprintf_r+0x1f4>
 8005cf0:	7821      	ldrb	r1, [r4, #0]
 8005cf2:	2203      	movs	r2, #3
 8005cf4:	4650      	mov	r0, sl
 8005cf6:	f7fa fa9b 	bl	8000230 <memchr>
 8005cfa:	b138      	cbz	r0, 8005d0c <_svfiprintf_r+0x150>
 8005cfc:	9b04      	ldr	r3, [sp, #16]
 8005cfe:	eba0 000a 	sub.w	r0, r0, sl
 8005d02:	2240      	movs	r2, #64	@ 0x40
 8005d04:	4082      	lsls	r2, r0
 8005d06:	4313      	orrs	r3, r2
 8005d08:	3401      	adds	r4, #1
 8005d0a:	9304      	str	r3, [sp, #16]
 8005d0c:	f814 1b01 	ldrb.w	r1, [r4], #1
 8005d10:	4824      	ldr	r0, [pc, #144]	@ (8005da4 <_svfiprintf_r+0x1e8>)
 8005d12:	f88d 1028 	strb.w	r1, [sp, #40]	@ 0x28
 8005d16:	2206      	movs	r2, #6
 8005d18:	f7fa fa8a 	bl	8000230 <memchr>
 8005d1c:	2800      	cmp	r0, #0
 8005d1e:	d036      	beq.n	8005d8e <_svfiprintf_r+0x1d2>
 8005d20:	4b21      	ldr	r3, [pc, #132]	@ (8005da8 <_svfiprintf_r+0x1ec>)
 8005d22:	bb1b      	cbnz	r3, 8005d6c <_svfiprintf_r+0x1b0>
 8005d24:	9b03      	ldr	r3, [sp, #12]
 8005d26:	3307      	adds	r3, #7
 8005d28:	f023 0307 	bic.w	r3, r3, #7
 8005d2c:	3308      	adds	r3, #8
 8005d2e:	9303      	str	r3, [sp, #12]
 8005d30:	9b09      	ldr	r3, [sp, #36]	@ 0x24
 8005d32:	4433      	add	r3, r6
 8005d34:	9309      	str	r3, [sp, #36]	@ 0x24
 8005d36:	e76a      	b.n	8005c0e <_svfiprintf_r+0x52>
 8005d38:	fb0c 3202 	mla	r2, ip, r2, r3
 8005d3c:	460c      	mov	r4, r1
 8005d3e:	2001      	movs	r0, #1
 8005d40:	e7a8      	b.n	8005c94 <_svfiprintf_r+0xd8>
 8005d42:	2300      	movs	r3, #0
 8005d44:	3401      	adds	r4, #1
 8005d46:	9305      	str	r3, [sp, #20]
 8005d48:	4619      	mov	r1, r3
 8005d4a:	f04f 0c0a 	mov.w	ip, #10
 8005d4e:	4620      	mov	r0, r4
 8005d50:	f810 2b01 	ldrb.w	r2, [r0], #1
 8005d54:	3a30      	subs	r2, #48	@ 0x30
 8005d56:	2a09      	cmp	r2, #9
 8005d58:	d903      	bls.n	8005d62 <_svfiprintf_r+0x1a6>
 8005d5a:	2b00      	cmp	r3, #0
 8005d5c:	d0c6      	beq.n	8005cec <_svfiprintf_r+0x130>
 8005d5e:	9105      	str	r1, [sp, #20]
 8005d60:	e7c4      	b.n	8005cec <_svfiprintf_r+0x130>
 8005d62:	fb0c 2101 	mla	r1, ip, r1, r2
 8005d66:	4604      	mov	r4, r0
 8005d68:	2301      	movs	r3, #1
 8005d6a:	e7f0      	b.n	8005d4e <_svfiprintf_r+0x192>
 8005d6c:	ab03      	add	r3, sp, #12
 8005d6e:	9300      	str	r3, [sp, #0]
 8005d70:	462a      	mov	r2, r5
 8005d72:	4b0e      	ldr	r3, [pc, #56]	@ (8005dac <_svfiprintf_r+0x1f0>)
 8005d74:	a904      	add	r1, sp, #16
 8005d76:	4638      	mov	r0, r7
 8005d78:	f7fc fe64 	bl	8002a44 <_printf_float>
 8005d7c:	1c42      	adds	r2, r0, #1
 8005d7e:	4606      	mov	r6, r0
 8005d80:	d1d6      	bne.n	8005d30 <_svfiprintf_r+0x174>
 8005d82:	89ab      	ldrh	r3, [r5, #12]
 8005d84:	065b      	lsls	r3, r3, #25
 8005d86:	f53f af2d 	bmi.w	8005be4 <_svfiprintf_r+0x28>
 8005d8a:	9809      	ldr	r0, [sp, #36]	@ 0x24
 8005d8c:	e72c      	b.n	8005be8 <_svfiprintf_r+0x2c>
 8005d8e:	ab03      	add	r3, sp, #12
 8005d90:	9300      	str	r3, [sp, #0]
 8005d92:	462a      	mov	r2, r5
 8005d94:	4b05      	ldr	r3, [pc, #20]	@ (8005dac <_svfiprintf_r+0x1f0>)
 8005d96:	a904      	add	r1, sp, #16
 8005d98:	4638      	mov	r0, r7
 8005d9a:	f7fd f8eb 	bl	8002f74 <_printf_i>
 8005d9e:	e7ed      	b.n	8005d7c <_svfiprintf_r+0x1c0>
 8005da0:	08007e48 	.word	0x08007e48
 8005da4:	08007e52 	.word	0x08007e52
 8005da8:	08002a45 	.word	0x08002a45
 8005dac:	08005b07 	.word	0x08005b07
 8005db0:	08007e4e 	.word	0x08007e4e

08005db4 <_sungetc_r>:
 8005db4:	b538      	push	{r3, r4, r5, lr}
 8005db6:	1c4b      	adds	r3, r1, #1
 8005db8:	4614      	mov	r4, r2
 8005dba:	d103      	bne.n	8005dc4 <_sungetc_r+0x10>
 8005dbc:	f04f 35ff 	mov.w	r5, #4294967295	@ 0xffffffff
 8005dc0:	4628      	mov	r0, r5
 8005dc2:	bd38      	pop	{r3, r4, r5, pc}
 8005dc4:	8993      	ldrh	r3, [r2, #12]
 8005dc6:	f023 0320 	bic.w	r3, r3, #32
 8005dca:	8193      	strh	r3, [r2, #12]
 8005dcc:	6b63      	ldr	r3, [r4, #52]	@ 0x34
 8005dce:	6852      	ldr	r2, [r2, #4]
 8005dd0:	b2cd      	uxtb	r5, r1
 8005dd2:	b18b      	cbz	r3, 8005df8 <_sungetc_r+0x44>
 8005dd4:	6ba3      	ldr	r3, [r4, #56]	@ 0x38
 8005dd6:	4293      	cmp	r3, r2
 8005dd8:	dd08      	ble.n	8005dec <_sungetc_r+0x38>
 8005dda:	6823      	ldr	r3, [r4, #0]
 8005ddc:	1e5a      	subs	r2, r3, #1
 8005dde:	6022      	str	r2, [r4, #0]
 8005de0:	f803 5c01 	strb.w	r5, [r3, #-1]
 8005de4:	6863      	ldr	r3, [r4, #4]
 8005de6:	3301      	adds	r3, #1
 8005de8:	6063      	str	r3, [r4, #4]
 8005dea:	e7e9      	b.n	8005dc0 <_sungetc_r+0xc>
 8005dec:	4621      	mov	r1, r4
 8005dee:	f001 f957 	bl	80070a0 <__submore>
 8005df2:	2800      	cmp	r0, #0
 8005df4:	d0f1      	beq.n	8005dda <_sungetc_r+0x26>
 8005df6:	e7e1      	b.n	8005dbc <_sungetc_r+0x8>
 8005df8:	6921      	ldr	r1, [r4, #16]
 8005dfa:	6823      	ldr	r3, [r4, #0]
 8005dfc:	b151      	cbz	r1, 8005e14 <_sungetc_r+0x60>
 8005dfe:	4299      	cmp	r1, r3
 8005e00:	d208      	bcs.n	8005e14 <_sungetc_r+0x60>
 8005e02:	f813 1c01 	ldrb.w	r1, [r3, #-1]
 8005e06:	42a9      	cmp	r1, r5
 8005e08:	d104      	bne.n	8005e14 <_sungetc_r+0x60>
 8005e0a:	3b01      	subs	r3, #1
 8005e0c:	3201      	adds	r2, #1
 8005e0e:	6023      	str	r3, [r4, #0]
 8005e10:	6062      	str	r2, [r4, #4]
 8005e12:	e7d5      	b.n	8005dc0 <_sungetc_r+0xc>
 8005e14:	e9c4 320f 	strd	r3, r2, [r4, #60]	@ 0x3c
 8005e18:	f104 0344 	add.w	r3, r4, #68	@ 0x44
 8005e1c:	6363      	str	r3, [r4, #52]	@ 0x34
 8005e1e:	2303      	movs	r3, #3
 8005e20:	63a3      	str	r3, [r4, #56]	@ 0x38
 8005e22:	4623      	mov	r3, r4
 8005e24:	f803 5f46 	strb.w	r5, [r3, #70]!
 8005e28:	6023      	str	r3, [r4, #0]
 8005e2a:	2301      	movs	r3, #1
 8005e2c:	e7dc      	b.n	8005de8 <_sungetc_r+0x34>

08005e2e <__ssrefill_r>:
 8005e2e:	b510      	push	{r4, lr}
 8005e30:	460c      	mov	r4, r1
 8005e32:	6b49      	ldr	r1, [r1, #52]	@ 0x34
 8005e34:	b169      	cbz	r1, 8005e52 <__ssrefill_r+0x24>
 8005e36:	f104 0344 	add.w	r3, r4, #68	@ 0x44
 8005e3a:	4299      	cmp	r1, r3
 8005e3c:	d001      	beq.n	8005e42 <__ssrefill_r+0x14>
 8005e3e:	f7ff fadf 	bl	8005400 <_free_r>
 8005e42:	6c23      	ldr	r3, [r4, #64]	@ 0x40
 8005e44:	6063      	str	r3, [r4, #4]
 8005e46:	2000      	movs	r0, #0
 8005e48:	6360      	str	r0, [r4, #52]	@ 0x34
 8005e4a:	b113      	cbz	r3, 8005e52 <__ssrefill_r+0x24>
 8005e4c:	6be3      	ldr	r3, [r4, #60]	@ 0x3c
 8005e4e:	6023      	str	r3, [r4, #0]
 8005e50:	bd10      	pop	{r4, pc}
 8005e52:	6923      	ldr	r3, [r4, #16]
 8005e54:	6023      	str	r3, [r4, #0]
 8005e56:	2300      	movs	r3, #0
 8005e58:	6063      	str	r3, [r4, #4]
 8005e5a:	89a3      	ldrh	r3, [r4, #12]
 8005e5c:	f043 0320 	orr.w	r3, r3, #32
 8005e60:	81a3      	strh	r3, [r4, #12]
 8005e62:	f04f 30ff 	mov.w	r0, #4294967295	@ 0xffffffff
 8005e66:	e7f3      	b.n	8005e50 <__ssrefill_r+0x22>

08005e68 <__ssvfiscanf_r>:
 8005e68:	e92d 4ff0 	stmdb	sp!, {r4, r5, r6, r7, r8, r9, sl, fp, lr}
 8005e6c:	460c      	mov	r4, r1
 8005e6e:	f5ad 7d23 	sub.w	sp, sp, #652	@ 0x28c
 8005e72:	2100      	movs	r1, #0
 8005e74:	e9cd 1144 	strd	r1, r1, [sp, #272]	@ 0x110
 8005e78:	49a6      	ldr	r1, [pc, #664]	@ (8006114 <__ssvfiscanf_r+0x2ac>)
 8005e7a:	91a0      	str	r1, [sp, #640]	@ 0x280
 8005e7c:	f10d 0804 	add.w	r8, sp, #4
 8005e80:	49a5      	ldr	r1, [pc, #660]	@ (8006118 <__ssvfiscanf_r+0x2b0>)
 8005e82:	4fa6      	ldr	r7, [pc, #664]	@ (800611c <__ssvfiscanf_r+0x2b4>)
 8005e84:	f8cd 8118 	str.w	r8, [sp, #280]	@ 0x118
 8005e88:	4606      	mov	r6, r0
 8005e8a:	91a1      	str	r1, [sp, #644]	@ 0x284
 8005e8c:	9300      	str	r3, [sp, #0]
 8005e8e:	f892 9000 	ldrb.w	r9, [r2]
 8005e92:	f1b9 0f00 	cmp.w	r9, #0
 8005e96:	f000 8158 	beq.w	800614a <__ssvfiscanf_r+0x2e2>
 8005e9a:	f817 3009 	ldrb.w	r3, [r7, r9]
 8005e9e:	f013 0308 	ands.w	r3, r3, #8
 8005ea2:	f102 0501 	add.w	r5, r2, #1
 8005ea6:	d019      	beq.n	8005edc <__ssvfiscanf_r+0x74>
 8005ea8:	6863      	ldr	r3, [r4, #4]
 8005eaa:	2b00      	cmp	r3, #0
 8005eac:	dd0f      	ble.n	8005ece <__ssvfiscanf_r+0x66>
 8005eae:	6823      	ldr	r3, [r4, #0]
 8005eb0:	781a      	ldrb	r2, [r3, #0]
 8005eb2:	5cba      	ldrb	r2, [r7, r2]
 8005eb4:	0712      	lsls	r2, r2, #28
 8005eb6:	d401      	bmi.n	8005ebc <__ssvfiscanf_r+0x54>
 8005eb8:	462a      	mov	r2, r5
 8005eba:	e7e8      	b.n	8005e8e <__ssvfiscanf_r+0x26>
 8005ebc:	9a45      	ldr	r2, [sp, #276]	@ 0x114
 8005ebe:	3201      	adds	r2, #1
 8005ec0:	9245      	str	r2, [sp, #276]	@ 0x114
 8005ec2:	6862      	ldr	r2, [r4, #4]
 8005ec4:	3301      	adds	r3, #1
 8005ec6:	3a01      	subs	r2, #1
 8005ec8:	6062      	str	r2, [r4, #4]
 8005eca:	6023      	str	r3, [r4, #0]
 8005ecc:	e7ec      	b.n	8005ea8 <__ssvfiscanf_r+0x40>
 8005ece:	9ba1      	ldr	r3, [sp, #644]	@ 0x284
 8005ed0:	4621      	mov	r1, r4
 8005ed2:	4630      	mov	r0, r6
 8005ed4:	4798      	blx	r3
 8005ed6:	2800      	cmp	r0, #0
 8005ed8:	d0e9      	beq.n	8005eae <__ssvfiscanf_r+0x46>
 8005eda:	e7ed      	b.n	8005eb8 <__ssvfiscanf_r+0x50>
 8005edc:	f1b9 0f25 	cmp.w	r9, #37	@ 0x25
 8005ee0:	f040 8085 	bne.w	8005fee <__ssvfiscanf_r+0x186>
 8005ee4:	9341      	str	r3, [sp, #260]	@ 0x104
 8005ee6:	9343      	str	r3, [sp, #268]	@ 0x10c
 8005ee8:	7853      	ldrb	r3, [r2, #1]
 8005eea:	2b2a      	cmp	r3, #42	@ 0x2a
 8005eec:	bf02      	ittt	eq
 8005eee:	2310      	moveq	r3, #16
 8005ef0:	1c95      	addeq	r5, r2, #2
 8005ef2:	9341      	streq	r3, [sp, #260]	@ 0x104
 8005ef4:	220a      	movs	r2, #10
 8005ef6:	46aa      	mov	sl, r5
 8005ef8:	f81a 1b01 	ldrb.w	r1, [sl], #1
 8005efc:	f1a1 0330 	sub.w	r3, r1, #48	@ 0x30
 8005f00:	2b09      	cmp	r3, #9
 8005f02:	d91e      	bls.n	8005f42 <__ssvfiscanf_r+0xda>
 8005f04:	f8df b218 	ldr.w	fp, [pc, #536]	@ 8006120 <__ssvfiscanf_r+0x2b8>
 8005f08:	2203      	movs	r2, #3
 8005f0a:	4658      	mov	r0, fp
 8005f0c:	f7fa f990 	bl	8000230 <memchr>
 8005f10:	b138      	cbz	r0, 8005f22 <__ssvfiscanf_r+0xba>
 8005f12:	9a41      	ldr	r2, [sp, #260]	@ 0x104
 8005f14:	eba0 000b 	sub.w	r0, r0, fp
 8005f18:	2301      	movs	r3, #1
 8005f1a:	4083      	lsls	r3, r0
 8005f1c:	4313      	orrs	r3, r2
 8005f1e:	9341      	str	r3, [sp, #260]	@ 0x104
 8005f20:	4655      	mov	r5, sl
 8005f22:	f815 3b01 	ldrb.w	r3, [r5], #1
 8005f26:	2b78      	cmp	r3, #120	@ 0x78
 8005f28:	d806      	bhi.n	8005f38 <__ssvfiscanf_r+0xd0>
 8005f2a:	2b57      	cmp	r3, #87	@ 0x57
 8005f2c:	d810      	bhi.n	8005f50 <__ssvfiscanf_r+0xe8>
 8005f2e:	2b25      	cmp	r3, #37	@ 0x25
 8005f30:	d05d      	beq.n	8005fee <__ssvfiscanf_r+0x186>
 8005f32:	d857      	bhi.n	8005fe4 <__ssvfiscanf_r+0x17c>
 8005f34:	2b00      	cmp	r3, #0
 8005f36:	d075      	beq.n	8006024 <__ssvfiscanf_r+0x1bc>
 8005f38:	2303      	movs	r3, #3
 8005f3a:	9347      	str	r3, [sp, #284]	@ 0x11c
 8005f3c:	230a      	movs	r3, #10
 8005f3e:	9342      	str	r3, [sp, #264]	@ 0x108
 8005f40:	e088      	b.n	8006054 <__ssvfiscanf_r+0x1ec>
 8005f42:	9b43      	ldr	r3, [sp, #268]	@ 0x10c
 8005f44:	fb02 1103 	mla	r1, r2, r3, r1
 8005f48:	3930      	subs	r1, #48	@ 0x30
 8005f4a:	9143      	str	r1, [sp, #268]	@ 0x10c
 8005f4c:	4655      	mov	r5, sl
 8005f4e:	e7d2      	b.n	8005ef6 <__ssvfiscanf_r+0x8e>
 8005f50:	f1a3 0258 	sub.w	r2, r3, #88	@ 0x58
 8005f54:	2a20      	cmp	r2, #32
 8005f56:	d8ef      	bhi.n	8005f38 <__ssvfiscanf_r+0xd0>
 8005f58:	a101      	add	r1, pc, #4	@ (adr r1, 8005f60 <__ssvfiscanf_r+0xf8>)
 8005f5a:	f851 f022 	ldr.w	pc, [r1, r2, lsl #2]
 8005f5e:	bf00      	nop
 8005f60:	08006033 	.word	0x08006033
 8005f64:	08005f39 	.word	0x08005f39
 8005f68:	08005f39 	.word	0x08005f39
 8005f6c:	0800608d 	.word	0x0800608d
 8005f70:	08005f39 	.word	0x08005f39
 8005f74:	08005f39 	.word	0x08005f39
 8005f78:	08005f39 	.word	0x08005f39
 8005f7c:	08005f39 	.word	0x08005f39
 8005f80:	08005f39 	.word	0x08005f39
 8005f84:	08005f39 	.word	0x08005f39
 8005f88:	08005f39 	.word	0x08005f39
 8005f8c:	080060a3 	.word	0x080060a3
 8005f90:	08006089 	.word	0x08006089
 8005f94:	08005feb 	.word	0x08005feb
 8005f98:	08005feb 	.word	0x08005feb
 8005f9c:	08005feb 	.word	0x08005feb
 8005fa0:	08005f39 	.word	0x08005f39
 8005fa4:	08006045 	.word	0x08006045
 8005fa8:	08005f39 	.word	0x08005f39
 8005fac:	08005f39 	.word	0x08005f39
 8005fb0:	08005f39 	.word	0x08005f39
 8005fb4:	08005f39 	.word	0x08005f39
 8005fb8:	080060b3 	.word	0x080060b3
 8005fbc:	0800604d 	.word	0x0800604d
 8005fc0:	0800602b 	.word	0x0800602b
 8005fc4:	08005f39 	.word	0x08005f39
 8005fc8:	08005f39 	.word	0x08005f39
 8005fcc:	080060af 	.word	0x080060af
 8005fd0:	08005f39 	.word	0x08005f39
 8005fd4:	08006089 	.word	0x08006089
 8005fd8:	08005f39 	.word	0x08005f39
 8005fdc:	08005f39 	.word	0x08005f39
 8005fe0:	08006033 	.word	0x08006033
 8005fe4:	3b45      	subs	r3, #69	@ 0x45
 8005fe6:	2b02      	cmp	r3, #2
 8005fe8:	d8a6      	bhi.n	8005f38 <__ssvfiscanf_r+0xd0>
 8005fea:	2305      	movs	r3, #5
 8005fec:	e031      	b.n	8006052 <__ssvfiscanf_r+0x1ea>
 8005fee:	6863      	ldr	r3, [r4, #4]
 8005ff0:	2b00      	cmp	r3, #0
 8005ff2:	dd0d      	ble.n	8006010 <__ssvfiscanf_r+0x1a8>
 8005ff4:	6823      	ldr	r3, [r4, #0]
 8005ff6:	781a      	ldrb	r2, [r3, #0]
 8005ff8:	454a      	cmp	r2, r9
 8005ffa:	f040 80a6 	bne.w	800614a <__ssvfiscanf_r+0x2e2>
 8005ffe:	3301      	adds	r3, #1
 8006000:	6862      	ldr	r2, [r4, #4]
 8006002:	6023      	str	r3, [r4, #0]
 8006004:	9b45      	ldr	r3, [sp, #276]	@ 0x114
 8006006:	3a01      	subs	r2, #1
 8006008:	3301      	adds	r3, #1
 800600a:	6062      	str	r2, [r4, #4]
 800600c:	9345      	str	r3, [sp, #276]	@ 0x114
 800600e:	e753      	b.n	8005eb8 <__ssvfiscanf_r+0x50>
 8006010:	9ba1      	ldr	r3, [sp, #644]	@ 0x284
 8006012:	4621      	mov	r1, r4
 8006014:	4630      	mov	r0, r6
 8006016:	4798      	blx	r3
 8006018:	2800      	cmp	r0, #0
 800601a:	d0eb      	beq.n	8005ff4 <__ssvfiscanf_r+0x18c>
 800601c:	9844      	ldr	r0, [sp, #272]	@ 0x110
 800601e:	2800      	cmp	r0, #0
 8006020:	f040 808b 	bne.w	800613a <__ssvfiscanf_r+0x2d2>
 8006024:	f04f 30ff 	mov.w	r0, #4294967295	@ 0xffffffff
 8006028:	e08b      	b.n	8006142 <__ssvfiscanf_r+0x2da>
 800602a:	9a41      	ldr	r2, [sp, #260]	@ 0x104
 800602c:	f042 0220 	orr.w	r2, r2, #32
 8006030:	9241      	str	r2, [sp, #260]	@ 0x104
 8006032:	9a41      	ldr	r2, [sp, #260]	@ 0x104
 8006034:	f442 7200 	orr.w	r2, r2, #512	@ 0x200
 8006038:	9241      	str	r2, [sp, #260]	@ 0x104
 800603a:	2210      	movs	r2, #16
 800603c:	2b6e      	cmp	r3, #110	@ 0x6e
 800603e:	9242      	str	r2, [sp, #264]	@ 0x108
 8006040:	d902      	bls.n	8006048 <__ssvfiscanf_r+0x1e0>
 8006042:	e005      	b.n	8006050 <__ssvfiscanf_r+0x1e8>
 8006044:	2300      	movs	r3, #0
 8006046:	9342      	str	r3, [sp, #264]	@ 0x108
 8006048:	2303      	movs	r3, #3
 800604a:	e002      	b.n	8006052 <__ssvfiscanf_r+0x1ea>
 800604c:	2308      	movs	r3, #8
 800604e:	9342      	str	r3, [sp, #264]	@ 0x108
 8006050:	2304      	movs	r3, #4
 8006052:	9347      	str	r3, [sp, #284]	@ 0x11c
 8006054:	6863      	ldr	r3, [r4, #4]
 8006056:	2b00      	cmp	r3, #0
 8006058:	dd39      	ble.n	80060ce <__ssvfiscanf_r+0x266>
 800605a:	9b41      	ldr	r3, [sp, #260]	@ 0x104
 800605c:	0659      	lsls	r1, r3, #25
 800605e:	d404      	bmi.n	800606a <__ssvfiscanf_r+0x202>
 8006060:	6823      	ldr	r3, [r4, #0]
 8006062:	781a      	ldrb	r2, [r3, #0]
 8006064:	5cba      	ldrb	r2, [r7, r2]
 8006066:	0712      	lsls	r2, r2, #28
 8006068:	d438      	bmi.n	80060dc <__ssvfiscanf_r+0x274>
 800606a:	9b47      	ldr	r3, [sp, #284]	@ 0x11c
 800606c:	2b02      	cmp	r3, #2
 800606e:	dc47      	bgt.n	8006100 <__ssvfiscanf_r+0x298>
 8006070:	466b      	mov	r3, sp
 8006072:	4622      	mov	r2, r4
 8006074:	a941      	add	r1, sp, #260	@ 0x104
 8006076:	4630      	mov	r0, r6
 8006078:	f000 f928 	bl	80062cc <_scanf_chars>
 800607c:	2801      	cmp	r0, #1
 800607e:	d064      	beq.n	800614a <__ssvfiscanf_r+0x2e2>
 8006080:	2802      	cmp	r0, #2
 8006082:	f47f af19 	bne.w	8005eb8 <__ssvfiscanf_r+0x50>
 8006086:	e7c9      	b.n	800601c <__ssvfiscanf_r+0x1b4>
 8006088:	220a      	movs	r2, #10
 800608a:	e7d7      	b.n	800603c <__ssvfiscanf_r+0x1d4>
 800608c:	4629      	mov	r1, r5
 800608e:	4640      	mov	r0, r8
 8006090:	f000 fa6a 	bl	8006568 <__sccl>
 8006094:	9b41      	ldr	r3, [sp, #260]	@ 0x104
 8006096:	f043 0340 	orr.w	r3, r3, #64	@ 0x40
 800609a:	9341      	str	r3, [sp, #260]	@ 0x104
 800609c:	4605      	mov	r5, r0
 800609e:	2301      	movs	r3, #1
 80060a0:	e7d7      	b.n	8006052 <__ssvfiscanf_r+0x1ea>
 80060a2:	9b41      	ldr	r3, [sp, #260]	@ 0x104
 80060a4:	f043 0340 	orr.w	r3, r3, #64	@ 0x40
 80060a8:	9341      	str	r3, [sp, #260]	@ 0x104
 80060aa:	2300      	movs	r3, #0
 80060ac:	e7d1      	b.n	8006052 <__ssvfiscanf_r+0x1ea>
 80060ae:	2302      	movs	r3, #2
 80060b0:	e7cf      	b.n	8006052 <__ssvfiscanf_r+0x1ea>
 80060b2:	9841      	ldr	r0, [sp, #260]	@ 0x104
 80060b4:	06c3      	lsls	r3, r0, #27
 80060b6:	f53f aeff 	bmi.w	8005eb8 <__ssvfiscanf_r+0x50>
 80060ba:	9b00      	ldr	r3, [sp, #0]
 80060bc:	9a45      	ldr	r2, [sp, #276]	@ 0x114
 80060be:	1d19      	adds	r1, r3, #4
 80060c0:	9100      	str	r1, [sp, #0]
 80060c2:	681b      	ldr	r3, [r3, #0]
 80060c4:	07c0      	lsls	r0, r0, #31
 80060c6:	bf4c      	ite	mi
 80060c8:	801a      	strhmi	r2, [r3, #0]
 80060ca:	601a      	strpl	r2, [r3, #0]
 80060cc:	e6f4      	b.n	8005eb8 <__ssvfiscanf_r+0x50>
 80060ce:	9ba1      	ldr	r3, [sp, #644]	@ 0x284
 80060d0:	4621      	mov	r1, r4
 80060d2:	4630      	mov	r0, r6
 80060d4:	4798      	blx	r3
 80060d6:	2800      	cmp	r0, #0
 80060d8:	d0bf      	beq.n	800605a <__ssvfiscanf_r+0x1f2>
 80060da:	e79f      	b.n	800601c <__ssvfiscanf_r+0x1b4>
 80060dc:	9a45      	ldr	r2, [sp, #276]	@ 0x114
 80060de:	3201      	adds	r2, #1
 80060e0:	9245      	str	r2, [sp, #276]	@ 0x114
 80060e2:	6862      	ldr	r2, [r4, #4]
 80060e4:	3a01      	subs	r2, #1
 80060e6:	2a00      	cmp	r2, #0
 80060e8:	6062      	str	r2, [r4, #4]
 80060ea:	dd02      	ble.n	80060f2 <__ssvfiscanf_r+0x28a>
 80060ec:	3301      	adds	r3, #1
 80060ee:	6023      	str	r3, [r4, #0]
 80060f0:	e7b6      	b.n	8006060 <__ssvfiscanf_r+0x1f8>
 80060f2:	9ba1      	ldr	r3, [sp, #644]	@ 0x284
 80060f4:	4621      	mov	r1, r4
 80060f6:	4630      	mov	r0, r6
 80060f8:	4798      	blx	r3
 80060fa:	2800      	cmp	r0, #0
 80060fc:	d0b0      	beq.n	8006060 <__ssvfiscanf_r+0x1f8>
 80060fe:	e78d      	b.n	800601c <__ssvfiscanf_r+0x1b4>
 8006100:	2b04      	cmp	r3, #4
 8006102:	dc0f      	bgt.n	8006124 <__ssvfiscanf_r+0x2bc>
 8006104:	466b      	mov	r3, sp
 8006106:	4622      	mov	r2, r4
 8006108:	a941      	add	r1, sp, #260	@ 0x104
 800610a:	4630      	mov	r0, r6
 800610c:	f000 f938 	bl	8006380 <_scanf_i>
 8006110:	e7b4      	b.n	800607c <__ssvfiscanf_r+0x214>
 8006112:	bf00      	nop
 8006114:	08005db5 	.word	0x08005db5
 8006118:	08005e2f 	.word	0x08005e2f
 800611c:	08007f61 	.word	0x08007f61
 8006120:	08007e4e 	.word	0x08007e4e
 8006124:	4b0a      	ldr	r3, [pc, #40]	@ (8006150 <__ssvfiscanf_r+0x2e8>)
 8006126:	2b00      	cmp	r3, #0
 8006128:	f43f aec6 	beq.w	8005eb8 <__ssvfiscanf_r+0x50>
 800612c:	466b      	mov	r3, sp
 800612e:	4622      	mov	r2, r4
 8006130:	a941      	add	r1, sp, #260	@ 0x104
 8006132:	4630      	mov	r0, r6
 8006134:	f7fd f83c 	bl	80031b0 <_scanf_float>
 8006138:	e7a0      	b.n	800607c <__ssvfiscanf_r+0x214>
 800613a:	89a3      	ldrh	r3, [r4, #12]
 800613c:	065b      	lsls	r3, r3, #25
 800613e:	f53f af71 	bmi.w	8006024 <__ssvfiscanf_r+0x1bc>
 8006142:	f50d 7d23 	add.w	sp, sp, #652	@ 0x28c
 8006146:	e8bd 8ff0 	ldmia.w	sp!, {r4, r5, r6, r7, r8, r9, sl, fp, pc}
 800614a:	9844      	ldr	r0, [sp, #272]	@ 0x110
 800614c:	e7f9      	b.n	8006142 <__ssvfiscanf_r+0x2da>
 800614e:	bf00      	nop
 8006150:	080031b1 	.word	0x080031b1

08006154 <malloc>:
 8006154:	4b02      	ldr	r3, [pc, #8]	@ (8006160 <malloc+0xc>)
 8006156:	4601      	mov	r1, r0
 8006158:	6818      	ldr	r0, [r3, #0]
 800615a:	f000 b825 	b.w	80061a8 <_malloc_r>
 800615e:	bf00      	nop
 8006160:	20000194 	.word	0x20000194

08006164 <sbrk_aligned>:
 8006164:	b570      	push	{r4, r5, r6, lr}
 8006166:	4e0f      	ldr	r6, [pc, #60]	@ (80061a4 <sbrk_aligned+0x40>)
 8006168:	460c      	mov	r4, r1
 800616a:	6831      	ldr	r1, [r6, #0]
 800616c:	4605      	mov	r5, r0
 800616e:	b911      	cbnz	r1, 8006176 <sbrk_aligned+0x12>
 8006170:	f001 f896 	bl	80072a0 <_sbrk_r>
 8006174:	6030      	str	r0, [r6, #0]
 8006176:	4621      	mov	r1, r4
 8006178:	4628      	mov	r0, r5
 800617a:	f001 f891 	bl	80072a0 <_sbrk_r>
 800617e:	1c43      	adds	r3, r0, #1
 8006180:	d103      	bne.n	800618a <sbrk_aligned+0x26>
 8006182:	f04f 34ff 	mov.w	r4, #4294967295	@ 0xffffffff
 8006186:	4620      	mov	r0, r4
 8006188:	bd70      	pop	{r4, r5, r6, pc}
 800618a:	1cc4      	adds	r4, r0, #3
 800618c:	f024 0403 	bic.w	r4, r4, #3
 8006190:	42a0      	cmp	r0, r4
 8006192:	d0f8      	beq.n	8006186 <sbrk_aligned+0x22>
 8006194:	1a21      	subs	r1, r4, r0
 8006196:	4628      	mov	r0, r5
 8006198:	f001 f882 	bl	80072a0 <_sbrk_r>
 800619c:	3001      	adds	r0, #1
 800619e:	d1f2      	bne.n	8006186 <sbrk_aligned+0x22>
 80061a0:	e7ef      	b.n	8006182 <sbrk_aligned+0x1e>
 80061a2:	bf00      	nop
 80061a4:	20000480 	.word	0x20000480

080061a8 <_malloc_r>:
 80061a8:	e92d 43f8 	stmdb	sp!, {r3, r4, r5, r6, r7, r8, r9, lr}
 80061ac:	1ccd      	adds	r5, r1, #3
 80061ae:	f025 0503 	bic.w	r5, r5, #3
 80061b2:	3508      	adds	r5, #8
 80061b4:	2d0c      	cmp	r5, #12
 80061b6:	bf38      	it	cc
 80061b8:	250c      	movcc	r5, #12
 80061ba:	2d00      	cmp	r5, #0
 80061bc:	4606      	mov	r6, r0
 80061be:	db01      	blt.n	80061c4 <_malloc_r+0x1c>
 80061c0:	42a9      	cmp	r1, r5
 80061c2:	d904      	bls.n	80061ce <_malloc_r+0x26>
 80061c4:	230c      	movs	r3, #12
 80061c6:	6033      	str	r3, [r6, #0]
 80061c8:	2000      	movs	r0, #0
 80061ca:	e8bd 83f8 	ldmia.w	sp!, {r3, r4, r5, r6, r7, r8, r9, pc}
 80061ce:	f8df 80d4 	ldr.w	r8, [pc, #212]	@ 80062a4 <_malloc_r+0xfc>
 80061d2:	f000 faaf 	bl	8006734 <__malloc_lock>
 80061d6:	f8d8 3000 	ldr.w	r3, [r8]
 80061da:	461c      	mov	r4, r3
 80061dc:	bb44      	cbnz	r4, 8006230 <_malloc_r+0x88>
 80061de:	4629      	mov	r1, r5
 80061e0:	4630      	mov	r0, r6
 80061e2:	f7ff ffbf 	bl	8006164 <sbrk_aligned>
 80061e6:	1c43      	adds	r3, r0, #1
 80061e8:	4604      	mov	r4, r0
 80061ea:	d158      	bne.n	800629e <_malloc_r+0xf6>
 80061ec:	f8d8 4000 	ldr.w	r4, [r8]
 80061f0:	4627      	mov	r7, r4
 80061f2:	2f00      	cmp	r7, #0
 80061f4:	d143      	bne.n	800627e <_malloc_r+0xd6>
 80061f6:	2c00      	cmp	r4, #0
 80061f8:	d04b      	beq.n	8006292 <_malloc_r+0xea>
 80061fa:	6823      	ldr	r3, [r4, #0]
 80061fc:	4639      	mov	r1, r7
 80061fe:	4630      	mov	r0, r6
 8006200:	eb04 0903 	add.w	r9, r4, r3
 8006204:	f001 f84c 	bl	80072a0 <_sbrk_r>
 8006208:	4581      	cmp	r9, r0
 800620a:	d142      	bne.n	8006292 <_malloc_r+0xea>
 800620c:	6821      	ldr	r1, [r4, #0]
 800620e:	1a6d      	subs	r5, r5, r1
 8006210:	4629      	mov	r1, r5
 8006212:	4630      	mov	r0, r6
 8006214:	f7ff ffa6 	bl	8006164 <sbrk_aligned>
 8006218:	3001      	adds	r0, #1
 800621a:	d03a      	beq.n	8006292 <_malloc_r+0xea>
 800621c:	6823      	ldr	r3, [r4, #0]
 800621e:	442b      	add	r3, r5
 8006220:	6023      	str	r3, [r4, #0]
 8006222:	f8d8 3000 	ldr.w	r3, [r8]
 8006226:	685a      	ldr	r2, [r3, #4]
 8006228:	bb62      	cbnz	r2, 8006284 <_malloc_r+0xdc>
 800622a:	f8c8 7000 	str.w	r7, [r8]
 800622e:	e00f      	b.n	8006250 <_malloc_r+0xa8>
 8006230:	6822      	ldr	r2, [r4, #0]
 8006232:	1b52      	subs	r2, r2, r5
 8006234:	d420      	bmi.n	8006278 <_malloc_r+0xd0>
 8006236:	2a0b      	cmp	r2, #11
 8006238:	d917      	bls.n	800626a <_malloc_r+0xc2>
 800623a:	1961      	adds	r1, r4, r5
 800623c:	42a3      	cmp	r3, r4
 800623e:	6025      	str	r5, [r4, #0]
 8006240:	bf18      	it	ne
 8006242:	6059      	strne	r1, [r3, #4]
 8006244:	6863      	ldr	r3, [r4, #4]
 8006246:	bf08      	it	eq
 8006248:	f8c8 1000 	streq.w	r1, [r8]
 800624c:	5162      	str	r2, [r4, r5]
 800624e:	604b      	str	r3, [r1, #4]
 8006250:	4630      	mov	r0, r6
 8006252:	f000 fa75 	bl	8006740 <__malloc_unlock>
 8006256:	f104 000b 	add.w	r0, r4, #11
 800625a:	1d23      	adds	r3, r4, #4
 800625c:	f020 0007 	bic.w	r0, r0, #7
 8006260:	1ac2      	subs	r2, r0, r3
 8006262:	bf1c      	itt	ne
 8006264:	1a1b      	subne	r3, r3, r0
 8006266:	50a3      	strne	r3, [r4, r2]
 8006268:	e7af      	b.n	80061ca <_malloc_r+0x22>
 800626a:	6862      	ldr	r2, [r4, #4]
 800626c:	42a3      	cmp	r3, r4
 800626e:	bf0c      	ite	eq
 8006270:	f8c8 2000 	streq.w	r2, [r8]
 8006274:	605a      	strne	r2, [r3, #4]
 8006276:	e7eb      	b.n	8006250 <_malloc_r+0xa8>
 8006278:	4623      	mov	r3, r4
 800627a:	6864      	ldr	r4, [r4, #4]
 800627c:	e7ae      	b.n	80061dc <_malloc_r+0x34>
 800627e:	463c      	mov	r4, r7
 8006280:	687f      	ldr	r7, [r7, #4]
 8006282:	e7b6      	b.n	80061f2 <_malloc_r+0x4a>
 8006284:	461a      	mov	r2, r3
 8006286:	685b      	ldr	r3, [r3, #4]
 8006288:	42a3      	cmp	r3, r4
 800628a:	d1fb      	bne.n	8006284 <_malloc_r+0xdc>
 800628c:	2300      	movs	r3, #0
 800628e:	6053      	str	r3, [r2, #4]
 8006290:	e7de      	b.n	8006250 <_malloc_r+0xa8>
 8006292:	230c      	movs	r3, #12
 8006294:	6033      	str	r3, [r6, #0]
 8006296:	4630      	mov	r0, r6
 8006298:	f000 fa52 	bl	8006740 <__malloc_unlock>
 800629c:	e794      	b.n	80061c8 <_malloc_r+0x20>
 800629e:	6005      	str	r5, [r0, #0]
 80062a0:	e7d6      	b.n	8006250 <_malloc_r+0xa8>
 80062a2:	bf00      	nop
 80062a4:	20000484 	.word	0x20000484

080062a8 <__ascii_mbtowc>:
 80062a8:	b082      	sub	sp, #8
 80062aa:	b901      	cbnz	r1, 80062ae <__ascii_mbtowc+0x6>
 80062ac:	a901      	add	r1, sp, #4
 80062ae:	b142      	cbz	r2, 80062c2 <__ascii_mbtowc+0x1a>
 80062b0:	b14b      	cbz	r3, 80062c6 <__ascii_mbtowc+0x1e>
 80062b2:	7813      	ldrb	r3, [r2, #0]
 80062b4:	600b      	str	r3, [r1, #0]
 80062b6:	7812      	ldrb	r2, [r2, #0]
 80062b8:	1e10      	subs	r0, r2, #0
 80062ba:	bf18      	it	ne
 80062bc:	2001      	movne	r0, #1
 80062be:	b002      	add	sp, #8
 80062c0:	4770      	bx	lr
 80062c2:	4610      	mov	r0, r2
 80062c4:	e7fb      	b.n	80062be <__ascii_mbtowc+0x16>
 80062c6:	f06f 0001 	mvn.w	r0, #1
 80062ca:	e7f8      	b.n	80062be <__ascii_mbtowc+0x16>

080062cc <_scanf_chars>:
 80062cc:	e92d 43f8 	stmdb	sp!, {r3, r4, r5, r6, r7, r8, r9, lr}
 80062d0:	4615      	mov	r5, r2
 80062d2:	688a      	ldr	r2, [r1, #8]
 80062d4:	4680      	mov	r8, r0
 80062d6:	460c      	mov	r4, r1
 80062d8:	b932      	cbnz	r2, 80062e8 <_scanf_chars+0x1c>
 80062da:	698a      	ldr	r2, [r1, #24]
 80062dc:	2a00      	cmp	r2, #0
 80062de:	bf14      	ite	ne
 80062e0:	f04f 32ff 	movne.w	r2, #4294967295	@ 0xffffffff
 80062e4:	2201      	moveq	r2, #1
 80062e6:	608a      	str	r2, [r1, #8]
 80062e8:	6822      	ldr	r2, [r4, #0]
 80062ea:	f8df 9090 	ldr.w	r9, [pc, #144]	@ 800637c <_scanf_chars+0xb0>
 80062ee:	06d1      	lsls	r1, r2, #27
 80062f0:	bf5f      	itttt	pl
 80062f2:	681a      	ldrpl	r2, [r3, #0]
 80062f4:	1d11      	addpl	r1, r2, #4
 80062f6:	6019      	strpl	r1, [r3, #0]
 80062f8:	6816      	ldrpl	r6, [r2, #0]
 80062fa:	2700      	movs	r7, #0
 80062fc:	69a0      	ldr	r0, [r4, #24]
 80062fe:	b188      	cbz	r0, 8006324 <_scanf_chars+0x58>
 8006300:	2801      	cmp	r0, #1
 8006302:	d107      	bne.n	8006314 <_scanf_chars+0x48>
 8006304:	682b      	ldr	r3, [r5, #0]
 8006306:	781a      	ldrb	r2, [r3, #0]
 8006308:	6963      	ldr	r3, [r4, #20]
 800630a:	5c9b      	ldrb	r3, [r3, r2]
 800630c:	b953      	cbnz	r3, 8006324 <_scanf_chars+0x58>
 800630e:	2f00      	cmp	r7, #0
 8006310:	d031      	beq.n	8006376 <_scanf_chars+0xaa>
 8006312:	e022      	b.n	800635a <_scanf_chars+0x8e>
 8006314:	2802      	cmp	r0, #2
 8006316:	d120      	bne.n	800635a <_scanf_chars+0x8e>
 8006318:	682b      	ldr	r3, [r5, #0]
 800631a:	781b      	ldrb	r3, [r3, #0]
 800631c:	f819 3003 	ldrb.w	r3, [r9, r3]
 8006320:	071b      	lsls	r3, r3, #28
 8006322:	d41a      	bmi.n	800635a <_scanf_chars+0x8e>
 8006324:	6823      	ldr	r3, [r4, #0]
 8006326:	06da      	lsls	r2, r3, #27
 8006328:	bf5e      	ittt	pl
 800632a:	682b      	ldrpl	r3, [r5, #0]
 800632c:	781b      	ldrbpl	r3, [r3, #0]
 800632e:	f806 3b01 	strbpl.w	r3, [r6], #1
 8006332:	682a      	ldr	r2, [r5, #0]
 8006334:	686b      	ldr	r3, [r5, #4]
 8006336:	3201      	adds	r2, #1
 8006338:	602a      	str	r2, [r5, #0]
 800633a:	68a2      	ldr	r2, [r4, #8]
 800633c:	3b01      	subs	r3, #1
 800633e:	3a01      	subs	r2, #1
 8006340:	606b      	str	r3, [r5, #4]
 8006342:	3701      	adds	r7, #1
 8006344:	60a2      	str	r2, [r4, #8]
 8006346:	b142      	cbz	r2, 800635a <_scanf_chars+0x8e>
 8006348:	2b00      	cmp	r3, #0
 800634a:	dcd7      	bgt.n	80062fc <_scanf_chars+0x30>
 800634c:	f8d4 3180 	ldr.w	r3, [r4, #384]	@ 0x180
 8006350:	4629      	mov	r1, r5
 8006352:	4640      	mov	r0, r8
 8006354:	4798      	blx	r3
 8006356:	2800      	cmp	r0, #0
 8006358:	d0d0      	beq.n	80062fc <_scanf_chars+0x30>
 800635a:	6823      	ldr	r3, [r4, #0]
 800635c:	f013 0310 	ands.w	r3, r3, #16
 8006360:	d105      	bne.n	800636e <_scanf_chars+0xa2>
 8006362:	68e2      	ldr	r2, [r4, #12]
 8006364:	3201      	adds	r2, #1
 8006366:	60e2      	str	r2, [r4, #12]
 8006368:	69a2      	ldr	r2, [r4, #24]
 800636a:	b102      	cbz	r2, 800636e <_scanf_chars+0xa2>
 800636c:	7033      	strb	r3, [r6, #0]
 800636e:	6923      	ldr	r3, [r4, #16]
 8006370:	443b      	add	r3, r7
 8006372:	6123      	str	r3, [r4, #16]
 8006374:	2000      	movs	r0, #0
 8006376:	e8bd 83f8 	ldmia.w	sp!, {r3, r4, r5, r6, r7, r8, r9, pc}
 800637a:	bf00      	nop
 800637c:	08007f61 	.word	0x08007f61

08006380 <_scanf_i>:
 8006380:	e92d 4ff0 	stmdb	sp!, {r4, r5, r6, r7, r8, r9, sl, fp, lr}
 8006384:	4698      	mov	r8, r3
 8006386:	4b74      	ldr	r3, [pc, #464]	@ (8006558 <_scanf_i+0x1d8>)
 8006388:	460c      	mov	r4, r1
 800638a:	4682      	mov	sl, r0
 800638c:	4616      	mov	r6, r2
 800638e:	e893 0007 	ldmia.w	r3, {r0, r1, r2}
 8006392:	b087      	sub	sp, #28
 8006394:	ab03      	add	r3, sp, #12
 8006396:	e883 0007 	stmia.w	r3, {r0, r1, r2}
 800639a:	4b70      	ldr	r3, [pc, #448]	@ (800655c <_scanf_i+0x1dc>)
 800639c:	69a1      	ldr	r1, [r4, #24]
 800639e:	4a70      	ldr	r2, [pc, #448]	@ (8006560 <_scanf_i+0x1e0>)
 80063a0:	2903      	cmp	r1, #3
 80063a2:	bf08      	it	eq
 80063a4:	461a      	moveq	r2, r3
 80063a6:	68a3      	ldr	r3, [r4, #8]
 80063a8:	9201      	str	r2, [sp, #4]
 80063aa:	1e5a      	subs	r2, r3, #1
 80063ac:	f5b2 7fae 	cmp.w	r2, #348	@ 0x15c
 80063b0:	bf88      	it	hi
 80063b2:	f46f 75ae 	mvnhi.w	r5, #348	@ 0x15c
 80063b6:	4627      	mov	r7, r4
 80063b8:	bf82      	ittt	hi
 80063ba:	eb03 0905 	addhi.w	r9, r3, r5
 80063be:	f240 135d 	movwhi	r3, #349	@ 0x15d
 80063c2:	60a3      	strhi	r3, [r4, #8]
 80063c4:	f857 3b1c 	ldr.w	r3, [r7], #28
 80063c8:	f443 6350 	orr.w	r3, r3, #3328	@ 0xd00
 80063cc:	bf98      	it	ls
 80063ce:	f04f 0900 	movls.w	r9, #0
 80063d2:	6023      	str	r3, [r4, #0]
 80063d4:	463d      	mov	r5, r7
 80063d6:	f04f 0b00 	mov.w	fp, #0
 80063da:	6831      	ldr	r1, [r6, #0]
 80063dc:	ab03      	add	r3, sp, #12
 80063de:	7809      	ldrb	r1, [r1, #0]
 80063e0:	f853 002b 	ldr.w	r0, [r3, fp, lsl #2]
 80063e4:	2202      	movs	r2, #2
 80063e6:	f7f9 ff23 	bl	8000230 <memchr>
 80063ea:	b328      	cbz	r0, 8006438 <_scanf_i+0xb8>
 80063ec:	f1bb 0f01 	cmp.w	fp, #1
 80063f0:	d159      	bne.n	80064a6 <_scanf_i+0x126>
 80063f2:	6862      	ldr	r2, [r4, #4]
 80063f4:	b92a      	cbnz	r2, 8006402 <_scanf_i+0x82>
 80063f6:	6822      	ldr	r2, [r4, #0]
 80063f8:	2108      	movs	r1, #8
 80063fa:	f442 7200 	orr.w	r2, r2, #512	@ 0x200
 80063fe:	6061      	str	r1, [r4, #4]
 8006400:	6022      	str	r2, [r4, #0]
 8006402:	6822      	ldr	r2, [r4, #0]
 8006404:	f422 62a0 	bic.w	r2, r2, #1280	@ 0x500
 8006408:	6022      	str	r2, [r4, #0]
 800640a:	68a2      	ldr	r2, [r4, #8]
 800640c:	1e51      	subs	r1, r2, #1
 800640e:	60a1      	str	r1, [r4, #8]
 8006410:	b192      	cbz	r2, 8006438 <_scanf_i+0xb8>
 8006412:	6832      	ldr	r2, [r6, #0]
 8006414:	1c51      	adds	r1, r2, #1
 8006416:	6031      	str	r1, [r6, #0]
 8006418:	7812      	ldrb	r2, [r2, #0]
 800641a:	f805 2b01 	strb.w	r2, [r5], #1
 800641e:	6872      	ldr	r2, [r6, #4]
 8006420:	3a01      	subs	r2, #1
 8006422:	2a00      	cmp	r2, #0
 8006424:	6072      	str	r2, [r6, #4]
 8006426:	dc07      	bgt.n	8006438 <_scanf_i+0xb8>
 8006428:	f8d4 2180 	ldr.w	r2, [r4, #384]	@ 0x180
 800642c:	4631      	mov	r1, r6
 800642e:	4650      	mov	r0, sl
 8006430:	4790      	blx	r2
 8006432:	2800      	cmp	r0, #0
 8006434:	f040 8085 	bne.w	8006542 <_scanf_i+0x1c2>
 8006438:	f10b 0b01 	add.w	fp, fp, #1
 800643c:	f1bb 0f03 	cmp.w	fp, #3
 8006440:	d1cb      	bne.n	80063da <_scanf_i+0x5a>
 8006442:	6863      	ldr	r3, [r4, #4]
 8006444:	b90b      	cbnz	r3, 800644a <_scanf_i+0xca>
 8006446:	230a      	movs	r3, #10
 8006448:	6063      	str	r3, [r4, #4]
 800644a:	6863      	ldr	r3, [r4, #4]
 800644c:	4945      	ldr	r1, [pc, #276]	@ (8006564 <_scanf_i+0x1e4>)
 800644e:	6960      	ldr	r0, [r4, #20]
 8006450:	1ac9      	subs	r1, r1, r3
 8006452:	f000 f889 	bl	8006568 <__sccl>
 8006456:	f04f 0b00 	mov.w	fp, #0
 800645a:	68a3      	ldr	r3, [r4, #8]
 800645c:	6822      	ldr	r2, [r4, #0]
 800645e:	2b00      	cmp	r3, #0
 8006460:	d03d      	beq.n	80064de <_scanf_i+0x15e>
 8006462:	6831      	ldr	r1, [r6, #0]
 8006464:	6960      	ldr	r0, [r4, #20]
 8006466:	f891 c000 	ldrb.w	ip, [r1]
 800646a:	f810 000c 	ldrb.w	r0, [r0, ip]
 800646e:	2800      	cmp	r0, #0
 8006470:	d035      	beq.n	80064de <_scanf_i+0x15e>
 8006472:	f1bc 0f30 	cmp.w	ip, #48	@ 0x30
 8006476:	d124      	bne.n	80064c2 <_scanf_i+0x142>
 8006478:	0510      	lsls	r0, r2, #20
 800647a:	d522      	bpl.n	80064c2 <_scanf_i+0x142>
 800647c:	f10b 0b01 	add.w	fp, fp, #1
 8006480:	f1b9 0f00 	cmp.w	r9, #0
 8006484:	d003      	beq.n	800648e <_scanf_i+0x10e>
 8006486:	3301      	adds	r3, #1
 8006488:	f109 39ff 	add.w	r9, r9, #4294967295	@ 0xffffffff
 800648c:	60a3      	str	r3, [r4, #8]
 800648e:	6873      	ldr	r3, [r6, #4]
 8006490:	3b01      	subs	r3, #1
 8006492:	2b00      	cmp	r3, #0
 8006494:	6073      	str	r3, [r6, #4]
 8006496:	dd1b      	ble.n	80064d0 <_scanf_i+0x150>
 8006498:	6833      	ldr	r3, [r6, #0]
 800649a:	3301      	adds	r3, #1
 800649c:	6033      	str	r3, [r6, #0]
 800649e:	68a3      	ldr	r3, [r4, #8]
 80064a0:	3b01      	subs	r3, #1
 80064a2:	60a3      	str	r3, [r4, #8]
 80064a4:	e7d9      	b.n	800645a <_scanf_i+0xda>
 80064a6:	f1bb 0f02 	cmp.w	fp, #2
 80064aa:	d1ae      	bne.n	800640a <_scanf_i+0x8a>
 80064ac:	6822      	ldr	r2, [r4, #0]
 80064ae:	f402 61c0 	and.w	r1, r2, #1536	@ 0x600
 80064b2:	f5b1 7f00 	cmp.w	r1, #512	@ 0x200
 80064b6:	d1c4      	bne.n	8006442 <_scanf_i+0xc2>
 80064b8:	2110      	movs	r1, #16
 80064ba:	6061      	str	r1, [r4, #4]
 80064bc:	f442 7280 	orr.w	r2, r2, #256	@ 0x100
 80064c0:	e7a2      	b.n	8006408 <_scanf_i+0x88>
 80064c2:	f422 6210 	bic.w	r2, r2, #2304	@ 0x900
 80064c6:	6022      	str	r2, [r4, #0]
 80064c8:	780b      	ldrb	r3, [r1, #0]
 80064ca:	f805 3b01 	strb.w	r3, [r5], #1
 80064ce:	e7de      	b.n	800648e <_scanf_i+0x10e>
 80064d0:	f8d4 3180 	ldr.w	r3, [r4, #384]	@ 0x180
 80064d4:	4631      	mov	r1, r6
 80064d6:	4650      	mov	r0, sl
 80064d8:	4798      	blx	r3
 80064da:	2800      	cmp	r0, #0
 80064dc:	d0df      	beq.n	800649e <_scanf_i+0x11e>
 80064de:	6823      	ldr	r3, [r4, #0]
 80064e0:	05d9      	lsls	r1, r3, #23
 80064e2:	d50d      	bpl.n	8006500 <_scanf_i+0x180>
 80064e4:	42bd      	cmp	r5, r7
 80064e6:	d909      	bls.n	80064fc <_scanf_i+0x17c>
 80064e8:	f815 1c01 	ldrb.w	r1, [r5, #-1]
 80064ec:	f8d4 317c 	ldr.w	r3, [r4, #380]	@ 0x17c
 80064f0:	4632      	mov	r2, r6
 80064f2:	4650      	mov	r0, sl
 80064f4:	4798      	blx	r3
 80064f6:	f105 39ff 	add.w	r9, r5, #4294967295	@ 0xffffffff
 80064fa:	464d      	mov	r5, r9
 80064fc:	42bd      	cmp	r5, r7
 80064fe:	d028      	beq.n	8006552 <_scanf_i+0x1d2>
 8006500:	6822      	ldr	r2, [r4, #0]
 8006502:	f012 0210 	ands.w	r2, r2, #16
 8006506:	d113      	bne.n	8006530 <_scanf_i+0x1b0>
 8006508:	702a      	strb	r2, [r5, #0]
 800650a:	6863      	ldr	r3, [r4, #4]
 800650c:	9e01      	ldr	r6, [sp, #4]
 800650e:	4639      	mov	r1, r7
 8006510:	4650      	mov	r0, sl
 8006512:	47b0      	blx	r6
 8006514:	f8d8 3000 	ldr.w	r3, [r8]
 8006518:	6821      	ldr	r1, [r4, #0]
 800651a:	1d1a      	adds	r2, r3, #4
 800651c:	f8c8 2000 	str.w	r2, [r8]
 8006520:	f011 0f20 	tst.w	r1, #32
 8006524:	681b      	ldr	r3, [r3, #0]
 8006526:	d00f      	beq.n	8006548 <_scanf_i+0x1c8>
 8006528:	6018      	str	r0, [r3, #0]
 800652a:	68e3      	ldr	r3, [r4, #12]
 800652c:	3301      	adds	r3, #1
 800652e:	60e3      	str	r3, [r4, #12]
 8006530:	6923      	ldr	r3, [r4, #16]
 8006532:	1bed      	subs	r5, r5, r7
 8006534:	445d      	add	r5, fp
 8006536:	442b      	add	r3, r5
 8006538:	6123      	str	r3, [r4, #16]
 800653a:	2000      	movs	r0, #0
 800653c:	b007      	add	sp, #28
 800653e:	e8bd 8ff0 	ldmia.w	sp!, {r4, r5, r6, r7, r8, r9, sl, fp, pc}
 8006542:	f04f 0b00 	mov.w	fp, #0
 8006546:	e7ca      	b.n	80064de <_scanf_i+0x15e>
 8006548:	07ca      	lsls	r2, r1, #31
 800654a:	bf4c      	ite	mi
 800654c:	8018      	strhmi	r0, [r3, #0]
 800654e:	6018      	strpl	r0, [r3, #0]
 8006550:	e7eb      	b.n	800652a <_scanf_i+0x1aa>
 8006552:	2001      	movs	r0, #1
 8006554:	e7f2      	b.n	800653c <_scanf_i+0x1bc>
 8006556:	bf00      	nop
 8006558:	08007d00 	.word	0x08007d00
 800655c:	080045b1 	.word	0x080045b1
 8006560:	0800724d 	.word	0x0800724d
 8006564:	08007e69 	.word	0x08007e69

08006568 <__sccl>:
 8006568:	b570      	push	{r4, r5, r6, lr}
 800656a:	780b      	ldrb	r3, [r1, #0]
 800656c:	4604      	mov	r4, r0
 800656e:	2b5e      	cmp	r3, #94	@ 0x5e
 8006570:	bf0b      	itete	eq
 8006572:	784b      	ldrbeq	r3, [r1, #1]
 8006574:	1c4a      	addne	r2, r1, #1
 8006576:	1c8a      	addeq	r2, r1, #2
 8006578:	2100      	movne	r1, #0
 800657a:	bf08      	it	eq
 800657c:	2101      	moveq	r1, #1
 800657e:	3801      	subs	r0, #1
 8006580:	f104 05ff 	add.w	r5, r4, #255	@ 0xff
 8006584:	f800 1f01 	strb.w	r1, [r0, #1]!
 8006588:	42a8      	cmp	r0, r5
 800658a:	d1fb      	bne.n	8006584 <__sccl+0x1c>
 800658c:	b90b      	cbnz	r3, 8006592 <__sccl+0x2a>
 800658e:	1e50      	subs	r0, r2, #1
 8006590:	bd70      	pop	{r4, r5, r6, pc}
 8006592:	f081 0101 	eor.w	r1, r1, #1
 8006596:	54e1      	strb	r1, [r4, r3]
 8006598:	4610      	mov	r0, r2
 800659a:	4602      	mov	r2, r0
 800659c:	f812 5b01 	ldrb.w	r5, [r2], #1
 80065a0:	2d2d      	cmp	r5, #45	@ 0x2d
 80065a2:	d005      	beq.n	80065b0 <__sccl+0x48>
 80065a4:	2d5d      	cmp	r5, #93	@ 0x5d
 80065a6:	d016      	beq.n	80065d6 <__sccl+0x6e>
 80065a8:	2d00      	cmp	r5, #0
 80065aa:	d0f1      	beq.n	8006590 <__sccl+0x28>
 80065ac:	462b      	mov	r3, r5
 80065ae:	e7f2      	b.n	8006596 <__sccl+0x2e>
 80065b0:	7846      	ldrb	r6, [r0, #1]
 80065b2:	2e5d      	cmp	r6, #93	@ 0x5d
 80065b4:	d0fa      	beq.n	80065ac <__sccl+0x44>
 80065b6:	42b3      	cmp	r3, r6
 80065b8:	dcf8      	bgt.n	80065ac <__sccl+0x44>
 80065ba:	3002      	adds	r0, #2
 80065bc:	461a      	mov	r2, r3
 80065be:	3201      	adds	r2, #1
 80065c0:	4296      	cmp	r6, r2
 80065c2:	54a1      	strb	r1, [r4, r2]
 80065c4:	dcfb      	bgt.n	80065be <__sccl+0x56>
 80065c6:	1af2      	subs	r2, r6, r3
 80065c8:	3a01      	subs	r2, #1
 80065ca:	1c5d      	adds	r5, r3, #1
 80065cc:	42b3      	cmp	r3, r6
 80065ce:	bfa8      	it	ge
 80065d0:	2200      	movge	r2, #0
 80065d2:	18ab      	adds	r3, r5, r2
 80065d4:	e7e1      	b.n	800659a <__sccl+0x32>
 80065d6:	4610      	mov	r0, r2
 80065d8:	e7da      	b.n	8006590 <__sccl+0x28>
	...

080065dc <__sflush_r>:
 80065dc:	f9b1 200c 	ldrsh.w	r2, [r1, #12]
 80065e0:	e92d 41f0 	stmdb	sp!, {r4, r5, r6, r7, r8, lr}
 80065e4:	0716      	lsls	r6, r2, #28
 80065e6:	4605      	mov	r5, r0
 80065e8:	460c      	mov	r4, r1
 80065ea:	d454      	bmi.n	8006696 <__sflush_r+0xba>
 80065ec:	684b      	ldr	r3, [r1, #4]
 80065ee:	2b00      	cmp	r3, #0
 80065f0:	dc02      	bgt.n	80065f8 <__sflush_r+0x1c>
 80065f2:	6c0b      	ldr	r3, [r1, #64]	@ 0x40
 80065f4:	2b00      	cmp	r3, #0
 80065f6:	dd48      	ble.n	800668a <__sflush_r+0xae>
 80065f8:	6ae6      	ldr	r6, [r4, #44]	@ 0x2c
 80065fa:	2e00      	cmp	r6, #0
 80065fc:	d045      	beq.n	800668a <__sflush_r+0xae>
 80065fe:	2300      	movs	r3, #0
 8006600:	f412 5280 	ands.w	r2, r2, #4096	@ 0x1000
 8006604:	682f      	ldr	r7, [r5, #0]
 8006606:	6a21      	ldr	r1, [r4, #32]
 8006608:	602b      	str	r3, [r5, #0]
 800660a:	d030      	beq.n	800666e <__sflush_r+0x92>
 800660c:	6d62      	ldr	r2, [r4, #84]	@ 0x54
 800660e:	89a3      	ldrh	r3, [r4, #12]
 8006610:	0759      	lsls	r1, r3, #29
 8006612:	d505      	bpl.n	8006620 <__sflush_r+0x44>
 8006614:	6863      	ldr	r3, [r4, #4]
 8006616:	1ad2      	subs	r2, r2, r3
 8006618:	6b63      	ldr	r3, [r4, #52]	@ 0x34
 800661a:	b10b      	cbz	r3, 8006620 <__sflush_r+0x44>
 800661c:	6c23      	ldr	r3, [r4, #64]	@ 0x40
 800661e:	1ad2      	subs	r2, r2, r3
 8006620:	2300      	movs	r3, #0
 8006622:	6ae6      	ldr	r6, [r4, #44]	@ 0x2c
 8006624:	6a21      	ldr	r1, [r4, #32]
 8006626:	4628      	mov	r0, r5
 8006628:	47b0      	blx	r6
 800662a:	1c43      	adds	r3, r0, #1
 800662c:	89a3      	ldrh	r3, [r4, #12]
 800662e:	d106      	bne.n	800663e <__sflush_r+0x62>
 8006630:	6829      	ldr	r1, [r5, #0]
 8006632:	291d      	cmp	r1, #29
 8006634:	d82b      	bhi.n	800668e <__sflush_r+0xb2>
 8006636:	4a2a      	ldr	r2, [pc, #168]	@ (80066e0 <__sflush_r+0x104>)
 8006638:	40ca      	lsrs	r2, r1
 800663a:	07d6      	lsls	r6, r2, #31
 800663c:	d527      	bpl.n	800668e <__sflush_r+0xb2>
 800663e:	2200      	movs	r2, #0
 8006640:	6062      	str	r2, [r4, #4]
 8006642:	04d9      	lsls	r1, r3, #19
 8006644:	6922      	ldr	r2, [r4, #16]
 8006646:	6022      	str	r2, [r4, #0]
 8006648:	d504      	bpl.n	8006654 <__sflush_r+0x78>
 800664a:	1c42      	adds	r2, r0, #1
 800664c:	d101      	bne.n	8006652 <__sflush_r+0x76>
 800664e:	682b      	ldr	r3, [r5, #0]
 8006650:	b903      	cbnz	r3, 8006654 <__sflush_r+0x78>
 8006652:	6560      	str	r0, [r4, #84]	@ 0x54
 8006654:	6b61      	ldr	r1, [r4, #52]	@ 0x34
 8006656:	602f      	str	r7, [r5, #0]
 8006658:	b1b9      	cbz	r1, 800668a <__sflush_r+0xae>
 800665a:	f104 0344 	add.w	r3, r4, #68	@ 0x44
 800665e:	4299      	cmp	r1, r3
 8006660:	d002      	beq.n	8006668 <__sflush_r+0x8c>
 8006662:	4628      	mov	r0, r5
 8006664:	f7fe fecc 	bl	8005400 <_free_r>
 8006668:	2300      	movs	r3, #0
 800666a:	6363      	str	r3, [r4, #52]	@ 0x34
 800666c:	e00d      	b.n	800668a <__sflush_r+0xae>
 800666e:	2301      	movs	r3, #1
 8006670:	4628      	mov	r0, r5
 8006672:	47b0      	blx	r6
 8006674:	4602      	mov	r2, r0
 8006676:	1c50      	adds	r0, r2, #1
 8006678:	d1c9      	bne.n	800660e <__sflush_r+0x32>
 800667a:	682b      	ldr	r3, [r5, #0]
 800667c:	2b00      	cmp	r3, #0
 800667e:	d0c6      	beq.n	800660e <__sflush_r+0x32>
 8006680:	2b1d      	cmp	r3, #29
 8006682:	d001      	beq.n	8006688 <__sflush_r+0xac>
 8006684:	2b16      	cmp	r3, #22
 8006686:	d11e      	bne.n	80066c6 <__sflush_r+0xea>
 8006688:	602f      	str	r7, [r5, #0]
 800668a:	2000      	movs	r0, #0
 800668c:	e022      	b.n	80066d4 <__sflush_r+0xf8>
 800668e:	f043 0340 	orr.w	r3, r3, #64	@ 0x40
 8006692:	b21b      	sxth	r3, r3
 8006694:	e01b      	b.n	80066ce <__sflush_r+0xf2>
 8006696:	690f      	ldr	r7, [r1, #16]
 8006698:	2f00      	cmp	r7, #0
 800669a:	d0f6      	beq.n	800668a <__sflush_r+0xae>
 800669c:	0793      	lsls	r3, r2, #30
 800669e:	680e      	ldr	r6, [r1, #0]
 80066a0:	bf08      	it	eq
 80066a2:	694b      	ldreq	r3, [r1, #20]
 80066a4:	600f      	str	r7, [r1, #0]
 80066a6:	bf18      	it	ne
 80066a8:	2300      	movne	r3, #0
 80066aa:	eba6 0807 	sub.w	r8, r6, r7
 80066ae:	608b      	str	r3, [r1, #8]
 80066b0:	f1b8 0f00 	cmp.w	r8, #0
 80066b4:	dde9      	ble.n	800668a <__sflush_r+0xae>
 80066b6:	6a21      	ldr	r1, [r4, #32]
 80066b8:	6aa6      	ldr	r6, [r4, #40]	@ 0x28
 80066ba:	4643      	mov	r3, r8
 80066bc:	463a      	mov	r2, r7
 80066be:	4628      	mov	r0, r5
 80066c0:	47b0      	blx	r6
 80066c2:	2800      	cmp	r0, #0
 80066c4:	dc08      	bgt.n	80066d8 <__sflush_r+0xfc>
 80066c6:	f9b4 300c 	ldrsh.w	r3, [r4, #12]
 80066ca:	f043 0340 	orr.w	r3, r3, #64	@ 0x40
 80066ce:	81a3      	strh	r3, [r4, #12]
 80066d0:	f04f 30ff 	mov.w	r0, #4294967295	@ 0xffffffff
 80066d4:	e8bd 81f0 	ldmia.w	sp!, {r4, r5, r6, r7, r8, pc}
 80066d8:	4407      	add	r7, r0
 80066da:	eba8 0800 	sub.w	r8, r8, r0
 80066de:	e7e7      	b.n	80066b0 <__sflush_r+0xd4>
 80066e0:	20400001 	.word	0x20400001

080066e4 <_fflush_r>:
 80066e4:	b538      	push	{r3, r4, r5, lr}
 80066e6:	690b      	ldr	r3, [r1, #16]
 80066e8:	4605      	mov	r5, r0
 80066ea:	460c      	mov	r4, r1
 80066ec:	b913      	cbnz	r3, 80066f4 <_fflush_r+0x10>
 80066ee:	2500      	movs	r5, #0
 80066f0:	4628      	mov	r0, r5
 80066f2:	bd38      	pop	{r3, r4, r5, pc}
 80066f4:	b118      	cbz	r0, 80066fe <_fflush_r+0x1a>
 80066f6:	6a03      	ldr	r3, [r0, #32]
 80066f8:	b90b      	cbnz	r3, 80066fe <_fflush_r+0x1a>
 80066fa:	f7fd f8bd 	bl	8003878 <__sinit>
 80066fe:	f9b4 300c 	ldrsh.w	r3, [r4, #12]
 8006702:	2b00      	cmp	r3, #0
 8006704:	d0f3      	beq.n	80066ee <_fflush_r+0xa>
 8006706:	6e62      	ldr	r2, [r4, #100]	@ 0x64
 8006708:	07d0      	lsls	r0, r2, #31
 800670a:	d404      	bmi.n	8006716 <_fflush_r+0x32>
 800670c:	0599      	lsls	r1, r3, #22
 800670e:	d402      	bmi.n	8006716 <_fflush_r+0x32>
 8006710:	6da0      	ldr	r0, [r4, #88]	@ 0x58
 8006712:	f7fd ffe8 	bl	80046e6 <__retarget_lock_acquire_recursive>
 8006716:	4628      	mov	r0, r5
 8006718:	4621      	mov	r1, r4
 800671a:	f7ff ff5f 	bl	80065dc <__sflush_r>
 800671e:	6e63      	ldr	r3, [r4, #100]	@ 0x64
 8006720:	07da      	lsls	r2, r3, #31
 8006722:	4605      	mov	r5, r0
 8006724:	d4e4      	bmi.n	80066f0 <_fflush_r+0xc>
 8006726:	89a3      	ldrh	r3, [r4, #12]
 8006728:	059b      	lsls	r3, r3, #22
 800672a:	d4e1      	bmi.n	80066f0 <_fflush_r+0xc>
 800672c:	6da0      	ldr	r0, [r4, #88]	@ 0x58
 800672e:	f7fd ffdb 	bl	80046e8 <__retarget_lock_release_recursive>
 8006732:	e7dd      	b.n	80066f0 <_fflush_r+0xc>

08006734 <__malloc_lock>:
 8006734:	4801      	ldr	r0, [pc, #4]	@ (800673c <__malloc_lock+0x8>)
 8006736:	f7fd bfd6 	b.w	80046e6 <__retarget_lock_acquire_recursive>
 800673a:	bf00      	nop
 800673c:	20000478 	.word	0x20000478

08006740 <__malloc_unlock>:
 8006740:	4801      	ldr	r0, [pc, #4]	@ (8006748 <__malloc_unlock+0x8>)
 8006742:	f7fd bfd1 	b.w	80046e8 <__retarget_lock_release_recursive>
 8006746:	bf00      	nop
 8006748:	20000478 	.word	0x20000478

0800674c <_Balloc>:
 800674c:	b570      	push	{r4, r5, r6, lr}
 800674e:	69c6      	ldr	r6, [r0, #28]
 8006750:	4604      	mov	r4, r0
 8006752:	460d      	mov	r5, r1
 8006754:	b976      	cbnz	r6, 8006774 <_Balloc+0x28>
 8006756:	2010      	movs	r0, #16
 8006758:	f7ff fcfc 	bl	8006154 <malloc>
 800675c:	4602      	mov	r2, r0
 800675e:	61e0      	str	r0, [r4, #28]
 8006760:	b920      	cbnz	r0, 800676c <_Balloc+0x20>
 8006762:	4b18      	ldr	r3, [pc, #96]	@ (80067c4 <_Balloc+0x78>)
 8006764:	4818      	ldr	r0, [pc, #96]	@ (80067c8 <_Balloc+0x7c>)
 8006766:	216b      	movs	r1, #107	@ 0x6b
 8006768:	f000 fdaa 	bl	80072c0 <__assert_func>
 800676c:	e9c0 6601 	strd	r6, r6, [r0, #4]
 8006770:	6006      	str	r6, [r0, #0]
 8006772:	60c6      	str	r6, [r0, #12]
 8006774:	69e6      	ldr	r6, [r4, #28]
 8006776:	68f3      	ldr	r3, [r6, #12]
 8006778:	b183      	cbz	r3, 800679c <_Balloc+0x50>
 800677a:	69e3      	ldr	r3, [r4, #28]
 800677c:	68db      	ldr	r3, [r3, #12]
 800677e:	f853 0025 	ldr.w	r0, [r3, r5, lsl #2]
 8006782:	b9b8      	cbnz	r0, 80067b4 <_Balloc+0x68>
 8006784:	2101      	movs	r1, #1
 8006786:	fa01 f605 	lsl.w	r6, r1, r5
 800678a:	1d72      	adds	r2, r6, #5
 800678c:	0092      	lsls	r2, r2, #2
 800678e:	4620      	mov	r0, r4
 8006790:	f000 fdb4 	bl	80072fc <_calloc_r>
 8006794:	b160      	cbz	r0, 80067b0 <_Balloc+0x64>
 8006796:	e9c0 5601 	strd	r5, r6, [r0, #4]
 800679a:	e00e      	b.n	80067ba <_Balloc+0x6e>
 800679c:	2221      	movs	r2, #33	@ 0x21
 800679e:	2104      	movs	r1, #4
 80067a0:	4620      	mov	r0, r4
 80067a2:	f000 fdab 	bl	80072fc <_calloc_r>
 80067a6:	69e3      	ldr	r3, [r4, #28]
 80067a8:	60f0      	str	r0, [r6, #12]
 80067aa:	68db      	ldr	r3, [r3, #12]
 80067ac:	2b00      	cmp	r3, #0
 80067ae:	d1e4      	bne.n	800677a <_Balloc+0x2e>
 80067b0:	2000      	movs	r0, #0
 80067b2:	bd70      	pop	{r4, r5, r6, pc}
 80067b4:	6802      	ldr	r2, [r0, #0]
 80067b6:	f843 2025 	str.w	r2, [r3, r5, lsl #2]
 80067ba:	2300      	movs	r3, #0
 80067bc:	e9c0 3303 	strd	r3, r3, [r0, #12]
 80067c0:	e7f7      	b.n	80067b2 <_Balloc+0x66>
 80067c2:	bf00      	nop
 80067c4:	08007d68 	.word	0x08007d68
 80067c8:	08007e74 	.word	0x08007e74

080067cc <_Bfree>:
 80067cc:	b570      	push	{r4, r5, r6, lr}
 80067ce:	69c6      	ldr	r6, [r0, #28]
 80067d0:	4605      	mov	r5, r0
 80067d2:	460c      	mov	r4, r1
 80067d4:	b976      	cbnz	r6, 80067f4 <_Bfree+0x28>
 80067d6:	2010      	movs	r0, #16
 80067d8:	f7ff fcbc 	bl	8006154 <malloc>
 80067dc:	4602      	mov	r2, r0
 80067de:	61e8      	str	r0, [r5, #28]
 80067e0:	b920      	cbnz	r0, 80067ec <_Bfree+0x20>
 80067e2:	4b09      	ldr	r3, [pc, #36]	@ (8006808 <_Bfree+0x3c>)
 80067e4:	4809      	ldr	r0, [pc, #36]	@ (800680c <_Bfree+0x40>)
 80067e6:	218f      	movs	r1, #143	@ 0x8f
 80067e8:	f000 fd6a 	bl	80072c0 <__assert_func>
 80067ec:	e9c0 6601 	strd	r6, r6, [r0, #4]
 80067f0:	6006      	str	r6, [r0, #0]
 80067f2:	60c6      	str	r6, [r0, #12]
 80067f4:	b13c      	cbz	r4, 8006806 <_Bfree+0x3a>
 80067f6:	69eb      	ldr	r3, [r5, #28]
 80067f8:	6862      	ldr	r2, [r4, #4]
 80067fa:	68db      	ldr	r3, [r3, #12]
 80067fc:	f853 1022 	ldr.w	r1, [r3, r2, lsl #2]
 8006800:	6021      	str	r1, [r4, #0]
 8006802:	f843 4022 	str.w	r4, [r3, r2, lsl #2]
 8006806:	bd70      	pop	{r4, r5, r6, pc}
 8006808:	08007d68 	.word	0x08007d68
 800680c:	08007e74 	.word	0x08007e74

08006810 <__multadd>:
 8006810:	e92d 41f0 	stmdb	sp!, {r4, r5, r6, r7, r8, lr}
 8006814:	690d      	ldr	r5, [r1, #16]
 8006816:	4607      	mov	r7, r0
 8006818:	460c      	mov	r4, r1
 800681a:	461e      	mov	r6, r3
 800681c:	f101 0c14 	add.w	ip, r1, #20
 8006820:	2000      	movs	r0, #0
 8006822:	f8dc 3000 	ldr.w	r3, [ip]
 8006826:	b299      	uxth	r1, r3
 8006828:	fb02 6101 	mla	r1, r2, r1, r6
 800682c:	0c1e      	lsrs	r6, r3, #16
 800682e:	0c0b      	lsrs	r3, r1, #16
 8006830:	fb02 3306 	mla	r3, r2, r6, r3
 8006834:	b289      	uxth	r1, r1
 8006836:	3001      	adds	r0, #1
 8006838:	eb01 4103 	add.w	r1, r1, r3, lsl #16
 800683c:	4285      	cmp	r5, r0
 800683e:	f84c 1b04 	str.w	r1, [ip], #4
 8006842:	ea4f 4613 	mov.w	r6, r3, lsr #16
 8006846:	dcec      	bgt.n	8006822 <__multadd+0x12>
 8006848:	b30e      	cbz	r6, 800688e <__multadd+0x7e>
 800684a:	68a3      	ldr	r3, [r4, #8]
 800684c:	42ab      	cmp	r3, r5
 800684e:	dc19      	bgt.n	8006884 <__multadd+0x74>
 8006850:	6861      	ldr	r1, [r4, #4]
 8006852:	4638      	mov	r0, r7
 8006854:	3101      	adds	r1, #1
 8006856:	f7ff ff79 	bl	800674c <_Balloc>
 800685a:	4680      	mov	r8, r0
 800685c:	b928      	cbnz	r0, 800686a <__multadd+0x5a>
 800685e:	4602      	mov	r2, r0
 8006860:	4b0c      	ldr	r3, [pc, #48]	@ (8006894 <__multadd+0x84>)
 8006862:	480d      	ldr	r0, [pc, #52]	@ (8006898 <__multadd+0x88>)
 8006864:	21ba      	movs	r1, #186	@ 0xba
 8006866:	f000 fd2b 	bl	80072c0 <__assert_func>
 800686a:	6922      	ldr	r2, [r4, #16]
 800686c:	3202      	adds	r2, #2
 800686e:	f104 010c 	add.w	r1, r4, #12
 8006872:	0092      	lsls	r2, r2, #2
 8006874:	300c      	adds	r0, #12
 8006876:	f7fd ff4d 	bl	8004714 <memcpy>
 800687a:	4621      	mov	r1, r4
 800687c:	4638      	mov	r0, r7
 800687e:	f7ff ffa5 	bl	80067cc <_Bfree>
 8006882:	4644      	mov	r4, r8
 8006884:	eb04 0385 	add.w	r3, r4, r5, lsl #2
 8006888:	3501      	adds	r5, #1
 800688a:	615e      	str	r6, [r3, #20]
 800688c:	6125      	str	r5, [r4, #16]
 800688e:	4620      	mov	r0, r4
 8006890:	e8bd 81f0 	ldmia.w	sp!, {r4, r5, r6, r7, r8, pc}
 8006894:	08007dd7 	.word	0x08007dd7
 8006898:	08007e74 	.word	0x08007e74

0800689c <__s2b>:
 800689c:	e92d 43f8 	stmdb	sp!, {r3, r4, r5, r6, r7, r8, r9, lr}
 80068a0:	460c      	mov	r4, r1
 80068a2:	4615      	mov	r5, r2
 80068a4:	461f      	mov	r7, r3
 80068a6:	2209      	movs	r2, #9
 80068a8:	3308      	adds	r3, #8
 80068aa:	4606      	mov	r6, r0
 80068ac:	fb93 f3f2 	sdiv	r3, r3, r2
 80068b0:	2100      	movs	r1, #0
 80068b2:	2201      	movs	r2, #1
 80068b4:	429a      	cmp	r2, r3
 80068b6:	db09      	blt.n	80068cc <__s2b+0x30>
 80068b8:	4630      	mov	r0, r6
 80068ba:	f7ff ff47 	bl	800674c <_Balloc>
 80068be:	b940      	cbnz	r0, 80068d2 <__s2b+0x36>
 80068c0:	4602      	mov	r2, r0
 80068c2:	4b19      	ldr	r3, [pc, #100]	@ (8006928 <__s2b+0x8c>)
 80068c4:	4819      	ldr	r0, [pc, #100]	@ (800692c <__s2b+0x90>)
 80068c6:	21d3      	movs	r1, #211	@ 0xd3
 80068c8:	f000 fcfa 	bl	80072c0 <__assert_func>
 80068cc:	0052      	lsls	r2, r2, #1
 80068ce:	3101      	adds	r1, #1
 80068d0:	e7f0      	b.n	80068b4 <__s2b+0x18>
 80068d2:	9b08      	ldr	r3, [sp, #32]
 80068d4:	6143      	str	r3, [r0, #20]
 80068d6:	2d09      	cmp	r5, #9
 80068d8:	f04f 0301 	mov.w	r3, #1
 80068dc:	6103      	str	r3, [r0, #16]
 80068de:	dd16      	ble.n	800690e <__s2b+0x72>
 80068e0:	f104 0909 	add.w	r9, r4, #9
 80068e4:	46c8      	mov	r8, r9
 80068e6:	442c      	add	r4, r5
 80068e8:	f818 3b01 	ldrb.w	r3, [r8], #1
 80068ec:	4601      	mov	r1, r0
 80068ee:	3b30      	subs	r3, #48	@ 0x30
 80068f0:	220a      	movs	r2, #10
 80068f2:	4630      	mov	r0, r6
 80068f4:	f7ff ff8c 	bl	8006810 <__multadd>
 80068f8:	45a0      	cmp	r8, r4
 80068fa:	d1f5      	bne.n	80068e8 <__s2b+0x4c>
 80068fc:	f1a5 0408 	sub.w	r4, r5, #8
 8006900:	444c      	add	r4, r9
 8006902:	1b2d      	subs	r5, r5, r4
 8006904:	1963      	adds	r3, r4, r5
 8006906:	42bb      	cmp	r3, r7
 8006908:	db04      	blt.n	8006914 <__s2b+0x78>
 800690a:	e8bd 83f8 	ldmia.w	sp!, {r3, r4, r5, r6, r7, r8, r9, pc}
 800690e:	340a      	adds	r4, #10
 8006910:	2509      	movs	r5, #9
 8006912:	e7f6      	b.n	8006902 <__s2b+0x66>
 8006914:	f814 3b01 	ldrb.w	r3, [r4], #1
 8006918:	4601      	mov	r1, r0
 800691a:	3b30      	subs	r3, #48	@ 0x30
 800691c:	220a      	movs	r2, #10
 800691e:	4630      	mov	r0, r6
 8006920:	f7ff ff76 	bl	8006810 <__multadd>
 8006924:	e7ee      	b.n	8006904 <__s2b+0x68>
 8006926:	bf00      	nop
 8006928:	08007dd7 	.word	0x08007dd7
 800692c:	08007e74 	.word	0x08007e74

08006930 <__hi0bits>:
 8006930:	f5b0 3f80 	cmp.w	r0, #65536	@ 0x10000
 8006934:	4603      	mov	r3, r0
 8006936:	bf36      	itet	cc
 8006938:	0403      	lslcc	r3, r0, #16
 800693a:	2000      	movcs	r0, #0
 800693c:	2010      	movcc	r0, #16
 800693e:	f1b3 7f80 	cmp.w	r3, #16777216	@ 0x1000000
 8006942:	bf3c      	itt	cc
 8006944:	021b      	lslcc	r3, r3, #8
 8006946:	3008      	addcc	r0, #8
 8006948:	f1b3 5f80 	cmp.w	r3, #268435456	@ 0x10000000
 800694c:	bf3c      	itt	cc
 800694e:	011b      	lslcc	r3, r3, #4
 8006950:	3004      	addcc	r0, #4
 8006952:	f1b3 4f80 	cmp.w	r3, #1073741824	@ 0x40000000
 8006956:	bf3c      	itt	cc
 8006958:	009b      	lslcc	r3, r3, #2
 800695a:	3002      	addcc	r0, #2
 800695c:	2b00      	cmp	r3, #0
 800695e:	db05      	blt.n	800696c <__hi0bits+0x3c>
 8006960:	f013 4f80 	tst.w	r3, #1073741824	@ 0x40000000
 8006964:	f100 0001 	add.w	r0, r0, #1
 8006968:	bf08      	it	eq
 800696a:	2020      	moveq	r0, #32
 800696c:	4770      	bx	lr

0800696e <__lo0bits>:
 800696e:	6803      	ldr	r3, [r0, #0]
 8006970:	4602      	mov	r2, r0
 8006972:	f013 0007 	ands.w	r0, r3, #7
 8006976:	d00b      	beq.n	8006990 <__lo0bits+0x22>
 8006978:	07d9      	lsls	r1, r3, #31
 800697a:	d421      	bmi.n	80069c0 <__lo0bits+0x52>
 800697c:	0798      	lsls	r0, r3, #30
 800697e:	bf49      	itett	mi
 8006980:	085b      	lsrmi	r3, r3, #1
 8006982:	089b      	lsrpl	r3, r3, #2
 8006984:	2001      	movmi	r0, #1
 8006986:	6013      	strmi	r3, [r2, #0]
 8006988:	bf5c      	itt	pl
 800698a:	6013      	strpl	r3, [r2, #0]
 800698c:	2002      	movpl	r0, #2
 800698e:	4770      	bx	lr
 8006990:	b299      	uxth	r1, r3
 8006992:	b909      	cbnz	r1, 8006998 <__lo0bits+0x2a>
 8006994:	0c1b      	lsrs	r3, r3, #16
 8006996:	2010      	movs	r0, #16
 8006998:	b2d9      	uxtb	r1, r3
 800699a:	b909      	cbnz	r1, 80069a0 <__lo0bits+0x32>
 800699c:	3008      	adds	r0, #8
 800699e:	0a1b      	lsrs	r3, r3, #8
 80069a0:	0719      	lsls	r1, r3, #28
 80069a2:	bf04      	itt	eq
 80069a4:	091b      	lsreq	r3, r3, #4
 80069a6:	3004      	addeq	r0, #4
 80069a8:	0799      	lsls	r1, r3, #30
 80069aa:	bf04      	itt	eq
 80069ac:	089b      	lsreq	r3, r3, #2
 80069ae:	3002      	addeq	r0, #2
 80069b0:	07d9      	lsls	r1, r3, #31
 80069b2:	d403      	bmi.n	80069bc <__lo0bits+0x4e>
 80069b4:	085b      	lsrs	r3, r3, #1
 80069b6:	f100 0001 	add.w	r0, r0, #1
 80069ba:	d003      	beq.n	80069c4 <__lo0bits+0x56>
 80069bc:	6013      	str	r3, [r2, #0]
 80069be:	4770      	bx	lr
 80069c0:	2000      	movs	r0, #0
 80069c2:	4770      	bx	lr
 80069c4:	2020      	movs	r0, #32
 80069c6:	4770      	bx	lr

080069c8 <__i2b>:
 80069c8:	b510      	push	{r4, lr}
 80069ca:	460c      	mov	r4, r1
 80069cc:	2101      	movs	r1, #1
 80069ce:	f7ff febd 	bl	800674c <_Balloc>
 80069d2:	4602      	mov	r2, r0
 80069d4:	b928      	cbnz	r0, 80069e2 <__i2b+0x1a>
 80069d6:	4b05      	ldr	r3, [pc, #20]	@ (80069ec <__i2b+0x24>)
 80069d8:	4805      	ldr	r0, [pc, #20]	@ (80069f0 <__i2b+0x28>)
 80069da:	f240 1145 	movw	r1, #325	@ 0x145
 80069de:	f000 fc6f 	bl	80072c0 <__assert_func>
 80069e2:	2301      	movs	r3, #1
 80069e4:	6144      	str	r4, [r0, #20]
 80069e6:	6103      	str	r3, [r0, #16]
 80069e8:	bd10      	pop	{r4, pc}
 80069ea:	bf00      	nop
 80069ec:	08007dd7 	.word	0x08007dd7
 80069f0:	08007e74 	.word	0x08007e74

080069f4 <__multiply>:
 80069f4:	e92d 4ff0 	stmdb	sp!, {r4, r5, r6, r7, r8, r9, sl, fp, lr}
 80069f8:	4617      	mov	r7, r2
 80069fa:	690a      	ldr	r2, [r1, #16]
 80069fc:	693b      	ldr	r3, [r7, #16]
 80069fe:	429a      	cmp	r2, r3
 8006a00:	bfa8      	it	ge
 8006a02:	463b      	movge	r3, r7
 8006a04:	4689      	mov	r9, r1
 8006a06:	bfa4      	itt	ge
 8006a08:	460f      	movge	r7, r1
 8006a0a:	4699      	movge	r9, r3
 8006a0c:	693d      	ldr	r5, [r7, #16]
 8006a0e:	f8d9 a010 	ldr.w	sl, [r9, #16]
 8006a12:	68bb      	ldr	r3, [r7, #8]
 8006a14:	6879      	ldr	r1, [r7, #4]
 8006a16:	eb05 060a 	add.w	r6, r5, sl
 8006a1a:	42b3      	cmp	r3, r6
 8006a1c:	b085      	sub	sp, #20
 8006a1e:	bfb8      	it	lt
 8006a20:	3101      	addlt	r1, #1
 8006a22:	f7ff fe93 	bl	800674c <_Balloc>
 8006a26:	b930      	cbnz	r0, 8006a36 <__multiply+0x42>
 8006a28:	4602      	mov	r2, r0
 8006a2a:	4b41      	ldr	r3, [pc, #260]	@ (8006b30 <__multiply+0x13c>)
 8006a2c:	4841      	ldr	r0, [pc, #260]	@ (8006b34 <__multiply+0x140>)
 8006a2e:	f44f 71b1 	mov.w	r1, #354	@ 0x162
 8006a32:	f000 fc45 	bl	80072c0 <__assert_func>
 8006a36:	f100 0414 	add.w	r4, r0, #20
 8006a3a:	eb04 0e86 	add.w	lr, r4, r6, lsl #2
 8006a3e:	4623      	mov	r3, r4
 8006a40:	2200      	movs	r2, #0
 8006a42:	4573      	cmp	r3, lr
 8006a44:	d320      	bcc.n	8006a88 <__multiply+0x94>
 8006a46:	f107 0814 	add.w	r8, r7, #20
 8006a4a:	f109 0114 	add.w	r1, r9, #20
 8006a4e:	eb08 0585 	add.w	r5, r8, r5, lsl #2
 8006a52:	eb01 038a 	add.w	r3, r1, sl, lsl #2
 8006a56:	9302      	str	r3, [sp, #8]
 8006a58:	1beb      	subs	r3, r5, r7
 8006a5a:	3b15      	subs	r3, #21
 8006a5c:	f023 0303 	bic.w	r3, r3, #3
 8006a60:	3304      	adds	r3, #4
 8006a62:	3715      	adds	r7, #21
 8006a64:	42bd      	cmp	r5, r7
 8006a66:	bf38      	it	cc
 8006a68:	2304      	movcc	r3, #4
 8006a6a:	9301      	str	r3, [sp, #4]
 8006a6c:	9b02      	ldr	r3, [sp, #8]
 8006a6e:	9103      	str	r1, [sp, #12]
 8006a70:	428b      	cmp	r3, r1
 8006a72:	d80c      	bhi.n	8006a8e <__multiply+0x9a>
 8006a74:	2e00      	cmp	r6, #0
 8006a76:	dd03      	ble.n	8006a80 <__multiply+0x8c>
 8006a78:	f85e 3d04 	ldr.w	r3, [lr, #-4]!
 8006a7c:	2b00      	cmp	r3, #0
 8006a7e:	d055      	beq.n	8006b2c <__multiply+0x138>
 8006a80:	6106      	str	r6, [r0, #16]
 8006a82:	b005      	add	sp, #20
 8006a84:	e8bd 8ff0 	ldmia.w	sp!, {r4, r5, r6, r7, r8, r9, sl, fp, pc}
 8006a88:	f843 2b04 	str.w	r2, [r3], #4
 8006a8c:	e7d9      	b.n	8006a42 <__multiply+0x4e>
 8006a8e:	f8b1 a000 	ldrh.w	sl, [r1]
 8006a92:	f1ba 0f00 	cmp.w	sl, #0
 8006a96:	d01f      	beq.n	8006ad8 <__multiply+0xe4>
 8006a98:	46c4      	mov	ip, r8
 8006a9a:	46a1      	mov	r9, r4
 8006a9c:	2700      	movs	r7, #0
 8006a9e:	f85c 2b04 	ldr.w	r2, [ip], #4
 8006aa2:	f8d9 3000 	ldr.w	r3, [r9]
 8006aa6:	fa1f fb82 	uxth.w	fp, r2
 8006aaa:	b29b      	uxth	r3, r3
 8006aac:	fb0a 330b 	mla	r3, sl, fp, r3
 8006ab0:	443b      	add	r3, r7
 8006ab2:	f8d9 7000 	ldr.w	r7, [r9]
 8006ab6:	0c12      	lsrs	r2, r2, #16
 8006ab8:	0c3f      	lsrs	r7, r7, #16
 8006aba:	fb0a 7202 	mla	r2, sl, r2, r7
 8006abe:	eb02 4213 	add.w	r2, r2, r3, lsr #16
 8006ac2:	b29b      	uxth	r3, r3
 8006ac4:	ea43 4302 	orr.w	r3, r3, r2, lsl #16
 8006ac8:	4565      	cmp	r5, ip
 8006aca:	f849 3b04 	str.w	r3, [r9], #4
 8006ace:	ea4f 4712 	mov.w	r7, r2, lsr #16
 8006ad2:	d8e4      	bhi.n	8006a9e <__multiply+0xaa>
 8006ad4:	9b01      	ldr	r3, [sp, #4]
 8006ad6:	50e7      	str	r7, [r4, r3]
 8006ad8:	9b03      	ldr	r3, [sp, #12]
 8006ada:	f8b3 9002 	ldrh.w	r9, [r3, #2]
 8006ade:	3104      	adds	r1, #4
 8006ae0:	f1b9 0f00 	cmp.w	r9, #0
 8006ae4:	d020      	beq.n	8006b28 <__multiply+0x134>
 8006ae6:	6823      	ldr	r3, [r4, #0]
 8006ae8:	4647      	mov	r7, r8
 8006aea:	46a4      	mov	ip, r4
 8006aec:	f04f 0a00 	mov.w	sl, #0
 8006af0:	f8b7 b000 	ldrh.w	fp, [r7]
 8006af4:	f8bc 2002 	ldrh.w	r2, [ip, #2]
 8006af8:	fb09 220b 	mla	r2, r9, fp, r2
 8006afc:	4452      	add	r2, sl
 8006afe:	b29b      	uxth	r3, r3
 8006b00:	ea43 4302 	orr.w	r3, r3, r2, lsl #16
 8006b04:	f84c 3b04 	str.w	r3, [ip], #4
 8006b08:	f857 3b04 	ldr.w	r3, [r7], #4
 8006b0c:	ea4f 4a13 	mov.w	sl, r3, lsr #16
 8006b10:	f8bc 3000 	ldrh.w	r3, [ip]
 8006b14:	fb09 330a 	mla	r3, r9, sl, r3
 8006b18:	eb03 4312 	add.w	r3, r3, r2, lsr #16
 8006b1c:	42bd      	cmp	r5, r7
 8006b1e:	ea4f 4a13 	mov.w	sl, r3, lsr #16
 8006b22:	d8e5      	bhi.n	8006af0 <__multiply+0xfc>
 8006b24:	9a01      	ldr	r2, [sp, #4]
 8006b26:	50a3      	str	r3, [r4, r2]
 8006b28:	3404      	adds	r4, #4
 8006b2a:	e79f      	b.n	8006a6c <__multiply+0x78>
 8006b2c:	3e01      	subs	r6, #1
 8006b2e:	e7a1      	b.n	8006a74 <__multiply+0x80>
 8006b30:	08007dd7 	.word	0x08007dd7
 8006b34:	08007e74 	.word	0x08007e74

08006b38 <__pow5mult>:
 8006b38:	e92d 43f8 	stmdb	sp!, {r3, r4, r5, r6, r7, r8, r9, lr}
 8006b3c:	4615      	mov	r5, r2
 8006b3e:	f012 0203 	ands.w	r2, r2, #3
 8006b42:	4607      	mov	r7, r0
 8006b44:	460e      	mov	r6, r1
 8006b46:	d007      	beq.n	8006b58 <__pow5mult+0x20>
 8006b48:	4c25      	ldr	r4, [pc, #148]	@ (8006be0 <__pow5mult+0xa8>)
 8006b4a:	3a01      	subs	r2, #1
 8006b4c:	2300      	movs	r3, #0
 8006b4e:	f854 2022 	ldr.w	r2, [r4, r2, lsl #2]
 8006b52:	f7ff fe5d 	bl	8006810 <__multadd>
 8006b56:	4606      	mov	r6, r0
 8006b58:	10ad      	asrs	r5, r5, #2
 8006b5a:	d03d      	beq.n	8006bd8 <__pow5mult+0xa0>
 8006b5c:	69fc      	ldr	r4, [r7, #28]
 8006b5e:	b97c      	cbnz	r4, 8006b80 <__pow5mult+0x48>
 8006b60:	2010      	movs	r0, #16
 8006b62:	f7ff faf7 	bl	8006154 <malloc>
 8006b66:	4602      	mov	r2, r0
 8006b68:	61f8      	str	r0, [r7, #28]
 8006b6a:	b928      	cbnz	r0, 8006b78 <__pow5mult+0x40>
 8006b6c:	4b1d      	ldr	r3, [pc, #116]	@ (8006be4 <__pow5mult+0xac>)
 8006b6e:	481e      	ldr	r0, [pc, #120]	@ (8006be8 <__pow5mult+0xb0>)
 8006b70:	f240 11b3 	movw	r1, #435	@ 0x1b3
 8006b74:	f000 fba4 	bl	80072c0 <__assert_func>
 8006b78:	e9c0 4401 	strd	r4, r4, [r0, #4]
 8006b7c:	6004      	str	r4, [r0, #0]
 8006b7e:	60c4      	str	r4, [r0, #12]
 8006b80:	f8d7 801c 	ldr.w	r8, [r7, #28]
 8006b84:	f8d8 4008 	ldr.w	r4, [r8, #8]
 8006b88:	b94c      	cbnz	r4, 8006b9e <__pow5mult+0x66>
 8006b8a:	f240 2171 	movw	r1, #625	@ 0x271
 8006b8e:	4638      	mov	r0, r7
 8006b90:	f7ff ff1a 	bl	80069c8 <__i2b>
 8006b94:	2300      	movs	r3, #0
 8006b96:	f8c8 0008 	str.w	r0, [r8, #8]
 8006b9a:	4604      	mov	r4, r0
 8006b9c:	6003      	str	r3, [r0, #0]
 8006b9e:	f04f 0900 	mov.w	r9, #0
 8006ba2:	07eb      	lsls	r3, r5, #31
 8006ba4:	d50a      	bpl.n	8006bbc <__pow5mult+0x84>
 8006ba6:	4631      	mov	r1, r6
 8006ba8:	4622      	mov	r2, r4
 8006baa:	4638      	mov	r0, r7
 8006bac:	f7ff ff22 	bl	80069f4 <__multiply>
 8006bb0:	4631      	mov	r1, r6
 8006bb2:	4680      	mov	r8, r0
 8006bb4:	4638      	mov	r0, r7
 8006bb6:	f7ff fe09 	bl	80067cc <_Bfree>
 8006bba:	4646      	mov	r6, r8
 8006bbc:	106d      	asrs	r5, r5, #1
 8006bbe:	d00b      	beq.n	8006bd8 <__pow5mult+0xa0>
 8006bc0:	6820      	ldr	r0, [r4, #0]
 8006bc2:	b938      	cbnz	r0, 8006bd4 <__pow5mult+0x9c>
 8006bc4:	4622      	mov	r2, r4
 8006bc6:	4621      	mov	r1, r4
 8006bc8:	4638      	mov	r0, r7
 8006bca:	f7ff ff13 	bl	80069f4 <__multiply>
 8006bce:	6020      	str	r0, [r4, #0]
 8006bd0:	f8c0 9000 	str.w	r9, [r0]
 8006bd4:	4604      	mov	r4, r0
 8006bd6:	e7e4      	b.n	8006ba2 <__pow5mult+0x6a>
 8006bd8:	4630      	mov	r0, r6
 8006bda:	e8bd 83f8 	ldmia.w	sp!, {r3, r4, r5, r6, r7, r8, r9, pc}
 8006bde:	bf00      	nop
 8006be0:	08008064 	.word	0x08008064
 8006be4:	08007d68 	.word	0x08007d68
 8006be8:	08007e74 	.word	0x08007e74

08006bec <__lshift>:
 8006bec:	e92d 47f0 	stmdb	sp!, {r4, r5, r6, r7, r8, r9, sl, lr}
 8006bf0:	460c      	mov	r4, r1
 8006bf2:	6849      	ldr	r1, [r1, #4]
 8006bf4:	6923      	ldr	r3, [r4, #16]
 8006bf6:	eb03 1862 	add.w	r8, r3, r2, asr #5
 8006bfa:	68a3      	ldr	r3, [r4, #8]
 8006bfc:	4607      	mov	r7, r0
 8006bfe:	4691      	mov	r9, r2
 8006c00:	ea4f 1a62 	mov.w	sl, r2, asr #5
 8006c04:	f108 0601 	add.w	r6, r8, #1
 8006c08:	42b3      	cmp	r3, r6
 8006c0a:	db0b      	blt.n	8006c24 <__lshift+0x38>
 8006c0c:	4638      	mov	r0, r7
 8006c0e:	f7ff fd9d 	bl	800674c <_Balloc>
 8006c12:	4605      	mov	r5, r0
 8006c14:	b948      	cbnz	r0, 8006c2a <__lshift+0x3e>
 8006c16:	4602      	mov	r2, r0
 8006c18:	4b28      	ldr	r3, [pc, #160]	@ (8006cbc <__lshift+0xd0>)
 8006c1a:	4829      	ldr	r0, [pc, #164]	@ (8006cc0 <__lshift+0xd4>)
 8006c1c:	f44f 71ef 	mov.w	r1, #478	@ 0x1de
 8006c20:	f000 fb4e 	bl	80072c0 <__assert_func>
 8006c24:	3101      	adds	r1, #1
 8006c26:	005b      	lsls	r3, r3, #1
 8006c28:	e7ee      	b.n	8006c08 <__lshift+0x1c>
 8006c2a:	2300      	movs	r3, #0
 8006c2c:	f100 0114 	add.w	r1, r0, #20
 8006c30:	f100 0210 	add.w	r2, r0, #16
 8006c34:	4618      	mov	r0, r3
 8006c36:	4553      	cmp	r3, sl
 8006c38:	db33      	blt.n	8006ca2 <__lshift+0xb6>
 8006c3a:	6920      	ldr	r0, [r4, #16]
 8006c3c:	ea2a 7aea 	bic.w	sl, sl, sl, asr #31
 8006c40:	f104 0314 	add.w	r3, r4, #20
 8006c44:	f019 091f 	ands.w	r9, r9, #31
 8006c48:	eb01 018a 	add.w	r1, r1, sl, lsl #2
 8006c4c:	eb03 0c80 	add.w	ip, r3, r0, lsl #2
 8006c50:	d02b      	beq.n	8006caa <__lshift+0xbe>
 8006c52:	f1c9 0e20 	rsb	lr, r9, #32
 8006c56:	468a      	mov	sl, r1
 8006c58:	2200      	movs	r2, #0
 8006c5a:	6818      	ldr	r0, [r3, #0]
 8006c5c:	fa00 f009 	lsl.w	r0, r0, r9
 8006c60:	4310      	orrs	r0, r2
 8006c62:	f84a 0b04 	str.w	r0, [sl], #4
 8006c66:	f853 2b04 	ldr.w	r2, [r3], #4
 8006c6a:	459c      	cmp	ip, r3
 8006c6c:	fa22 f20e 	lsr.w	r2, r2, lr
 8006c70:	d8f3      	bhi.n	8006c5a <__lshift+0x6e>
 8006c72:	ebac 0304 	sub.w	r3, ip, r4
 8006c76:	3b15      	subs	r3, #21
 8006c78:	f023 0303 	bic.w	r3, r3, #3
 8006c7c:	3304      	adds	r3, #4
 8006c7e:	f104 0015 	add.w	r0, r4, #21
 8006c82:	4560      	cmp	r0, ip
 8006c84:	bf88      	it	hi
 8006c86:	2304      	movhi	r3, #4
 8006c88:	50ca      	str	r2, [r1, r3]
 8006c8a:	b10a      	cbz	r2, 8006c90 <__lshift+0xa4>
 8006c8c:	f108 0602 	add.w	r6, r8, #2
 8006c90:	3e01      	subs	r6, #1
 8006c92:	4638      	mov	r0, r7
 8006c94:	612e      	str	r6, [r5, #16]
 8006c96:	4621      	mov	r1, r4
 8006c98:	f7ff fd98 	bl	80067cc <_Bfree>
 8006c9c:	4628      	mov	r0, r5
 8006c9e:	e8bd 87f0 	ldmia.w	sp!, {r4, r5, r6, r7, r8, r9, sl, pc}
 8006ca2:	f842 0f04 	str.w	r0, [r2, #4]!
 8006ca6:	3301      	adds	r3, #1
 8006ca8:	e7c5      	b.n	8006c36 <__lshift+0x4a>
 8006caa:	3904      	subs	r1, #4
 8006cac:	f853 2b04 	ldr.w	r2, [r3], #4
 8006cb0:	f841 2f04 	str.w	r2, [r1, #4]!
 8006cb4:	459c      	cmp	ip, r3
 8006cb6:	d8f9      	bhi.n	8006cac <__lshift+0xc0>
 8006cb8:	e7ea      	b.n	8006c90 <__lshift+0xa4>
 8006cba:	bf00      	nop
 8006cbc:	08007dd7 	.word	0x08007dd7
 8006cc0:	08007e74 	.word	0x08007e74

08006cc4 <__mcmp>:
 8006cc4:	690a      	ldr	r2, [r1, #16]
 8006cc6:	4603      	mov	r3, r0
 8006cc8:	6900      	ldr	r0, [r0, #16]
 8006cca:	1a80      	subs	r0, r0, r2
 8006ccc:	b530      	push	{r4, r5, lr}
 8006cce:	d10e      	bne.n	8006cee <__mcmp+0x2a>
 8006cd0:	3314      	adds	r3, #20
 8006cd2:	3114      	adds	r1, #20
 8006cd4:	eb03 0482 	add.w	r4, r3, r2, lsl #2
 8006cd8:	eb01 0182 	add.w	r1, r1, r2, lsl #2
 8006cdc:	f854 5d04 	ldr.w	r5, [r4, #-4]!
 8006ce0:	f851 2d04 	ldr.w	r2, [r1, #-4]!
 8006ce4:	4295      	cmp	r5, r2
 8006ce6:	d003      	beq.n	8006cf0 <__mcmp+0x2c>
 8006ce8:	d205      	bcs.n	8006cf6 <__mcmp+0x32>
 8006cea:	f04f 30ff 	mov.w	r0, #4294967295	@ 0xffffffff
 8006cee:	bd30      	pop	{r4, r5, pc}
 8006cf0:	42a3      	cmp	r3, r4
 8006cf2:	d3f3      	bcc.n	8006cdc <__mcmp+0x18>
 8006cf4:	e7fb      	b.n	8006cee <__mcmp+0x2a>
 8006cf6:	2001      	movs	r0, #1
 8006cf8:	e7f9      	b.n	8006cee <__mcmp+0x2a>
	...

08006cfc <__mdiff>:
 8006cfc:	e92d 4ff7 	stmdb	sp!, {r0, r1, r2, r4, r5, r6, r7, r8, r9, sl, fp, lr}
 8006d00:	4689      	mov	r9, r1
 8006d02:	4606      	mov	r6, r0
 8006d04:	4611      	mov	r1, r2
 8006d06:	4648      	mov	r0, r9
 8006d08:	4614      	mov	r4, r2
 8006d0a:	f7ff ffdb 	bl	8006cc4 <__mcmp>
 8006d0e:	1e05      	subs	r5, r0, #0
 8006d10:	d112      	bne.n	8006d38 <__mdiff+0x3c>
 8006d12:	4629      	mov	r1, r5
 8006d14:	4630      	mov	r0, r6
 8006d16:	f7ff fd19 	bl	800674c <_Balloc>
 8006d1a:	4602      	mov	r2, r0
 8006d1c:	b928      	cbnz	r0, 8006d2a <__mdiff+0x2e>
 8006d1e:	4b3f      	ldr	r3, [pc, #252]	@ (8006e1c <__mdiff+0x120>)
 8006d20:	f240 2137 	movw	r1, #567	@ 0x237
 8006d24:	483e      	ldr	r0, [pc, #248]	@ (8006e20 <__mdiff+0x124>)
 8006d26:	f000 facb 	bl	80072c0 <__assert_func>
 8006d2a:	2301      	movs	r3, #1
 8006d2c:	e9c0 3504 	strd	r3, r5, [r0, #16]
 8006d30:	4610      	mov	r0, r2
 8006d32:	b003      	add	sp, #12
 8006d34:	e8bd 8ff0 	ldmia.w	sp!, {r4, r5, r6, r7, r8, r9, sl, fp, pc}
 8006d38:	bfbc      	itt	lt
 8006d3a:	464b      	movlt	r3, r9
 8006d3c:	46a1      	movlt	r9, r4
 8006d3e:	4630      	mov	r0, r6
 8006d40:	f8d9 1004 	ldr.w	r1, [r9, #4]
 8006d44:	bfba      	itte	lt
 8006d46:	461c      	movlt	r4, r3
 8006d48:	2501      	movlt	r5, #1
 8006d4a:	2500      	movge	r5, #0
 8006d4c:	f7ff fcfe 	bl	800674c <_Balloc>
 8006d50:	4602      	mov	r2, r0
 8006d52:	b918      	cbnz	r0, 8006d5c <__mdiff+0x60>
 8006d54:	4b31      	ldr	r3, [pc, #196]	@ (8006e1c <__mdiff+0x120>)
 8006d56:	f240 2145 	movw	r1, #581	@ 0x245
 8006d5a:	e7e3      	b.n	8006d24 <__mdiff+0x28>
 8006d5c:	f8d9 7010 	ldr.w	r7, [r9, #16]
 8006d60:	6926      	ldr	r6, [r4, #16]
 8006d62:	60c5      	str	r5, [r0, #12]
 8006d64:	f109 0310 	add.w	r3, r9, #16
 8006d68:	f109 0514 	add.w	r5, r9, #20
 8006d6c:	f104 0e14 	add.w	lr, r4, #20
 8006d70:	f100 0b14 	add.w	fp, r0, #20
 8006d74:	eb05 0887 	add.w	r8, r5, r7, lsl #2
 8006d78:	eb0e 0686 	add.w	r6, lr, r6, lsl #2
 8006d7c:	9301      	str	r3, [sp, #4]
 8006d7e:	46d9      	mov	r9, fp
 8006d80:	f04f 0c00 	mov.w	ip, #0
 8006d84:	9b01      	ldr	r3, [sp, #4]
 8006d86:	f85e 0b04 	ldr.w	r0, [lr], #4
 8006d8a:	f853 af04 	ldr.w	sl, [r3, #4]!
 8006d8e:	9301      	str	r3, [sp, #4]
 8006d90:	fa1f f38a 	uxth.w	r3, sl
 8006d94:	4619      	mov	r1, r3
 8006d96:	b283      	uxth	r3, r0
 8006d98:	1acb      	subs	r3, r1, r3
 8006d9a:	0c00      	lsrs	r0, r0, #16
 8006d9c:	4463      	add	r3, ip
 8006d9e:	ebc0 401a 	rsb	r0, r0, sl, lsr #16
 8006da2:	eb00 4023 	add.w	r0, r0, r3, asr #16
 8006da6:	b29b      	uxth	r3, r3
 8006da8:	ea43 4300 	orr.w	r3, r3, r0, lsl #16
 8006dac:	4576      	cmp	r6, lr
 8006dae:	f849 3b04 	str.w	r3, [r9], #4
 8006db2:	ea4f 4c20 	mov.w	ip, r0, asr #16
 8006db6:	d8e5      	bhi.n	8006d84 <__mdiff+0x88>
 8006db8:	1b33      	subs	r3, r6, r4
 8006dba:	3b15      	subs	r3, #21
 8006dbc:	f023 0303 	bic.w	r3, r3, #3
 8006dc0:	3415      	adds	r4, #21
 8006dc2:	3304      	adds	r3, #4
 8006dc4:	42a6      	cmp	r6, r4
 8006dc6:	bf38      	it	cc
 8006dc8:	2304      	movcc	r3, #4
 8006dca:	441d      	add	r5, r3
 8006dcc:	445b      	add	r3, fp
 8006dce:	461e      	mov	r6, r3
 8006dd0:	462c      	mov	r4, r5
 8006dd2:	4544      	cmp	r4, r8
 8006dd4:	d30e      	bcc.n	8006df4 <__mdiff+0xf8>
 8006dd6:	f108 0103 	add.w	r1, r8, #3
 8006dda:	1b49      	subs	r1, r1, r5
 8006ddc:	f021 0103 	bic.w	r1, r1, #3
 8006de0:	3d03      	subs	r5, #3
 8006de2:	45a8      	cmp	r8, r5
 8006de4:	bf38      	it	cc
 8006de6:	2100      	movcc	r1, #0
 8006de8:	440b      	add	r3, r1
 8006dea:	f853 1d04 	ldr.w	r1, [r3, #-4]!
 8006dee:	b191      	cbz	r1, 8006e16 <__mdiff+0x11a>
 8006df0:	6117      	str	r7, [r2, #16]
 8006df2:	e79d      	b.n	8006d30 <__mdiff+0x34>
 8006df4:	f854 1b04 	ldr.w	r1, [r4], #4
 8006df8:	46e6      	mov	lr, ip
 8006dfa:	0c08      	lsrs	r0, r1, #16
 8006dfc:	fa1c fc81 	uxtah	ip, ip, r1
 8006e00:	4471      	add	r1, lr
 8006e02:	eb00 402c 	add.w	r0, r0, ip, asr #16
 8006e06:	b289      	uxth	r1, r1
 8006e08:	ea41 4100 	orr.w	r1, r1, r0, lsl #16
 8006e0c:	f846 1b04 	str.w	r1, [r6], #4
 8006e10:	ea4f 4c20 	mov.w	ip, r0, asr #16
 8006e14:	e7dd      	b.n	8006dd2 <__mdiff+0xd6>
 8006e16:	3f01      	subs	r7, #1
 8006e18:	e7e7      	b.n	8006dea <__mdiff+0xee>
 8006e1a:	bf00      	nop
 8006e1c:	08007dd7 	.word	0x08007dd7
 8006e20:	08007e74 	.word	0x08007e74

08006e24 <__ulp>:
 8006e24:	b082      	sub	sp, #8
 8006e26:	ed8d 0b00 	vstr	d0, [sp]
 8006e2a:	9a01      	ldr	r2, [sp, #4]
 8006e2c:	4b0f      	ldr	r3, [pc, #60]	@ (8006e6c <__ulp+0x48>)
 8006e2e:	4013      	ands	r3, r2
 8006e30:	f1a3 7350 	sub.w	r3, r3, #54525952	@ 0x3400000
 8006e34:	2b00      	cmp	r3, #0
 8006e36:	dc08      	bgt.n	8006e4a <__ulp+0x26>
 8006e38:	425b      	negs	r3, r3
 8006e3a:	f1b3 7fa0 	cmp.w	r3, #20971520	@ 0x1400000
 8006e3e:	ea4f 5223 	mov.w	r2, r3, asr #20
 8006e42:	da04      	bge.n	8006e4e <__ulp+0x2a>
 8006e44:	f44f 2300 	mov.w	r3, #524288	@ 0x80000
 8006e48:	4113      	asrs	r3, r2
 8006e4a:	2200      	movs	r2, #0
 8006e4c:	e008      	b.n	8006e60 <__ulp+0x3c>
 8006e4e:	f1a2 0314 	sub.w	r3, r2, #20
 8006e52:	2b1e      	cmp	r3, #30
 8006e54:	bfda      	itte	le
 8006e56:	f04f 4200 	movle.w	r2, #2147483648	@ 0x80000000
 8006e5a:	40da      	lsrle	r2, r3
 8006e5c:	2201      	movgt	r2, #1
 8006e5e:	2300      	movs	r3, #0
 8006e60:	4619      	mov	r1, r3
 8006e62:	4610      	mov	r0, r2
 8006e64:	ec41 0b10 	vmov	d0, r0, r1
 8006e68:	b002      	add	sp, #8
 8006e6a:	4770      	bx	lr
 8006e6c:	7ff00000 	.word	0x7ff00000

08006e70 <__b2d>:
 8006e70:	e92d 41f0 	stmdb	sp!, {r4, r5, r6, r7, r8, lr}
 8006e74:	6906      	ldr	r6, [r0, #16]
 8006e76:	f100 0814 	add.w	r8, r0, #20
 8006e7a:	eb08 0686 	add.w	r6, r8, r6, lsl #2
 8006e7e:	1f37      	subs	r7, r6, #4
 8006e80:	f856 2c04 	ldr.w	r2, [r6, #-4]
 8006e84:	4610      	mov	r0, r2
 8006e86:	f7ff fd53 	bl	8006930 <__hi0bits>
 8006e8a:	f1c0 0320 	rsb	r3, r0, #32
 8006e8e:	280a      	cmp	r0, #10
 8006e90:	600b      	str	r3, [r1, #0]
 8006e92:	491b      	ldr	r1, [pc, #108]	@ (8006f00 <__b2d+0x90>)
 8006e94:	dc15      	bgt.n	8006ec2 <__b2d+0x52>
 8006e96:	f1c0 0c0b 	rsb	ip, r0, #11
 8006e9a:	fa22 f30c 	lsr.w	r3, r2, ip
 8006e9e:	45b8      	cmp	r8, r7
 8006ea0:	ea43 0501 	orr.w	r5, r3, r1
 8006ea4:	bf34      	ite	cc
 8006ea6:	f856 3c08 	ldrcc.w	r3, [r6, #-8]
 8006eaa:	2300      	movcs	r3, #0
 8006eac:	3015      	adds	r0, #21
 8006eae:	fa02 f000 	lsl.w	r0, r2, r0
 8006eb2:	fa23 f30c 	lsr.w	r3, r3, ip
 8006eb6:	4303      	orrs	r3, r0
 8006eb8:	461c      	mov	r4, r3
 8006eba:	ec45 4b10 	vmov	d0, r4, r5
 8006ebe:	e8bd 81f0 	ldmia.w	sp!, {r4, r5, r6, r7, r8, pc}
 8006ec2:	45b8      	cmp	r8, r7
 8006ec4:	bf3a      	itte	cc
 8006ec6:	f856 3c08 	ldrcc.w	r3, [r6, #-8]
 8006eca:	f1a6 0708 	subcc.w	r7, r6, #8
 8006ece:	2300      	movcs	r3, #0
 8006ed0:	380b      	subs	r0, #11
 8006ed2:	d012      	beq.n	8006efa <__b2d+0x8a>
 8006ed4:	f1c0 0120 	rsb	r1, r0, #32
 8006ed8:	fa23 f401 	lsr.w	r4, r3, r1
 8006edc:	4082      	lsls	r2, r0
 8006ede:	4322      	orrs	r2, r4
 8006ee0:	4547      	cmp	r7, r8
 8006ee2:	f042 557f 	orr.w	r5, r2, #1069547520	@ 0x3fc00000
 8006ee6:	bf8c      	ite	hi
 8006ee8:	f857 2c04 	ldrhi.w	r2, [r7, #-4]
 8006eec:	2200      	movls	r2, #0
 8006eee:	4083      	lsls	r3, r0
 8006ef0:	40ca      	lsrs	r2, r1
 8006ef2:	f445 1540 	orr.w	r5, r5, #3145728	@ 0x300000
 8006ef6:	4313      	orrs	r3, r2
 8006ef8:	e7de      	b.n	8006eb8 <__b2d+0x48>
 8006efa:	ea42 0501 	orr.w	r5, r2, r1
 8006efe:	e7db      	b.n	8006eb8 <__b2d+0x48>
 8006f00:	3ff00000 	.word	0x3ff00000

08006f04 <__d2b>:
 8006f04:	e92d 43f7 	stmdb	sp!, {r0, r1, r2, r4, r5, r6, r7, r8, r9, lr}
 8006f08:	460f      	mov	r7, r1
 8006f0a:	2101      	movs	r1, #1
 8006f0c:	ec59 8b10 	vmov	r8, r9, d0
 8006f10:	4616      	mov	r6, r2
 8006f12:	f7ff fc1b 	bl	800674c <_Balloc>
 8006f16:	4604      	mov	r4, r0
 8006f18:	b930      	cbnz	r0, 8006f28 <__d2b+0x24>
 8006f1a:	4602      	mov	r2, r0
 8006f1c:	4b23      	ldr	r3, [pc, #140]	@ (8006fac <__d2b+0xa8>)
 8006f1e:	4824      	ldr	r0, [pc, #144]	@ (8006fb0 <__d2b+0xac>)
 8006f20:	f240 310f 	movw	r1, #783	@ 0x30f
 8006f24:	f000 f9cc 	bl	80072c0 <__assert_func>
 8006f28:	f3c9 550a 	ubfx	r5, r9, #20, #11
 8006f2c:	f3c9 0313 	ubfx	r3, r9, #0, #20
 8006f30:	b10d      	cbz	r5, 8006f36 <__d2b+0x32>
 8006f32:	f443 1380 	orr.w	r3, r3, #1048576	@ 0x100000
 8006f36:	9301      	str	r3, [sp, #4]
 8006f38:	f1b8 0300 	subs.w	r3, r8, #0
 8006f3c:	d023      	beq.n	8006f86 <__d2b+0x82>
 8006f3e:	4668      	mov	r0, sp
 8006f40:	9300      	str	r3, [sp, #0]
 8006f42:	f7ff fd14 	bl	800696e <__lo0bits>
 8006f46:	e9dd 1200 	ldrd	r1, r2, [sp]
 8006f4a:	b1d0      	cbz	r0, 8006f82 <__d2b+0x7e>
 8006f4c:	f1c0 0320 	rsb	r3, r0, #32
 8006f50:	fa02 f303 	lsl.w	r3, r2, r3
 8006f54:	430b      	orrs	r3, r1
 8006f56:	40c2      	lsrs	r2, r0
 8006f58:	6163      	str	r3, [r4, #20]
 8006f5a:	9201      	str	r2, [sp, #4]
 8006f5c:	9b01      	ldr	r3, [sp, #4]
 8006f5e:	61a3      	str	r3, [r4, #24]
 8006f60:	2b00      	cmp	r3, #0
 8006f62:	bf0c      	ite	eq
 8006f64:	2201      	moveq	r2, #1
 8006f66:	2202      	movne	r2, #2
 8006f68:	6122      	str	r2, [r4, #16]
 8006f6a:	b1a5      	cbz	r5, 8006f96 <__d2b+0x92>
 8006f6c:	f2a5 4533 	subw	r5, r5, #1075	@ 0x433
 8006f70:	4405      	add	r5, r0
 8006f72:	603d      	str	r5, [r7, #0]
 8006f74:	f1c0 0035 	rsb	r0, r0, #53	@ 0x35
 8006f78:	6030      	str	r0, [r6, #0]
 8006f7a:	4620      	mov	r0, r4
 8006f7c:	b003      	add	sp, #12
 8006f7e:	e8bd 83f0 	ldmia.w	sp!, {r4, r5, r6, r7, r8, r9, pc}
 8006f82:	6161      	str	r1, [r4, #20]
 8006f84:	e7ea      	b.n	8006f5c <__d2b+0x58>
 8006f86:	a801      	add	r0, sp, #4
 8006f88:	f7ff fcf1 	bl	800696e <__lo0bits>
 8006f8c:	9b01      	ldr	r3, [sp, #4]
 8006f8e:	6163      	str	r3, [r4, #20]
 8006f90:	3020      	adds	r0, #32
 8006f92:	2201      	movs	r2, #1
 8006f94:	e7e8      	b.n	8006f68 <__d2b+0x64>
 8006f96:	eb04 0382 	add.w	r3, r4, r2, lsl #2
 8006f9a:	f2a0 4032 	subw	r0, r0, #1074	@ 0x432
 8006f9e:	6038      	str	r0, [r7, #0]
 8006fa0:	6918      	ldr	r0, [r3, #16]
 8006fa2:	f7ff fcc5 	bl	8006930 <__hi0bits>
 8006fa6:	ebc0 1042 	rsb	r0, r0, r2, lsl #5
 8006faa:	e7e5      	b.n	8006f78 <__d2b+0x74>
 8006fac:	08007dd7 	.word	0x08007dd7
 8006fb0:	08007e74 	.word	0x08007e74

08006fb4 <__ratio>:
 8006fb4:	e92d 4ff0 	stmdb	sp!, {r4, r5, r6, r7, r8, r9, sl, fp, lr}
 8006fb8:	b085      	sub	sp, #20
 8006fba:	e9cd 1000 	strd	r1, r0, [sp]
 8006fbe:	a902      	add	r1, sp, #8
 8006fc0:	f7ff ff56 	bl	8006e70 <__b2d>
 8006fc4:	9800      	ldr	r0, [sp, #0]
 8006fc6:	a903      	add	r1, sp, #12
 8006fc8:	ec55 4b10 	vmov	r4, r5, d0
 8006fcc:	f7ff ff50 	bl	8006e70 <__b2d>
 8006fd0:	9b01      	ldr	r3, [sp, #4]
 8006fd2:	6919      	ldr	r1, [r3, #16]
 8006fd4:	9b00      	ldr	r3, [sp, #0]
 8006fd6:	691b      	ldr	r3, [r3, #16]
 8006fd8:	1ac9      	subs	r1, r1, r3
 8006fda:	e9dd 3202 	ldrd	r3, r2, [sp, #8]
 8006fde:	1a9b      	subs	r3, r3, r2
 8006fe0:	ec5b ab10 	vmov	sl, fp, d0
 8006fe4:	eb03 1341 	add.w	r3, r3, r1, lsl #5
 8006fe8:	2b00      	cmp	r3, #0
 8006fea:	bfce      	itee	gt
 8006fec:	462a      	movgt	r2, r5
 8006fee:	ebc3 3303 	rsble	r3, r3, r3, lsl #12
 8006ff2:	465a      	movle	r2, fp
 8006ff4:	462f      	mov	r7, r5
 8006ff6:	46d9      	mov	r9, fp
 8006ff8:	bfcc      	ite	gt
 8006ffa:	eb02 5703 	addgt.w	r7, r2, r3, lsl #20
 8006ffe:	eb02 5903 	addle.w	r9, r2, r3, lsl #20
 8007002:	464b      	mov	r3, r9
 8007004:	4652      	mov	r2, sl
 8007006:	4620      	mov	r0, r4
 8007008:	4639      	mov	r1, r7
 800700a:	f7f9 fc4f 	bl	80008ac <__aeabi_ddiv>
 800700e:	ec41 0b10 	vmov	d0, r0, r1
 8007012:	b005      	add	sp, #20
 8007014:	e8bd 8ff0 	ldmia.w	sp!, {r4, r5, r6, r7, r8, r9, sl, fp, pc}

08007018 <__copybits>:
 8007018:	3901      	subs	r1, #1
 800701a:	b570      	push	{r4, r5, r6, lr}
 800701c:	1149      	asrs	r1, r1, #5
 800701e:	6914      	ldr	r4, [r2, #16]
 8007020:	3101      	adds	r1, #1
 8007022:	f102 0314 	add.w	r3, r2, #20
 8007026:	eb00 0181 	add.w	r1, r0, r1, lsl #2
 800702a:	eb03 0484 	add.w	r4, r3, r4, lsl #2
 800702e:	1f05      	subs	r5, r0, #4
 8007030:	42a3      	cmp	r3, r4
 8007032:	d30c      	bcc.n	800704e <__copybits+0x36>
 8007034:	1aa3      	subs	r3, r4, r2
 8007036:	3b11      	subs	r3, #17
 8007038:	f023 0303 	bic.w	r3, r3, #3
 800703c:	3211      	adds	r2, #17
 800703e:	42a2      	cmp	r2, r4
 8007040:	bf88      	it	hi
 8007042:	2300      	movhi	r3, #0
 8007044:	4418      	add	r0, r3
 8007046:	2300      	movs	r3, #0
 8007048:	4288      	cmp	r0, r1
 800704a:	d305      	bcc.n	8007058 <__copybits+0x40>
 800704c:	bd70      	pop	{r4, r5, r6, pc}
 800704e:	f853 6b04 	ldr.w	r6, [r3], #4
 8007052:	f845 6f04 	str.w	r6, [r5, #4]!
 8007056:	e7eb      	b.n	8007030 <__copybits+0x18>
 8007058:	f840 3b04 	str.w	r3, [r0], #4
 800705c:	e7f4      	b.n	8007048 <__copybits+0x30>

0800705e <__any_on>:
 800705e:	f100 0214 	add.w	r2, r0, #20
 8007062:	6900      	ldr	r0, [r0, #16]
 8007064:	114b      	asrs	r3, r1, #5
 8007066:	4298      	cmp	r0, r3
 8007068:	b510      	push	{r4, lr}
 800706a:	db11      	blt.n	8007090 <__any_on+0x32>
 800706c:	dd0a      	ble.n	8007084 <__any_on+0x26>
 800706e:	f011 011f 	ands.w	r1, r1, #31
 8007072:	d007      	beq.n	8007084 <__any_on+0x26>
 8007074:	f852 4023 	ldr.w	r4, [r2, r3, lsl #2]
 8007078:	fa24 f001 	lsr.w	r0, r4, r1
 800707c:	fa00 f101 	lsl.w	r1, r0, r1
 8007080:	428c      	cmp	r4, r1
 8007082:	d10b      	bne.n	800709c <__any_on+0x3e>
 8007084:	eb02 0383 	add.w	r3, r2, r3, lsl #2
 8007088:	4293      	cmp	r3, r2
 800708a:	d803      	bhi.n	8007094 <__any_on+0x36>
 800708c:	2000      	movs	r0, #0
 800708e:	bd10      	pop	{r4, pc}
 8007090:	4603      	mov	r3, r0
 8007092:	e7f7      	b.n	8007084 <__any_on+0x26>
 8007094:	f853 1d04 	ldr.w	r1, [r3, #-4]!
 8007098:	2900      	cmp	r1, #0
 800709a:	d0f5      	beq.n	8007088 <__any_on+0x2a>
 800709c:	2001      	movs	r0, #1
 800709e:	e7f6      	b.n	800708e <__any_on+0x30>

080070a0 <__submore>:
 80070a0:	e92d 41f0 	stmdb	sp!, {r4, r5, r6, r7, r8, lr}
 80070a4:	460c      	mov	r4, r1
 80070a6:	6b49      	ldr	r1, [r1, #52]	@ 0x34
 80070a8:	f104 0344 	add.w	r3, r4, #68	@ 0x44
 80070ac:	4299      	cmp	r1, r3
 80070ae:	d11d      	bne.n	80070ec <__submore+0x4c>
 80070b0:	f44f 6180 	mov.w	r1, #1024	@ 0x400
 80070b4:	f7ff f878 	bl	80061a8 <_malloc_r>
 80070b8:	b918      	cbnz	r0, 80070c2 <__submore+0x22>
 80070ba:	f04f 30ff 	mov.w	r0, #4294967295	@ 0xffffffff
 80070be:	e8bd 81f0 	ldmia.w	sp!, {r4, r5, r6, r7, r8, pc}
 80070c2:	f44f 6380 	mov.w	r3, #1024	@ 0x400
 80070c6:	63a3      	str	r3, [r4, #56]	@ 0x38
 80070c8:	f894 3046 	ldrb.w	r3, [r4, #70]	@ 0x46
 80070cc:	6360      	str	r0, [r4, #52]	@ 0x34
 80070ce:	f880 33ff 	strb.w	r3, [r0, #1023]	@ 0x3ff
 80070d2:	f894 3045 	ldrb.w	r3, [r4, #69]	@ 0x45
 80070d6:	f880 33fe 	strb.w	r3, [r0, #1022]	@ 0x3fe
 80070da:	f894 3044 	ldrb.w	r3, [r4, #68]	@ 0x44
 80070de:	f880 33fd 	strb.w	r3, [r0, #1021]	@ 0x3fd
 80070e2:	f200 30fd 	addw	r0, r0, #1021	@ 0x3fd
 80070e6:	6020      	str	r0, [r4, #0]
 80070e8:	2000      	movs	r0, #0
 80070ea:	e7e8      	b.n	80070be <__submore+0x1e>
 80070ec:	6ba6      	ldr	r6, [r4, #56]	@ 0x38
 80070ee:	0077      	lsls	r7, r6, #1
 80070f0:	463a      	mov	r2, r7
 80070f2:	f000 f80f 	bl	8007114 <_realloc_r>
 80070f6:	4605      	mov	r5, r0
 80070f8:	2800      	cmp	r0, #0
 80070fa:	d0de      	beq.n	80070ba <__submore+0x1a>
 80070fc:	eb00 0806 	add.w	r8, r0, r6
 8007100:	4601      	mov	r1, r0
 8007102:	4632      	mov	r2, r6
 8007104:	4640      	mov	r0, r8
 8007106:	f7fd fb05 	bl	8004714 <memcpy>
 800710a:	e9c4 570d 	strd	r5, r7, [r4, #52]	@ 0x34
 800710e:	f8c4 8000 	str.w	r8, [r4]
 8007112:	e7e9      	b.n	80070e8 <__submore+0x48>

08007114 <_realloc_r>:
 8007114:	e92d 41f0 	stmdb	sp!, {r4, r5, r6, r7, r8, lr}
 8007118:	4607      	mov	r7, r0
 800711a:	4614      	mov	r4, r2
 800711c:	460d      	mov	r5, r1
 800711e:	b921      	cbnz	r1, 800712a <_realloc_r+0x16>
 8007120:	e8bd 41f0 	ldmia.w	sp!, {r4, r5, r6, r7, r8, lr}
 8007124:	4611      	mov	r1, r2
 8007126:	f7ff b83f 	b.w	80061a8 <_malloc_r>
 800712a:	b92a      	cbnz	r2, 8007138 <_realloc_r+0x24>
 800712c:	f7fe f968 	bl	8005400 <_free_r>
 8007130:	4625      	mov	r5, r4
 8007132:	4628      	mov	r0, r5
 8007134:	e8bd 81f0 	ldmia.w	sp!, {r4, r5, r6, r7, r8, pc}
 8007138:	f000 f8f4 	bl	8007324 <_malloc_usable_size_r>
 800713c:	4284      	cmp	r4, r0
 800713e:	4606      	mov	r6, r0
 8007140:	d802      	bhi.n	8007148 <_realloc_r+0x34>
 8007142:	ebb4 0f50 	cmp.w	r4, r0, lsr #1
 8007146:	d8f4      	bhi.n	8007132 <_realloc_r+0x1e>
 8007148:	4621      	mov	r1, r4
 800714a:	4638      	mov	r0, r7
 800714c:	f7ff f82c 	bl	80061a8 <_malloc_r>
 8007150:	4680      	mov	r8, r0
 8007152:	b908      	cbnz	r0, 8007158 <_realloc_r+0x44>
 8007154:	4645      	mov	r5, r8
 8007156:	e7ec      	b.n	8007132 <_realloc_r+0x1e>
 8007158:	42b4      	cmp	r4, r6
 800715a:	4622      	mov	r2, r4
 800715c:	4629      	mov	r1, r5
 800715e:	bf28      	it	cs
 8007160:	4632      	movcs	r2, r6
 8007162:	f7fd fad7 	bl	8004714 <memcpy>
 8007166:	4629      	mov	r1, r5
 8007168:	4638      	mov	r0, r7
 800716a:	f7fe f949 	bl	8005400 <_free_r>
 800716e:	e7f1      	b.n	8007154 <_realloc_r+0x40>

08007170 <_strtoul_l.isra.0>:
 8007170:	e92d 43f0 	stmdb	sp!, {r4, r5, r6, r7, r8, r9, lr}
 8007174:	4e34      	ldr	r6, [pc, #208]	@ (8007248 <_strtoul_l.isra.0+0xd8>)
 8007176:	4686      	mov	lr, r0
 8007178:	460d      	mov	r5, r1
 800717a:	4628      	mov	r0, r5
 800717c:	f815 4b01 	ldrb.w	r4, [r5], #1
 8007180:	5d37      	ldrb	r7, [r6, r4]
 8007182:	f017 0708 	ands.w	r7, r7, #8
 8007186:	d1f8      	bne.n	800717a <_strtoul_l.isra.0+0xa>
 8007188:	2c2d      	cmp	r4, #45	@ 0x2d
 800718a:	d110      	bne.n	80071ae <_strtoul_l.isra.0+0x3e>
 800718c:	782c      	ldrb	r4, [r5, #0]
 800718e:	2701      	movs	r7, #1
 8007190:	1c85      	adds	r5, r0, #2
 8007192:	f033 0010 	bics.w	r0, r3, #16
 8007196:	d115      	bne.n	80071c4 <_strtoul_l.isra.0+0x54>
 8007198:	2c30      	cmp	r4, #48	@ 0x30
 800719a:	d10d      	bne.n	80071b8 <_strtoul_l.isra.0+0x48>
 800719c:	7828      	ldrb	r0, [r5, #0]
 800719e:	f000 00df 	and.w	r0, r0, #223	@ 0xdf
 80071a2:	2858      	cmp	r0, #88	@ 0x58
 80071a4:	d108      	bne.n	80071b8 <_strtoul_l.isra.0+0x48>
 80071a6:	786c      	ldrb	r4, [r5, #1]
 80071a8:	3502      	adds	r5, #2
 80071aa:	2310      	movs	r3, #16
 80071ac:	e00a      	b.n	80071c4 <_strtoul_l.isra.0+0x54>
 80071ae:	2c2b      	cmp	r4, #43	@ 0x2b
 80071b0:	bf04      	itt	eq
 80071b2:	782c      	ldrbeq	r4, [r5, #0]
 80071b4:	1c85      	addeq	r5, r0, #2
 80071b6:	e7ec      	b.n	8007192 <_strtoul_l.isra.0+0x22>
 80071b8:	2b00      	cmp	r3, #0
 80071ba:	d1f6      	bne.n	80071aa <_strtoul_l.isra.0+0x3a>
 80071bc:	2c30      	cmp	r4, #48	@ 0x30
 80071be:	bf14      	ite	ne
 80071c0:	230a      	movne	r3, #10
 80071c2:	2308      	moveq	r3, #8
 80071c4:	f04f 38ff 	mov.w	r8, #4294967295	@ 0xffffffff
 80071c8:	2600      	movs	r6, #0
 80071ca:	fbb8 f8f3 	udiv	r8, r8, r3
 80071ce:	fb03 f908 	mul.w	r9, r3, r8
 80071d2:	ea6f 0909 	mvn.w	r9, r9
 80071d6:	4630      	mov	r0, r6
 80071d8:	f1a4 0c30 	sub.w	ip, r4, #48	@ 0x30
 80071dc:	f1bc 0f09 	cmp.w	ip, #9
 80071e0:	d810      	bhi.n	8007204 <_strtoul_l.isra.0+0x94>
 80071e2:	4664      	mov	r4, ip
 80071e4:	42a3      	cmp	r3, r4
 80071e6:	dd1e      	ble.n	8007226 <_strtoul_l.isra.0+0xb6>
 80071e8:	f1b6 3fff 	cmp.w	r6, #4294967295	@ 0xffffffff
 80071ec:	d007      	beq.n	80071fe <_strtoul_l.isra.0+0x8e>
 80071ee:	4580      	cmp	r8, r0
 80071f0:	d316      	bcc.n	8007220 <_strtoul_l.isra.0+0xb0>
 80071f2:	d101      	bne.n	80071f8 <_strtoul_l.isra.0+0x88>
 80071f4:	45a1      	cmp	r9, r4
 80071f6:	db13      	blt.n	8007220 <_strtoul_l.isra.0+0xb0>
 80071f8:	fb00 4003 	mla	r0, r0, r3, r4
 80071fc:	2601      	movs	r6, #1
 80071fe:	f815 4b01 	ldrb.w	r4, [r5], #1
 8007202:	e7e9      	b.n	80071d8 <_strtoul_l.isra.0+0x68>
 8007204:	f1a4 0c41 	sub.w	ip, r4, #65	@ 0x41
 8007208:	f1bc 0f19 	cmp.w	ip, #25
 800720c:	d801      	bhi.n	8007212 <_strtoul_l.isra.0+0xa2>
 800720e:	3c37      	subs	r4, #55	@ 0x37
 8007210:	e7e8      	b.n	80071e4 <_strtoul_l.isra.0+0x74>
 8007212:	f1a4 0c61 	sub.w	ip, r4, #97	@ 0x61
 8007216:	f1bc 0f19 	cmp.w	ip, #25
 800721a:	d804      	bhi.n	8007226 <_strtoul_l.isra.0+0xb6>
 800721c:	3c57      	subs	r4, #87	@ 0x57
 800721e:	e7e1      	b.n	80071e4 <_strtoul_l.isra.0+0x74>
 8007220:	f04f 36ff 	mov.w	r6, #4294967295	@ 0xffffffff
 8007224:	e7eb      	b.n	80071fe <_strtoul_l.isra.0+0x8e>
 8007226:	1c73      	adds	r3, r6, #1
 8007228:	d106      	bne.n	8007238 <_strtoul_l.isra.0+0xc8>
 800722a:	2322      	movs	r3, #34	@ 0x22
 800722c:	f8ce 3000 	str.w	r3, [lr]
 8007230:	4630      	mov	r0, r6
 8007232:	b932      	cbnz	r2, 8007242 <_strtoul_l.isra.0+0xd2>
 8007234:	e8bd 83f0 	ldmia.w	sp!, {r4, r5, r6, r7, r8, r9, pc}
 8007238:	b107      	cbz	r7, 800723c <_strtoul_l.isra.0+0xcc>
 800723a:	4240      	negs	r0, r0
 800723c:	2a00      	cmp	r2, #0
 800723e:	d0f9      	beq.n	8007234 <_strtoul_l.isra.0+0xc4>
 8007240:	b106      	cbz	r6, 8007244 <_strtoul_l.isra.0+0xd4>
 8007242:	1e69      	subs	r1, r5, #1
 8007244:	6011      	str	r1, [r2, #0]
 8007246:	e7f5      	b.n	8007234 <_strtoul_l.isra.0+0xc4>
 8007248:	08007f61 	.word	0x08007f61

0800724c <_strtoul_r>:
 800724c:	f7ff bf90 	b.w	8007170 <_strtoul_l.isra.0>

08007250 <__ascii_wctomb>:
 8007250:	4603      	mov	r3, r0
 8007252:	4608      	mov	r0, r1
 8007254:	b141      	cbz	r1, 8007268 <__ascii_wctomb+0x18>
 8007256:	2aff      	cmp	r2, #255	@ 0xff
 8007258:	d904      	bls.n	8007264 <__ascii_wctomb+0x14>
 800725a:	228a      	movs	r2, #138	@ 0x8a
 800725c:	601a      	str	r2, [r3, #0]
 800725e:	f04f 30ff 	mov.w	r0, #4294967295	@ 0xffffffff
 8007262:	4770      	bx	lr
 8007264:	700a      	strb	r2, [r1, #0]
 8007266:	2001      	movs	r0, #1
 8007268:	4770      	bx	lr

0800726a <memmove>:
 800726a:	4288      	cmp	r0, r1
 800726c:	b510      	push	{r4, lr}
 800726e:	eb01 0402 	add.w	r4, r1, r2
 8007272:	d902      	bls.n	800727a <memmove+0x10>
 8007274:	4284      	cmp	r4, r0
 8007276:	4623      	mov	r3, r4
 8007278:	d807      	bhi.n	800728a <memmove+0x20>
 800727a:	1e43      	subs	r3, r0, #1
 800727c:	42a1      	cmp	r1, r4
 800727e:	d008      	beq.n	8007292 <memmove+0x28>
 8007280:	f811 2b01 	ldrb.w	r2, [r1], #1
 8007284:	f803 2f01 	strb.w	r2, [r3, #1]!
 8007288:	e7f8      	b.n	800727c <memmove+0x12>
 800728a:	4402      	add	r2, r0
 800728c:	4601      	mov	r1, r0
 800728e:	428a      	cmp	r2, r1
 8007290:	d100      	bne.n	8007294 <memmove+0x2a>
 8007292:	bd10      	pop	{r4, pc}
 8007294:	f813 4d01 	ldrb.w	r4, [r3, #-1]!
 8007298:	f802 4d01 	strb.w	r4, [r2, #-1]!
 800729c:	e7f7      	b.n	800728e <memmove+0x24>
	...

080072a0 <_sbrk_r>:
 80072a0:	b538      	push	{r3, r4, r5, lr}
 80072a2:	4d06      	ldr	r5, [pc, #24]	@ (80072bc <_sbrk_r+0x1c>)
 80072a4:	2300      	movs	r3, #0
 80072a6:	4604      	mov	r4, r0
 80072a8:	4608      	mov	r0, r1
 80072aa:	602b      	str	r3, [r5, #0]
 80072ac:	f7fb f920 	bl	80024f0 <_sbrk>
 80072b0:	1c43      	adds	r3, r0, #1
 80072b2:	d102      	bne.n	80072ba <_sbrk_r+0x1a>
 80072b4:	682b      	ldr	r3, [r5, #0]
 80072b6:	b103      	cbz	r3, 80072ba <_sbrk_r+0x1a>
 80072b8:	6023      	str	r3, [r4, #0]
 80072ba:	bd38      	pop	{r3, r4, r5, pc}
 80072bc:	2000047c 	.word	0x2000047c

080072c0 <__assert_func>:
 80072c0:	b51f      	push	{r0, r1, r2, r3, r4, lr}
 80072c2:	4614      	mov	r4, r2
 80072c4:	461a      	mov	r2, r3
 80072c6:	4b09      	ldr	r3, [pc, #36]	@ (80072ec <__assert_func+0x2c>)
 80072c8:	681b      	ldr	r3, [r3, #0]
 80072ca:	4605      	mov	r5, r0
 80072cc:	68d8      	ldr	r0, [r3, #12]
 80072ce:	b14c      	cbz	r4, 80072e4 <__assert_func+0x24>
 80072d0:	4b07      	ldr	r3, [pc, #28]	@ (80072f0 <__assert_func+0x30>)
 80072d2:	9100      	str	r1, [sp, #0]
 80072d4:	e9cd 3401 	strd	r3, r4, [sp, #4]
 80072d8:	4906      	ldr	r1, [pc, #24]	@ (80072f4 <__assert_func+0x34>)
 80072da:	462b      	mov	r3, r5
 80072dc:	f000 f82a 	bl	8007334 <fiprintf>
 80072e0:	f000 f83a 	bl	8007358 <abort>
 80072e4:	4b04      	ldr	r3, [pc, #16]	@ (80072f8 <__assert_func+0x38>)
 80072e6:	461c      	mov	r4, r3
 80072e8:	e7f3      	b.n	80072d2 <__assert_func+0x12>
 80072ea:	bf00      	nop
 80072ec:	20000194 	.word	0x20000194
 80072f0:	08007ecd 	.word	0x08007ecd
 80072f4:	08007eda 	.word	0x08007eda
 80072f8:	08007f08 	.word	0x08007f08

080072fc <_calloc_r>:
 80072fc:	b570      	push	{r4, r5, r6, lr}
 80072fe:	fba1 5402 	umull	r5, r4, r1, r2
 8007302:	b934      	cbnz	r4, 8007312 <_calloc_r+0x16>
 8007304:	4629      	mov	r1, r5
 8007306:	f7fe ff4f 	bl	80061a8 <_malloc_r>
 800730a:	4606      	mov	r6, r0
 800730c:	b928      	cbnz	r0, 800731a <_calloc_r+0x1e>
 800730e:	4630      	mov	r0, r6
 8007310:	bd70      	pop	{r4, r5, r6, pc}
 8007312:	220c      	movs	r2, #12
 8007314:	6002      	str	r2, [r0, #0]
 8007316:	2600      	movs	r6, #0
 8007318:	e7f9      	b.n	800730e <_calloc_r+0x12>
 800731a:	462a      	mov	r2, r5
 800731c:	4621      	mov	r1, r4
 800731e:	f7fd f967 	bl	80045f0 <memset>
 8007322:	e7f4      	b.n	800730e <_calloc_r+0x12>

08007324 <_malloc_usable_size_r>:
 8007324:	f851 3c04 	ldr.w	r3, [r1, #-4]
 8007328:	1f18      	subs	r0, r3, #4
 800732a:	2b00      	cmp	r3, #0
 800732c:	bfbc      	itt	lt
 800732e:	580b      	ldrlt	r3, [r1, r0]
 8007330:	18c0      	addlt	r0, r0, r3
 8007332:	4770      	bx	lr

08007334 <fiprintf>:
 8007334:	b40e      	push	{r1, r2, r3}
 8007336:	b503      	push	{r0, r1, lr}
 8007338:	4601      	mov	r1, r0
 800733a:	ab03      	add	r3, sp, #12
 800733c:	4805      	ldr	r0, [pc, #20]	@ (8007354 <fiprintf+0x20>)
 800733e:	f853 2b04 	ldr.w	r2, [r3], #4
 8007342:	6800      	ldr	r0, [r0, #0]
 8007344:	9301      	str	r3, [sp, #4]
 8007346:	f000 f837 	bl	80073b8 <_vfiprintf_r>
 800734a:	b002      	add	sp, #8
 800734c:	f85d eb04 	ldr.w	lr, [sp], #4
 8007350:	b003      	add	sp, #12
 8007352:	4770      	bx	lr
 8007354:	20000194 	.word	0x20000194

08007358 <abort>:
 8007358:	b508      	push	{r3, lr}
 800735a:	2006      	movs	r0, #6
 800735c:	f000 fa62 	bl	8007824 <raise>
 8007360:	2001      	movs	r0, #1
 8007362:	f7fb f84c 	bl	80023fe <_exit>

08007366 <__sfputc_r>:
 8007366:	6893      	ldr	r3, [r2, #8]
 8007368:	3b01      	subs	r3, #1
 800736a:	2b00      	cmp	r3, #0
 800736c:	b410      	push	{r4}
 800736e:	6093      	str	r3, [r2, #8]
 8007370:	da08      	bge.n	8007384 <__sfputc_r+0x1e>
 8007372:	6994      	ldr	r4, [r2, #24]
 8007374:	42a3      	cmp	r3, r4
 8007376:	db01      	blt.n	800737c <__sfputc_r+0x16>
 8007378:	290a      	cmp	r1, #10
 800737a:	d103      	bne.n	8007384 <__sfputc_r+0x1e>
 800737c:	f85d 4b04 	ldr.w	r4, [sp], #4
 8007380:	f000 b932 	b.w	80075e8 <__swbuf_r>
 8007384:	6813      	ldr	r3, [r2, #0]
 8007386:	1c58      	adds	r0, r3, #1
 8007388:	6010      	str	r0, [r2, #0]
 800738a:	7019      	strb	r1, [r3, #0]
 800738c:	4608      	mov	r0, r1
 800738e:	f85d 4b04 	ldr.w	r4, [sp], #4
 8007392:	4770      	bx	lr

08007394 <__sfputs_r>:
 8007394:	b5f8      	push	{r3, r4, r5, r6, r7, lr}
 8007396:	4606      	mov	r6, r0
 8007398:	460f      	mov	r7, r1
 800739a:	4614      	mov	r4, r2
 800739c:	18d5      	adds	r5, r2, r3
 800739e:	42ac      	cmp	r4, r5
 80073a0:	d101      	bne.n	80073a6 <__sfputs_r+0x12>
 80073a2:	2000      	movs	r0, #0
 80073a4:	e007      	b.n	80073b6 <__sfputs_r+0x22>
 80073a6:	f814 1b01 	ldrb.w	r1, [r4], #1
 80073aa:	463a      	mov	r2, r7
 80073ac:	4630      	mov	r0, r6
 80073ae:	f7ff ffda 	bl	8007366 <__sfputc_r>
 80073b2:	1c43      	adds	r3, r0, #1
 80073b4:	d1f3      	bne.n	800739e <__sfputs_r+0xa>
 80073b6:	bdf8      	pop	{r3, r4, r5, r6, r7, pc}

080073b8 <_vfiprintf_r>:
 80073b8:	e92d 4ff0 	stmdb	sp!, {r4, r5, r6, r7, r8, r9, sl, fp, lr}
 80073bc:	460d      	mov	r5, r1
 80073be:	b09d      	sub	sp, #116	@ 0x74
 80073c0:	4614      	mov	r4, r2
 80073c2:	4698      	mov	r8, r3
 80073c4:	4606      	mov	r6, r0
 80073c6:	b118      	cbz	r0, 80073d0 <_vfiprintf_r+0x18>
 80073c8:	6a03      	ldr	r3, [r0, #32]
 80073ca:	b90b      	cbnz	r3, 80073d0 <_vfiprintf_r+0x18>
 80073cc:	f7fc fa54 	bl	8003878 <__sinit>
 80073d0:	6e6b      	ldr	r3, [r5, #100]	@ 0x64
 80073d2:	07d9      	lsls	r1, r3, #31
 80073d4:	d405      	bmi.n	80073e2 <_vfiprintf_r+0x2a>
 80073d6:	89ab      	ldrh	r3, [r5, #12]
 80073d8:	059a      	lsls	r2, r3, #22
 80073da:	d402      	bmi.n	80073e2 <_vfiprintf_r+0x2a>
 80073dc:	6da8      	ldr	r0, [r5, #88]	@ 0x58
 80073de:	f7fd f982 	bl	80046e6 <__retarget_lock_acquire_recursive>
 80073e2:	89ab      	ldrh	r3, [r5, #12]
 80073e4:	071b      	lsls	r3, r3, #28
 80073e6:	d501      	bpl.n	80073ec <_vfiprintf_r+0x34>
 80073e8:	692b      	ldr	r3, [r5, #16]
 80073ea:	b99b      	cbnz	r3, 8007414 <_vfiprintf_r+0x5c>
 80073ec:	4629      	mov	r1, r5
 80073ee:	4630      	mov	r0, r6
 80073f0:	f000 f938 	bl	8007664 <__swsetup_r>
 80073f4:	b170      	cbz	r0, 8007414 <_vfiprintf_r+0x5c>
 80073f6:	6e6b      	ldr	r3, [r5, #100]	@ 0x64
 80073f8:	07dc      	lsls	r4, r3, #31
 80073fa:	d504      	bpl.n	8007406 <_vfiprintf_r+0x4e>
 80073fc:	f04f 30ff 	mov.w	r0, #4294967295	@ 0xffffffff
 8007400:	b01d      	add	sp, #116	@ 0x74
 8007402:	e8bd 8ff0 	ldmia.w	sp!, {r4, r5, r6, r7, r8, r9, sl, fp, pc}
 8007406:	89ab      	ldrh	r3, [r5, #12]
 8007408:	0598      	lsls	r0, r3, #22
 800740a:	d4f7      	bmi.n	80073fc <_vfiprintf_r+0x44>
 800740c:	6da8      	ldr	r0, [r5, #88]	@ 0x58
 800740e:	f7fd f96b 	bl	80046e8 <__retarget_lock_release_recursive>
 8007412:	e7f3      	b.n	80073fc <_vfiprintf_r+0x44>
 8007414:	2300      	movs	r3, #0
 8007416:	9309      	str	r3, [sp, #36]	@ 0x24
 8007418:	2320      	movs	r3, #32
 800741a:	f88d 3029 	strb.w	r3, [sp, #41]	@ 0x29
 800741e:	f8cd 800c 	str.w	r8, [sp, #12]
 8007422:	2330      	movs	r3, #48	@ 0x30
 8007424:	f8df 81ac 	ldr.w	r8, [pc, #428]	@ 80075d4 <_vfiprintf_r+0x21c>
 8007428:	f88d 302a 	strb.w	r3, [sp, #42]	@ 0x2a
 800742c:	f04f 0901 	mov.w	r9, #1
 8007430:	4623      	mov	r3, r4
 8007432:	469a      	mov	sl, r3
 8007434:	f813 2b01 	ldrb.w	r2, [r3], #1
 8007438:	b10a      	cbz	r2, 800743e <_vfiprintf_r+0x86>
 800743a:	2a25      	cmp	r2, #37	@ 0x25
 800743c:	d1f9      	bne.n	8007432 <_vfiprintf_r+0x7a>
 800743e:	ebba 0b04 	subs.w	fp, sl, r4
 8007442:	d00b      	beq.n	800745c <_vfiprintf_r+0xa4>
 8007444:	465b      	mov	r3, fp
 8007446:	4622      	mov	r2, r4
 8007448:	4629      	mov	r1, r5
 800744a:	4630      	mov	r0, r6
 800744c:	f7ff ffa2 	bl	8007394 <__sfputs_r>
 8007450:	3001      	adds	r0, #1
 8007452:	f000 80a7 	beq.w	80075a4 <_vfiprintf_r+0x1ec>
 8007456:	9a09      	ldr	r2, [sp, #36]	@ 0x24
 8007458:	445a      	add	r2, fp
 800745a:	9209      	str	r2, [sp, #36]	@ 0x24
 800745c:	f89a 3000 	ldrb.w	r3, [sl]
 8007460:	2b00      	cmp	r3, #0
 8007462:	f000 809f 	beq.w	80075a4 <_vfiprintf_r+0x1ec>
 8007466:	2300      	movs	r3, #0
 8007468:	f04f 32ff 	mov.w	r2, #4294967295	@ 0xffffffff
 800746c:	e9cd 2305 	strd	r2, r3, [sp, #20]
 8007470:	f10a 0a01 	add.w	sl, sl, #1
 8007474:	9304      	str	r3, [sp, #16]
 8007476:	9307      	str	r3, [sp, #28]
 8007478:	f88d 3053 	strb.w	r3, [sp, #83]	@ 0x53
 800747c:	931a      	str	r3, [sp, #104]	@ 0x68
 800747e:	4654      	mov	r4, sl
 8007480:	2205      	movs	r2, #5
 8007482:	f814 1b01 	ldrb.w	r1, [r4], #1
 8007486:	4853      	ldr	r0, [pc, #332]	@ (80075d4 <_vfiprintf_r+0x21c>)
 8007488:	f7f8 fed2 	bl	8000230 <memchr>
 800748c:	9a04      	ldr	r2, [sp, #16]
 800748e:	b9d8      	cbnz	r0, 80074c8 <_vfiprintf_r+0x110>
 8007490:	06d1      	lsls	r1, r2, #27
 8007492:	bf44      	itt	mi
 8007494:	2320      	movmi	r3, #32
 8007496:	f88d 3053 	strbmi.w	r3, [sp, #83]	@ 0x53
 800749a:	0713      	lsls	r3, r2, #28
 800749c:	bf44      	itt	mi
 800749e:	232b      	movmi	r3, #43	@ 0x2b
 80074a0:	f88d 3053 	strbmi.w	r3, [sp, #83]	@ 0x53
 80074a4:	f89a 3000 	ldrb.w	r3, [sl]
 80074a8:	2b2a      	cmp	r3, #42	@ 0x2a
 80074aa:	d015      	beq.n	80074d8 <_vfiprintf_r+0x120>
 80074ac:	9a07      	ldr	r2, [sp, #28]
 80074ae:	4654      	mov	r4, sl
 80074b0:	2000      	movs	r0, #0
 80074b2:	f04f 0c0a 	mov.w	ip, #10
 80074b6:	4621      	mov	r1, r4
 80074b8:	f811 3b01 	ldrb.w	r3, [r1], #1
 80074bc:	3b30      	subs	r3, #48	@ 0x30
 80074be:	2b09      	cmp	r3, #9
 80074c0:	d94b      	bls.n	800755a <_vfiprintf_r+0x1a2>
 80074c2:	b1b0      	cbz	r0, 80074f2 <_vfiprintf_r+0x13a>
 80074c4:	9207      	str	r2, [sp, #28]
 80074c6:	e014      	b.n	80074f2 <_vfiprintf_r+0x13a>
 80074c8:	eba0 0308 	sub.w	r3, r0, r8
 80074cc:	fa09 f303 	lsl.w	r3, r9, r3
 80074d0:	4313      	orrs	r3, r2
 80074d2:	9304      	str	r3, [sp, #16]
 80074d4:	46a2      	mov	sl, r4
 80074d6:	e7d2      	b.n	800747e <_vfiprintf_r+0xc6>
 80074d8:	9b03      	ldr	r3, [sp, #12]
 80074da:	1d19      	adds	r1, r3, #4
 80074dc:	681b      	ldr	r3, [r3, #0]
 80074de:	9103      	str	r1, [sp, #12]
 80074e0:	2b00      	cmp	r3, #0
 80074e2:	bfbb      	ittet	lt
 80074e4:	425b      	neglt	r3, r3
 80074e6:	f042 0202 	orrlt.w	r2, r2, #2
 80074ea:	9307      	strge	r3, [sp, #28]
 80074ec:	9307      	strlt	r3, [sp, #28]
 80074ee:	bfb8      	it	lt
 80074f0:	9204      	strlt	r2, [sp, #16]
 80074f2:	7823      	ldrb	r3, [r4, #0]
 80074f4:	2b2e      	cmp	r3, #46	@ 0x2e
 80074f6:	d10a      	bne.n	800750e <_vfiprintf_r+0x156>
 80074f8:	7863      	ldrb	r3, [r4, #1]
 80074fa:	2b2a      	cmp	r3, #42	@ 0x2a
 80074fc:	d132      	bne.n	8007564 <_vfiprintf_r+0x1ac>
 80074fe:	9b03      	ldr	r3, [sp, #12]
 8007500:	1d1a      	adds	r2, r3, #4
 8007502:	681b      	ldr	r3, [r3, #0]
 8007504:	9203      	str	r2, [sp, #12]
 8007506:	ea43 73e3 	orr.w	r3, r3, r3, asr #31
 800750a:	3402      	adds	r4, #2
 800750c:	9305      	str	r3, [sp, #20]
 800750e:	f8df a0d4 	ldr.w	sl, [pc, #212]	@ 80075e4 <_vfiprintf_r+0x22c>
 8007512:	7821      	ldrb	r1, [r4, #0]
 8007514:	2203      	movs	r2, #3
 8007516:	4650      	mov	r0, sl
 8007518:	f7f8 fe8a 	bl	8000230 <memchr>
 800751c:	b138      	cbz	r0, 800752e <_vfiprintf_r+0x176>
 800751e:	9b04      	ldr	r3, [sp, #16]
 8007520:	eba0 000a 	sub.w	r0, r0, sl
 8007524:	2240      	movs	r2, #64	@ 0x40
 8007526:	4082      	lsls	r2, r0
 8007528:	4313      	orrs	r3, r2
 800752a:	3401      	adds	r4, #1
 800752c:	9304      	str	r3, [sp, #16]
 800752e:	f814 1b01 	ldrb.w	r1, [r4], #1
 8007532:	4829      	ldr	r0, [pc, #164]	@ (80075d8 <_vfiprintf_r+0x220>)
 8007534:	f88d 1028 	strb.w	r1, [sp, #40]	@ 0x28
 8007538:	2206      	movs	r2, #6
 800753a:	f7f8 fe79 	bl	8000230 <memchr>
 800753e:	2800      	cmp	r0, #0
 8007540:	d03f      	beq.n	80075c2 <_vfiprintf_r+0x20a>
 8007542:	4b26      	ldr	r3, [pc, #152]	@ (80075dc <_vfiprintf_r+0x224>)
 8007544:	bb1b      	cbnz	r3, 800758e <_vfiprintf_r+0x1d6>
 8007546:	9b03      	ldr	r3, [sp, #12]
 8007548:	3307      	adds	r3, #7
 800754a:	f023 0307 	bic.w	r3, r3, #7
 800754e:	3308      	adds	r3, #8
 8007550:	9303      	str	r3, [sp, #12]
 8007552:	9b09      	ldr	r3, [sp, #36]	@ 0x24
 8007554:	443b      	add	r3, r7
 8007556:	9309      	str	r3, [sp, #36]	@ 0x24
 8007558:	e76a      	b.n	8007430 <_vfiprintf_r+0x78>
 800755a:	fb0c 3202 	mla	r2, ip, r2, r3
 800755e:	460c      	mov	r4, r1
 8007560:	2001      	movs	r0, #1
 8007562:	e7a8      	b.n	80074b6 <_vfiprintf_r+0xfe>
 8007564:	2300      	movs	r3, #0
 8007566:	3401      	adds	r4, #1
 8007568:	9305      	str	r3, [sp, #20]
 800756a:	4619      	mov	r1, r3
 800756c:	f04f 0c0a 	mov.w	ip, #10
 8007570:	4620      	mov	r0, r4
 8007572:	f810 2b01 	ldrb.w	r2, [r0], #1
 8007576:	3a30      	subs	r2, #48	@ 0x30
 8007578:	2a09      	cmp	r2, #9
 800757a:	d903      	bls.n	8007584 <_vfiprintf_r+0x1cc>
 800757c:	2b00      	cmp	r3, #0
 800757e:	d0c6      	beq.n	800750e <_vfiprintf_r+0x156>
 8007580:	9105      	str	r1, [sp, #20]
 8007582:	e7c4      	b.n	800750e <_vfiprintf_r+0x156>
 8007584:	fb0c 2101 	mla	r1, ip, r1, r2
 8007588:	4604      	mov	r4, r0
 800758a:	2301      	movs	r3, #1
 800758c:	e7f0      	b.n	8007570 <_vfiprintf_r+0x1b8>
 800758e:	ab03      	add	r3, sp, #12
 8007590:	9300      	str	r3, [sp, #0]
 8007592:	462a      	mov	r2, r5
 8007594:	4b12      	ldr	r3, [pc, #72]	@ (80075e0 <_vfiprintf_r+0x228>)
 8007596:	a904      	add	r1, sp, #16
 8007598:	4630      	mov	r0, r6
 800759a:	f7fb fa53 	bl	8002a44 <_printf_float>
 800759e:	4607      	mov	r7, r0
 80075a0:	1c78      	adds	r0, r7, #1
 80075a2:	d1d6      	bne.n	8007552 <_vfiprintf_r+0x19a>
 80075a4:	6e6b      	ldr	r3, [r5, #100]	@ 0x64
 80075a6:	07d9      	lsls	r1, r3, #31
 80075a8:	d405      	bmi.n	80075b6 <_vfiprintf_r+0x1fe>
 80075aa:	89ab      	ldrh	r3, [r5, #12]
 80075ac:	059a      	lsls	r2, r3, #22
 80075ae:	d402      	bmi.n	80075b6 <_vfiprintf_r+0x1fe>
 80075b0:	6da8      	ldr	r0, [r5, #88]	@ 0x58
 80075b2:	f7fd f899 	bl	80046e8 <__retarget_lock_release_recursive>
 80075b6:	89ab      	ldrh	r3, [r5, #12]
 80075b8:	065b      	lsls	r3, r3, #25
 80075ba:	f53f af1f 	bmi.w	80073fc <_vfiprintf_r+0x44>
 80075be:	9809      	ldr	r0, [sp, #36]	@ 0x24
 80075c0:	e71e      	b.n	8007400 <_vfiprintf_r+0x48>
 80075c2:	ab03      	add	r3, sp, #12
 80075c4:	9300      	str	r3, [sp, #0]
 80075c6:	462a      	mov	r2, r5
 80075c8:	4b05      	ldr	r3, [pc, #20]	@ (80075e0 <_vfiprintf_r+0x228>)
 80075ca:	a904      	add	r1, sp, #16
 80075cc:	4630      	mov	r0, r6
 80075ce:	f7fb fcd1 	bl	8002f74 <_printf_i>
 80075d2:	e7e4      	b.n	800759e <_vfiprintf_r+0x1e6>
 80075d4:	08007e48 	.word	0x08007e48
 80075d8:	08007e52 	.word	0x08007e52
 80075dc:	08002a45 	.word	0x08002a45
 80075e0:	08007395 	.word	0x08007395
 80075e4:	08007e4e 	.word	0x08007e4e

080075e8 <__swbuf_r>:
 80075e8:	b5f8      	push	{r3, r4, r5, r6, r7, lr}
 80075ea:	460e      	mov	r6, r1
 80075ec:	4614      	mov	r4, r2
 80075ee:	4605      	mov	r5, r0
 80075f0:	b118      	cbz	r0, 80075fa <__swbuf_r+0x12>
 80075f2:	6a03      	ldr	r3, [r0, #32]
 80075f4:	b90b      	cbnz	r3, 80075fa <__swbuf_r+0x12>
 80075f6:	f7fc f93f 	bl	8003878 <__sinit>
 80075fa:	69a3      	ldr	r3, [r4, #24]
 80075fc:	60a3      	str	r3, [r4, #8]
 80075fe:	89a3      	ldrh	r3, [r4, #12]
 8007600:	071a      	lsls	r2, r3, #28
 8007602:	d501      	bpl.n	8007608 <__swbuf_r+0x20>
 8007604:	6923      	ldr	r3, [r4, #16]
 8007606:	b943      	cbnz	r3, 800761a <__swbuf_r+0x32>
 8007608:	4621      	mov	r1, r4
 800760a:	4628      	mov	r0, r5
 800760c:	f000 f82a 	bl	8007664 <__swsetup_r>
 8007610:	b118      	cbz	r0, 800761a <__swbuf_r+0x32>
 8007612:	f04f 37ff 	mov.w	r7, #4294967295	@ 0xffffffff
 8007616:	4638      	mov	r0, r7
 8007618:	bdf8      	pop	{r3, r4, r5, r6, r7, pc}
 800761a:	6823      	ldr	r3, [r4, #0]
 800761c:	6922      	ldr	r2, [r4, #16]
 800761e:	1a98      	subs	r0, r3, r2
 8007620:	6963      	ldr	r3, [r4, #20]
 8007622:	b2f6      	uxtb	r6, r6
 8007624:	4283      	cmp	r3, r0
 8007626:	4637      	mov	r7, r6
 8007628:	dc05      	bgt.n	8007636 <__swbuf_r+0x4e>
 800762a:	4621      	mov	r1, r4
 800762c:	4628      	mov	r0, r5
 800762e:	f7ff f859 	bl	80066e4 <_fflush_r>
 8007632:	2800      	cmp	r0, #0
 8007634:	d1ed      	bne.n	8007612 <__swbuf_r+0x2a>
 8007636:	68a3      	ldr	r3, [r4, #8]
 8007638:	3b01      	subs	r3, #1
 800763a:	60a3      	str	r3, [r4, #8]
 800763c:	6823      	ldr	r3, [r4, #0]
 800763e:	1c5a      	adds	r2, r3, #1
 8007640:	6022      	str	r2, [r4, #0]
 8007642:	701e      	strb	r6, [r3, #0]
 8007644:	6962      	ldr	r2, [r4, #20]
 8007646:	1c43      	adds	r3, r0, #1
 8007648:	429a      	cmp	r2, r3
 800764a:	d004      	beq.n	8007656 <__swbuf_r+0x6e>
 800764c:	89a3      	ldrh	r3, [r4, #12]
 800764e:	07db      	lsls	r3, r3, #31
 8007650:	d5e1      	bpl.n	8007616 <__swbuf_r+0x2e>
 8007652:	2e0a      	cmp	r6, #10
 8007654:	d1df      	bne.n	8007616 <__swbuf_r+0x2e>
 8007656:	4621      	mov	r1, r4
 8007658:	4628      	mov	r0, r5
 800765a:	f7ff f843 	bl	80066e4 <_fflush_r>
 800765e:	2800      	cmp	r0, #0
 8007660:	d0d9      	beq.n	8007616 <__swbuf_r+0x2e>
 8007662:	e7d6      	b.n	8007612 <__swbuf_r+0x2a>

08007664 <__swsetup_r>:
 8007664:	b538      	push	{r3, r4, r5, lr}
 8007666:	4b29      	ldr	r3, [pc, #164]	@ (800770c <__swsetup_r+0xa8>)
 8007668:	4605      	mov	r5, r0
 800766a:	6818      	ldr	r0, [r3, #0]
 800766c:	460c      	mov	r4, r1
 800766e:	b118      	cbz	r0, 8007678 <__swsetup_r+0x14>
 8007670:	6a03      	ldr	r3, [r0, #32]
 8007672:	b90b      	cbnz	r3, 8007678 <__swsetup_r+0x14>
 8007674:	f7fc f900 	bl	8003878 <__sinit>
 8007678:	f9b4 300c 	ldrsh.w	r3, [r4, #12]
 800767c:	0719      	lsls	r1, r3, #28
 800767e:	d422      	bmi.n	80076c6 <__swsetup_r+0x62>
 8007680:	06da      	lsls	r2, r3, #27
 8007682:	d407      	bmi.n	8007694 <__swsetup_r+0x30>
 8007684:	2209      	movs	r2, #9
 8007686:	602a      	str	r2, [r5, #0]
 8007688:	f043 0340 	orr.w	r3, r3, #64	@ 0x40
 800768c:	81a3      	strh	r3, [r4, #12]
 800768e:	f04f 30ff 	mov.w	r0, #4294967295	@ 0xffffffff
 8007692:	e033      	b.n	80076fc <__swsetup_r+0x98>
 8007694:	0758      	lsls	r0, r3, #29
 8007696:	d512      	bpl.n	80076be <__swsetup_r+0x5a>
 8007698:	6b61      	ldr	r1, [r4, #52]	@ 0x34
 800769a:	b141      	cbz	r1, 80076ae <__swsetup_r+0x4a>
 800769c:	f104 0344 	add.w	r3, r4, #68	@ 0x44
 80076a0:	4299      	cmp	r1, r3
 80076a2:	d002      	beq.n	80076aa <__swsetup_r+0x46>
 80076a4:	4628      	mov	r0, r5
 80076a6:	f7fd feab 	bl	8005400 <_free_r>
 80076aa:	2300      	movs	r3, #0
 80076ac:	6363      	str	r3, [r4, #52]	@ 0x34
 80076ae:	89a3      	ldrh	r3, [r4, #12]
 80076b0:	f023 0324 	bic.w	r3, r3, #36	@ 0x24
 80076b4:	81a3      	strh	r3, [r4, #12]
 80076b6:	2300      	movs	r3, #0
 80076b8:	6063      	str	r3, [r4, #4]
 80076ba:	6923      	ldr	r3, [r4, #16]
 80076bc:	6023      	str	r3, [r4, #0]
 80076be:	89a3      	ldrh	r3, [r4, #12]
 80076c0:	f043 0308 	orr.w	r3, r3, #8
 80076c4:	81a3      	strh	r3, [r4, #12]
 80076c6:	6923      	ldr	r3, [r4, #16]
 80076c8:	b94b      	cbnz	r3, 80076de <__swsetup_r+0x7a>
 80076ca:	89a3      	ldrh	r3, [r4, #12]
 80076cc:	f403 7320 	and.w	r3, r3, #640	@ 0x280
 80076d0:	f5b3 7f00 	cmp.w	r3, #512	@ 0x200
 80076d4:	d003      	beq.n	80076de <__swsetup_r+0x7a>
 80076d6:	4621      	mov	r1, r4
 80076d8:	4628      	mov	r0, r5
 80076da:	f000 f83f 	bl	800775c <__smakebuf_r>
 80076de:	f9b4 300c 	ldrsh.w	r3, [r4, #12]
 80076e2:	f013 0201 	ands.w	r2, r3, #1
 80076e6:	d00a      	beq.n	80076fe <__swsetup_r+0x9a>
 80076e8:	2200      	movs	r2, #0
 80076ea:	60a2      	str	r2, [r4, #8]
 80076ec:	6962      	ldr	r2, [r4, #20]
 80076ee:	4252      	negs	r2, r2
 80076f0:	61a2      	str	r2, [r4, #24]
 80076f2:	6922      	ldr	r2, [r4, #16]
 80076f4:	b942      	cbnz	r2, 8007708 <__swsetup_r+0xa4>
 80076f6:	f013 0080 	ands.w	r0, r3, #128	@ 0x80
 80076fa:	d1c5      	bne.n	8007688 <__swsetup_r+0x24>
 80076fc:	bd38      	pop	{r3, r4, r5, pc}
 80076fe:	0799      	lsls	r1, r3, #30
 8007700:	bf58      	it	pl
 8007702:	6962      	ldrpl	r2, [r4, #20]
 8007704:	60a2      	str	r2, [r4, #8]
 8007706:	e7f4      	b.n	80076f2 <__swsetup_r+0x8e>
 8007708:	2000      	movs	r0, #0
 800770a:	e7f7      	b.n	80076fc <__swsetup_r+0x98>
 800770c:	20000194 	.word	0x20000194

08007710 <__swhatbuf_r>:
 8007710:	b570      	push	{r4, r5, r6, lr}
 8007712:	460c      	mov	r4, r1
 8007714:	f9b1 100e 	ldrsh.w	r1, [r1, #14]
 8007718:	2900      	cmp	r1, #0
 800771a:	b096      	sub	sp, #88	@ 0x58
 800771c:	4615      	mov	r5, r2
 800771e:	461e      	mov	r6, r3
 8007720:	da0d      	bge.n	800773e <__swhatbuf_r+0x2e>
 8007722:	89a3      	ldrh	r3, [r4, #12]
 8007724:	f013 0f80 	tst.w	r3, #128	@ 0x80
 8007728:	f04f 0100 	mov.w	r1, #0
 800772c:	bf14      	ite	ne
 800772e:	2340      	movne	r3, #64	@ 0x40
 8007730:	f44f 6380 	moveq.w	r3, #1024	@ 0x400
 8007734:	2000      	movs	r0, #0
 8007736:	6031      	str	r1, [r6, #0]
 8007738:	602b      	str	r3, [r5, #0]
 800773a:	b016      	add	sp, #88	@ 0x58
 800773c:	bd70      	pop	{r4, r5, r6, pc}
 800773e:	466a      	mov	r2, sp
 8007740:	f000 f89c 	bl	800787c <_fstat_r>
 8007744:	2800      	cmp	r0, #0
 8007746:	dbec      	blt.n	8007722 <__swhatbuf_r+0x12>
 8007748:	9901      	ldr	r1, [sp, #4]
 800774a:	f401 4170 	and.w	r1, r1, #61440	@ 0xf000
 800774e:	f5a1 5300 	sub.w	r3, r1, #8192	@ 0x2000
 8007752:	4259      	negs	r1, r3
 8007754:	4159      	adcs	r1, r3
 8007756:	f44f 6380 	mov.w	r3, #1024	@ 0x400
 800775a:	e7eb      	b.n	8007734 <__swhatbuf_r+0x24>

0800775c <__smakebuf_r>:
 800775c:	898b      	ldrh	r3, [r1, #12]
 800775e:	b5f7      	push	{r0, r1, r2, r4, r5, r6, r7, lr}
 8007760:	079d      	lsls	r5, r3, #30
 8007762:	4606      	mov	r6, r0
 8007764:	460c      	mov	r4, r1
 8007766:	d507      	bpl.n	8007778 <__smakebuf_r+0x1c>
 8007768:	f104 0347 	add.w	r3, r4, #71	@ 0x47
 800776c:	6023      	str	r3, [r4, #0]
 800776e:	6123      	str	r3, [r4, #16]
 8007770:	2301      	movs	r3, #1
 8007772:	6163      	str	r3, [r4, #20]
 8007774:	b003      	add	sp, #12
 8007776:	bdf0      	pop	{r4, r5, r6, r7, pc}
 8007778:	ab01      	add	r3, sp, #4
 800777a:	466a      	mov	r2, sp
 800777c:	f7ff ffc8 	bl	8007710 <__swhatbuf_r>
 8007780:	9f00      	ldr	r7, [sp, #0]
 8007782:	4605      	mov	r5, r0
 8007784:	4639      	mov	r1, r7
 8007786:	4630      	mov	r0, r6
 8007788:	f7fe fd0e 	bl	80061a8 <_malloc_r>
 800778c:	b948      	cbnz	r0, 80077a2 <__smakebuf_r+0x46>
 800778e:	f9b4 300c 	ldrsh.w	r3, [r4, #12]
 8007792:	059a      	lsls	r2, r3, #22
 8007794:	d4ee      	bmi.n	8007774 <__smakebuf_r+0x18>
 8007796:	f023 0303 	bic.w	r3, r3, #3
 800779a:	f043 0302 	orr.w	r3, r3, #2
 800779e:	81a3      	strh	r3, [r4, #12]
 80077a0:	e7e2      	b.n	8007768 <__smakebuf_r+0xc>
 80077a2:	89a3      	ldrh	r3, [r4, #12]
 80077a4:	6020      	str	r0, [r4, #0]
 80077a6:	f043 0380 	orr.w	r3, r3, #128	@ 0x80
 80077aa:	81a3      	strh	r3, [r4, #12]
 80077ac:	9b01      	ldr	r3, [sp, #4]
 80077ae:	e9c4 0704 	strd	r0, r7, [r4, #16]
 80077b2:	b15b      	cbz	r3, 80077cc <__smakebuf_r+0x70>
 80077b4:	f9b4 100e 	ldrsh.w	r1, [r4, #14]
 80077b8:	4630      	mov	r0, r6
 80077ba:	f000 f83b 	bl	8007834 <_isatty_r>
 80077be:	b128      	cbz	r0, 80077cc <__smakebuf_r+0x70>
 80077c0:	89a3      	ldrh	r3, [r4, #12]
 80077c2:	f023 0303 	bic.w	r3, r3, #3
 80077c6:	f043 0301 	orr.w	r3, r3, #1
 80077ca:	81a3      	strh	r3, [r4, #12]
 80077cc:	89a3      	ldrh	r3, [r4, #12]
 80077ce:	431d      	orrs	r5, r3
 80077d0:	81a5      	strh	r5, [r4, #12]
 80077d2:	e7cf      	b.n	8007774 <__smakebuf_r+0x18>

080077d4 <_raise_r>:
 80077d4:	291f      	cmp	r1, #31
 80077d6:	b538      	push	{r3, r4, r5, lr}
 80077d8:	4605      	mov	r5, r0
 80077da:	460c      	mov	r4, r1
 80077dc:	d904      	bls.n	80077e8 <_raise_r+0x14>
 80077de:	2316      	movs	r3, #22
 80077e0:	6003      	str	r3, [r0, #0]
 80077e2:	f04f 30ff 	mov.w	r0, #4294967295	@ 0xffffffff
 80077e6:	bd38      	pop	{r3, r4, r5, pc}
 80077e8:	6bc2      	ldr	r2, [r0, #60]	@ 0x3c
 80077ea:	b112      	cbz	r2, 80077f2 <_raise_r+0x1e>
 80077ec:	f852 3021 	ldr.w	r3, [r2, r1, lsl #2]
 80077f0:	b94b      	cbnz	r3, 8007806 <_raise_r+0x32>
 80077f2:	4628      	mov	r0, r5
 80077f4:	f000 f840 	bl	8007878 <_getpid_r>
 80077f8:	4622      	mov	r2, r4
 80077fa:	4601      	mov	r1, r0
 80077fc:	4628      	mov	r0, r5
 80077fe:	e8bd 4038 	ldmia.w	sp!, {r3, r4, r5, lr}
 8007802:	f000 b827 	b.w	8007854 <_kill_r>
 8007806:	2b01      	cmp	r3, #1
 8007808:	d00a      	beq.n	8007820 <_raise_r+0x4c>
 800780a:	1c59      	adds	r1, r3, #1
 800780c:	d103      	bne.n	8007816 <_raise_r+0x42>
 800780e:	2316      	movs	r3, #22
 8007810:	6003      	str	r3, [r0, #0]
 8007812:	2001      	movs	r0, #1
 8007814:	e7e7      	b.n	80077e6 <_raise_r+0x12>
 8007816:	2100      	movs	r1, #0
 8007818:	f842 1024 	str.w	r1, [r2, r4, lsl #2]
 800781c:	4620      	mov	r0, r4
 800781e:	4798      	blx	r3
 8007820:	2000      	movs	r0, #0
 8007822:	e7e0      	b.n	80077e6 <_raise_r+0x12>

08007824 <raise>:
 8007824:	4b02      	ldr	r3, [pc, #8]	@ (8007830 <raise+0xc>)
 8007826:	4601      	mov	r1, r0
 8007828:	6818      	ldr	r0, [r3, #0]
 800782a:	f7ff bfd3 	b.w	80077d4 <_raise_r>
 800782e:	bf00      	nop
 8007830:	20000194 	.word	0x20000194

08007834 <_isatty_r>:
 8007834:	b538      	push	{r3, r4, r5, lr}
 8007836:	4d06      	ldr	r5, [pc, #24]	@ (8007850 <_isatty_r+0x1c>)
 8007838:	2300      	movs	r3, #0
 800783a:	4604      	mov	r4, r0
 800783c:	4608      	mov	r0, r1
 800783e:	602b      	str	r3, [r5, #0]
 8007840:	f7fa fe3d 	bl	80024be <_isatty>
 8007844:	1c43      	adds	r3, r0, #1
 8007846:	d102      	bne.n	800784e <_isatty_r+0x1a>
 8007848:	682b      	ldr	r3, [r5, #0]
 800784a:	b103      	cbz	r3, 800784e <_isatty_r+0x1a>
 800784c:	6023      	str	r3, [r4, #0]
 800784e:	bd38      	pop	{r3, r4, r5, pc}
 8007850:	2000047c 	.word	0x2000047c

08007854 <_kill_r>:
 8007854:	b538      	push	{r3, r4, r5, lr}
 8007856:	4d07      	ldr	r5, [pc, #28]	@ (8007874 <_kill_r+0x20>)
 8007858:	2300      	movs	r3, #0
 800785a:	4604      	mov	r4, r0
 800785c:	4608      	mov	r0, r1
 800785e:	4611      	mov	r1, r2
 8007860:	602b      	str	r3, [r5, #0]
 8007862:	f7fa fdbc 	bl	80023de <_kill>
 8007866:	1c43      	adds	r3, r0, #1
 8007868:	d102      	bne.n	8007870 <_kill_r+0x1c>
 800786a:	682b      	ldr	r3, [r5, #0]
 800786c:	b103      	cbz	r3, 8007870 <_kill_r+0x1c>
 800786e:	6023      	str	r3, [r4, #0]
 8007870:	bd38      	pop	{r3, r4, r5, pc}
 8007872:	bf00      	nop
 8007874:	2000047c 	.word	0x2000047c

08007878 <_getpid_r>:
 8007878:	f7fa bda9 	b.w	80023ce <_getpid>

0800787c <_fstat_r>:
 800787c:	b538      	push	{r3, r4, r5, lr}
 800787e:	4d07      	ldr	r5, [pc, #28]	@ (800789c <_fstat_r+0x20>)
 8007880:	2300      	movs	r3, #0
 8007882:	4604      	mov	r4, r0
 8007884:	4608      	mov	r0, r1
 8007886:	4611      	mov	r1, r2
 8007888:	602b      	str	r3, [r5, #0]
 800788a:	f7fa fe08 	bl	800249e <_fstat>
 800788e:	1c43      	adds	r3, r0, #1
 8007890:	d102      	bne.n	8007898 <_fstat_r+0x1c>
 8007892:	682b      	ldr	r3, [r5, #0]
 8007894:	b103      	cbz	r3, 8007898 <_fstat_r+0x1c>
 8007896:	6023      	str	r3, [r4, #0]
 8007898:	bd38      	pop	{r3, r4, r5, pc}
 800789a:	bf00      	nop
 800789c:	2000047c 	.word	0x2000047c

080078a0 <logf>:
 80078a0:	b508      	push	{r3, lr}
 80078a2:	ed2d 8b02 	vpush	{d8}
 80078a6:	eeb0 8a40 	vmov.f32	s16, s0
 80078aa:	f000 f827 	bl	80078fc <__ieee754_logf>
 80078ae:	eeb4 8a48 	vcmp.f32	s16, s16
 80078b2:	eef1 fa10 	vmrs	APSR_nzcv, fpscr
 80078b6:	d60f      	bvs.n	80078d8 <logf+0x38>
 80078b8:	eeb5 8ac0 	vcmpe.f32	s16, #0.0
 80078bc:	eef1 fa10 	vmrs	APSR_nzcv, fpscr
 80078c0:	dc0a      	bgt.n	80078d8 <logf+0x38>
 80078c2:	eeb5 8a40 	vcmp.f32	s16, #0.0
 80078c6:	eef1 fa10 	vmrs	APSR_nzcv, fpscr
 80078ca:	d108      	bne.n	80078de <logf+0x3e>
 80078cc:	f7fc fee0 	bl	8004690 <__errno>
 80078d0:	2322      	movs	r3, #34	@ 0x22
 80078d2:	ed9f 0a08 	vldr	s0, [pc, #32]	@ 80078f4 <logf+0x54>
 80078d6:	6003      	str	r3, [r0, #0]
 80078d8:	ecbd 8b02 	vpop	{d8}
 80078dc:	bd08      	pop	{r3, pc}
 80078de:	f7fc fed7 	bl	8004690 <__errno>
 80078e2:	ecbd 8b02 	vpop	{d8}
 80078e6:	2321      	movs	r3, #33	@ 0x21
 80078e8:	6003      	str	r3, [r0, #0]
 80078ea:	e8bd 4008 	ldmia.w	sp!, {r3, lr}
 80078ee:	4802      	ldr	r0, [pc, #8]	@ (80078f8 <logf+0x58>)
 80078f0:	f7fc bf26 	b.w	8004740 <nanf>
 80078f4:	ff800000 	.word	0xff800000
 80078f8:	08007f08 	.word	0x08007f08

080078fc <__ieee754_logf>:
 80078fc:	ee10 3a10 	vmov	r3, s0
 8007900:	f033 4200 	bics.w	r2, r3, #2147483648	@ 0x80000000
 8007904:	d106      	bne.n	8007914 <__ieee754_logf+0x18>
 8007906:	ed9f 7a66 	vldr	s14, [pc, #408]	@ 8007aa0 <__ieee754_logf+0x1a4>
 800790a:	eddf 7a66 	vldr	s15, [pc, #408]	@ 8007aa4 <__ieee754_logf+0x1a8>
 800790e:	ee87 0a27 	vdiv.f32	s0, s14, s15
 8007912:	4770      	bx	lr
 8007914:	2b00      	cmp	r3, #0
 8007916:	461a      	mov	r2, r3
 8007918:	da02      	bge.n	8007920 <__ieee754_logf+0x24>
 800791a:	ee30 7a40 	vsub.f32	s14, s0, s0
 800791e:	e7f4      	b.n	800790a <__ieee754_logf+0xe>
 8007920:	f1b3 4fff 	cmp.w	r3, #2139095040	@ 0x7f800000
 8007924:	db02      	blt.n	800792c <__ieee754_logf+0x30>
 8007926:	ee30 0a00 	vadd.f32	s0, s0, s0
 800792a:	4770      	bx	lr
 800792c:	f5b3 0f00 	cmp.w	r3, #8388608	@ 0x800000
 8007930:	bfb8      	it	lt
 8007932:	eddf 7a5d 	vldrlt	s15, [pc, #372]	@ 8007aa8 <__ieee754_logf+0x1ac>
 8007936:	485d      	ldr	r0, [pc, #372]	@ (8007aac <__ieee754_logf+0x1b0>)
 8007938:	bfbe      	ittt	lt
 800793a:	ee60 7a27 	vmullt.f32	s15, s0, s15
 800793e:	f06f 0118 	mvnlt.w	r1, #24
 8007942:	ee17 2a90 	vmovlt	r2, s15
 8007946:	ea4f 53e2 	mov.w	r3, r2, asr #23
 800794a:	f3c2 0216 	ubfx	r2, r2, #0, #23
 800794e:	4410      	add	r0, r2
 8007950:	bfa8      	it	ge
 8007952:	2100      	movge	r1, #0
 8007954:	3b7f      	subs	r3, #127	@ 0x7f
 8007956:	440b      	add	r3, r1
 8007958:	f400 0100 	and.w	r1, r0, #8388608	@ 0x800000
 800795c:	f081 517e 	eor.w	r1, r1, #1065353216	@ 0x3f800000
 8007960:	4311      	orrs	r1, r2
 8007962:	ee00 1a10 	vmov	s0, r1
 8007966:	4952      	ldr	r1, [pc, #328]	@ (8007ab0 <__ieee754_logf+0x1b4>)
 8007968:	eb03 53d0 	add.w	r3, r3, r0, lsr #23
 800796c:	f102 000f 	add.w	r0, r2, #15
 8007970:	eef7 7a00 	vmov.f32	s15, #112	@ 0x3f800000  1.0
 8007974:	4001      	ands	r1, r0
 8007976:	ee30 0a67 	vsub.f32	s0, s0, s15
 800797a:	bb89      	cbnz	r1, 80079e0 <__ieee754_logf+0xe4>
 800797c:	eeb5 0a40 	vcmp.f32	s0, #0.0
 8007980:	eef1 fa10 	vmrs	APSR_nzcv, fpscr
 8007984:	d10f      	bne.n	80079a6 <__ieee754_logf+0xaa>
 8007986:	2b00      	cmp	r3, #0
 8007988:	f000 8087 	beq.w	8007a9a <__ieee754_logf+0x19e>
 800798c:	ee07 3a90 	vmov	s15, r3
 8007990:	ed9f 0a48 	vldr	s0, [pc, #288]	@ 8007ab4 <__ieee754_logf+0x1b8>
 8007994:	ed9f 7a48 	vldr	s14, [pc, #288]	@ 8007ab8 <__ieee754_logf+0x1bc>
 8007998:	eef8 7ae7 	vcvt.f32.s32	s15, s15
 800799c:	ee27 0a80 	vmul.f32	s0, s15, s0
 80079a0:	eea7 0a87 	vfma.f32	s0, s15, s14
 80079a4:	4770      	bx	lr
 80079a6:	eddf 6a45 	vldr	s13, [pc, #276]	@ 8007abc <__ieee754_logf+0x1c0>
 80079aa:	eef6 7a00 	vmov.f32	s15, #96	@ 0x3f000000  0.5
 80079ae:	eee0 7a66 	vfms.f32	s15, s0, s13
 80079b2:	ee20 7a00 	vmul.f32	s14, s0, s0
 80079b6:	ee27 7a27 	vmul.f32	s14, s14, s15
 80079ba:	b913      	cbnz	r3, 80079c2 <__ieee754_logf+0xc6>
 80079bc:	ee30 0a47 	vsub.f32	s0, s0, s14
 80079c0:	4770      	bx	lr
 80079c2:	ee07 3a90 	vmov	s15, r3
 80079c6:	eddf 6a3b 	vldr	s13, [pc, #236]	@ 8007ab4 <__ieee754_logf+0x1b8>
 80079ca:	eef8 7ae7 	vcvt.f32.s32	s15, s15
 80079ce:	eea7 7ae6 	vfms.f32	s14, s15, s13
 80079d2:	ee37 0a40 	vsub.f32	s0, s14, s0
 80079d6:	ed9f 7a38 	vldr	s14, [pc, #224]	@ 8007ab8 <__ieee754_logf+0x1bc>
 80079da:	ee97 0a87 	vfnms.f32	s0, s15, s14
 80079de:	4770      	bx	lr
 80079e0:	eef0 7a00 	vmov.f32	s15, #0	@ 0x40000000  2.0
 80079e4:	ee70 7a27 	vadd.f32	s15, s0, s15
 80079e8:	eddf 5a35 	vldr	s11, [pc, #212]	@ 8007ac0 <__ieee754_logf+0x1c4>
 80079ec:	eddf 4a35 	vldr	s9, [pc, #212]	@ 8007ac4 <__ieee754_logf+0x1c8>
 80079f0:	4935      	ldr	r1, [pc, #212]	@ (8007ac8 <__ieee754_logf+0x1cc>)
 80079f2:	ee80 6a27 	vdiv.f32	s12, s0, s15
 80079f6:	4411      	add	r1, r2
 80079f8:	f5c2 1257 	rsb	r2, r2, #3522560	@ 0x35c000
 80079fc:	f502 7222 	add.w	r2, r2, #648	@ 0x288
 8007a00:	430a      	orrs	r2, r1
 8007a02:	2a00      	cmp	r2, #0
 8007a04:	ee07 3a90 	vmov	s15, r3
 8007a08:	ee26 5a06 	vmul.f32	s10, s12, s12
 8007a0c:	eef8 6ae7 	vcvt.f32.s32	s13, s15
 8007a10:	ee25 7a05 	vmul.f32	s14, s10, s10
 8007a14:	eddf 7a2d 	vldr	s15, [pc, #180]	@ 8007acc <__ieee754_logf+0x1d0>
 8007a18:	eee7 7a25 	vfma.f32	s15, s14, s11
 8007a1c:	eddf 5a2c 	vldr	s11, [pc, #176]	@ 8007ad0 <__ieee754_logf+0x1d4>
 8007a20:	eee7 5a87 	vfma.f32	s11, s15, s14
 8007a24:	eddf 7a2b 	vldr	s15, [pc, #172]	@ 8007ad4 <__ieee754_logf+0x1d8>
 8007a28:	eee7 7a24 	vfma.f32	s15, s14, s9
 8007a2c:	eddf 4a2a 	vldr	s9, [pc, #168]	@ 8007ad8 <__ieee754_logf+0x1dc>
 8007a30:	eee7 4a87 	vfma.f32	s9, s15, s14
 8007a34:	eddf 7a29 	vldr	s15, [pc, #164]	@ 8007adc <__ieee754_logf+0x1e0>
 8007a38:	eee4 7a87 	vfma.f32	s15, s9, s14
 8007a3c:	ee67 7a85 	vmul.f32	s15, s15, s10
 8007a40:	eee5 7a87 	vfma.f32	s15, s11, s14
 8007a44:	dd1a      	ble.n	8007a7c <__ieee754_logf+0x180>
 8007a46:	eeb6 7a00 	vmov.f32	s14, #96	@ 0x3f000000  0.5
 8007a4a:	ee20 7a07 	vmul.f32	s14, s0, s14
 8007a4e:	ee27 7a00 	vmul.f32	s14, s14, s0
 8007a52:	ee77 7a87 	vadd.f32	s15, s15, s14
 8007a56:	ee67 7a86 	vmul.f32	s15, s15, s12
 8007a5a:	b913      	cbnz	r3, 8007a62 <__ieee754_logf+0x166>
 8007a5c:	ee37 7a67 	vsub.f32	s14, s14, s15
 8007a60:	e7ac      	b.n	80079bc <__ieee754_logf+0xc0>
 8007a62:	ed9f 6a14 	vldr	s12, [pc, #80]	@ 8007ab4 <__ieee754_logf+0x1b8>
 8007a66:	eee6 7a86 	vfma.f32	s15, s13, s12
 8007a6a:	ee37 7a67 	vsub.f32	s14, s14, s15
 8007a6e:	ee37 0a40 	vsub.f32	s0, s14, s0
 8007a72:	eddf 7a11 	vldr	s15, [pc, #68]	@ 8007ab8 <__ieee754_logf+0x1bc>
 8007a76:	ee96 0aa7 	vfnms.f32	s0, s13, s15
 8007a7a:	4770      	bx	lr
 8007a7c:	ee70 7a67 	vsub.f32	s15, s0, s15
 8007a80:	ee67 7a86 	vmul.f32	s15, s15, s12
 8007a84:	b913      	cbnz	r3, 8007a8c <__ieee754_logf+0x190>
 8007a86:	ee30 0a67 	vsub.f32	s0, s0, s15
 8007a8a:	4770      	bx	lr
 8007a8c:	ed9f 7a09 	vldr	s14, [pc, #36]	@ 8007ab4 <__ieee754_logf+0x1b8>
 8007a90:	eee6 7ac7 	vfms.f32	s15, s13, s14
 8007a94:	ee37 0ac0 	vsub.f32	s0, s15, s0
 8007a98:	e7eb      	b.n	8007a72 <__ieee754_logf+0x176>
 8007a9a:	ed9f 0a02 	vldr	s0, [pc, #8]	@ 8007aa4 <__ieee754_logf+0x1a8>
 8007a9e:	4770      	bx	lr
 8007aa0:	cc000000 	.word	0xcc000000
 8007aa4:	00000000 	.word	0x00000000
 8007aa8:	4c000000 	.word	0x4c000000
 8007aac:	004afb20 	.word	0x004afb20
 8007ab0:	007ffff0 	.word	0x007ffff0
 8007ab4:	3717f7d1 	.word	0x3717f7d1
 8007ab8:	3f317180 	.word	0x3f317180
 8007abc:	3eaaaaab 	.word	0x3eaaaaab
 8007ac0:	3e1cd04f 	.word	0x3e1cd04f
 8007ac4:	3e178897 	.word	0x3e178897
 8007ac8:	ffcf5c30 	.word	0xffcf5c30
 8007acc:	3e638e29 	.word	0x3e638e29
 8007ad0:	3ecccccd 	.word	0x3ecccccd
 8007ad4:	3e3a3325 	.word	0x3e3a3325
 8007ad8:	3e924925 	.word	0x3e924925
 8007adc:	3f2aaaab 	.word	0x3f2aaaab

08007ae0 <_init>:
 8007ae0:	b5f8      	push	{r3, r4, r5, r6, r7, lr}
 8007ae2:	bf00      	nop
 8007ae4:	bcf8      	pop	{r3, r4, r5, r6, r7}
 8007ae6:	bc08      	pop	{r3}
 8007ae8:	469e      	mov	lr, r3
 8007aea:	4770      	bx	lr

08007aec <_fini>:
 8007aec:	b5f8      	push	{r3, r4, r5, r6, r7, lr}
 8007aee:	bf00      	nop
 8007af0:	bcf8      	pop	{r3, r4, r5, r6, r7}
 8007af2:	bc08      	pop	{r3}
 8007af4:	469e      	mov	lr, r3
 8007af6:	4770      	bx	lr
